 AFCComDllEx

 Timestamp is 5c7a387a (Sat Mar 02 16:02:02 2019)

 Preferred load address is 10000000

 Start         Length     Name                   Class
 0001:00000000 00037871H .text                   CODE
 0001:00037880 0000297cH .text$x                 CODE
 0001:0003a200 000004e8H .text$yc                CODE
 0001:0003a6f0 00000184H .text$yd                CODE
 0002:00000000 00000604H .idata$5                DATA
 0002:00000604 00000004H .CRT$XCA                DATA
 0002:00000608 00000004H .CRT$XCL                DATA
 0002:0000060c 00000028H .CRT$XCU                DATA
 0002:00000634 00000004H .CRT$XCZ                DATA
 0002:00000638 00000004H .CRT$XIA                DATA
 0002:0000063c 00000004H .CRT$XIAA               DATA
 0002:00000640 00000004H .CRT$XIC                DATA
 0002:00000644 00000004H .CRT$XIZ                DATA
 0002:00000650 00003548H .rdata                  DATA
 0002:00003b98 0000005bH .rdata$debug            DATA
 0002:00003bf4 00000fe0H .rdata$r                DATA
 0002:00004be0 000002a4H .rdata$sxdata           DATA
 0002:00004e84 00000004H .rtc$IAA                DATA
 0002:00004e88 00000004H .rtc$IZZ                DATA
 0002:00004e8c 00000004H .rtc$TAA                DATA
 0002:00004e90 00000004H .rtc$TZZ                DATA
 0002:00004e98 00002f20H .xdata$x                DATA
 0002:00007db8 00000000H ATL$__a                 DATA
 0002:00007db8 00000000H ATL$__z                 DATA
 0002:00007db8 000000dcH .idata$2                DATA
 0002:00007e94 00000014H .idata$3                DATA
 0002:00007ea8 00000604H .idata$4                DATA
 0002:000084ac 0000189aH .idata$6                DATA
 0002:00009d50 000066e3H .edata                  DATA
 0003:00000000 00000818H .data                   DATA
 0003:00000818 0000060cH .bss                    DATA
 0004:00000000 00000058H .rsrc$01                DATA
 0004:00000060 000001d8H .rsrc$02                DATA

  Address         Publics by Value              Rva+Base       Lib:Object

 0000:00000000       __except_list              00000000     <absolute>
 0000:000000a9       ___safe_se_handler_count   000000a9     <absolute>
 0000:00009876       __ldused                   00009876     <absolute>
 0000:00009876       __fltused                  00009876     <absolute>
 0000:00000000       ___ImageBase               10000000     <linker-defined>
 0001:00000000       ?base64Encode@HN@@YA?AV?$basic_string@DU?$char_traits@D@std@@V?$allocator@D@2@@std@@PBDI@Z 10001000 f   Base64.obj
 0001:000002d0       ??0?$basic_string@DU?$char_traits@D@std@@V?$allocator@D@2@@std@@QAE@$$QAV01@@Z 100012d0 f i Base64.obj
 0001:00000360       ??Y?$basic_string@DU?$char_traits@D@std@@V?$allocator@D@2@@std@@QAEAAV01@PBD@Z 10001360 f i Base64.obj
 0001:00000390       ?data@?$basic_string@DU?$char_traits@D@std@@V?$allocator@D@2@@std@@QBEPBDXZ 10001390 f i Base64.obj
 0001:000003b0       ?append@?$basic_string@DU?$char_traits@D@std@@V?$allocator@D@2@@std@@QAEAAV12@PBD@Z 100013b0 f i Base64.obj
 0001:000003e0       ?length@?$char_traits@D@std@@SAIPBD@Z 100013e0 f i Base64.obj
 0001:00000400       ??1?$basic_string@DU?$char_traits@D@std@@V?$allocator@D@2@@std@@QAE@XZ 10001400 f i Base64.obj
 0001:00000460       ?c_str@?$basic_string@DU?$char_traits@D@std@@V?$allocator@D@2@@std@@QBEPBDXZ 10001460 f i Base64.obj
 0001:00000480       ??0?$basic_string@DU?$char_traits@D@std@@V?$allocator@D@2@@std@@QAE@XZ 10001480 f i Base64.obj
 0001:000004f0       ?assign@?$basic_string@DU?$char_traits@D@std@@V?$allocator@D@2@@std@@QAEAAV12@$$QAV12@@Z 100014f0 f i Base64.obj
 0001:000005d0       ?move@?$char_traits@D@std@@SAPADPADPBDI@Z 100015d0 f i Base64.obj
 0001:00000600       ??4?$basic_string@DU?$char_traits@D@std@@V?$allocator@D@2@@std@@QAEAAV01@ABV01@@Z 10001600 f i Base64.obj
 0001:00000630       ??Y?$basic_string@DU?$char_traits@D@std@@V?$allocator@D@2@@std@@QAEAAV01@D@Z 10001630 f i Base64.obj
 0001:00000660       ?assign@?$basic_string@DU?$char_traits@D@std@@V?$allocator@D@2@@std@@QAEAAV12@ABV12@@Z 10001660 f i Base64.obj
 0001:00000690       ?assign@?$basic_string@DU?$char_traits@D@std@@V?$allocator@D@2@@std@@QAEAAV12@ABV12@II@Z 10001690 f i Base64.obj
 0001:00000750       ?copy@?$char_traits@D@std@@SAPADPADPBDI@Z 10001750 f i Base64.obj
 0001:00000780       ?_Tidy@?$basic_string@DU?$char_traits@D@std@@V?$allocator@D@2@@std@@QAEX_NI@Z 10001780 f i Base64.obj
 0001:00000800       ?_Myptr@?$basic_string@DU?$char_traits@D@std@@V?$allocator@D@2@@std@@QAEPADXZ 10001800 f i Base64.obj
 0001:00000800       ?_Myptr@?$basic_string@DU?$char_traits@D@std@@V?$allocator@D@2@@std@@QBEPBDXZ 10001800 f i Base64.obj
 0001:00000830       ??0?$_String_val@DV?$allocator@D@std@@@std@@QAE@V?$allocator@D@1@@Z 10001830 f i Base64.obj
 0001:00000860       ?append@?$basic_string@DU?$char_traits@D@std@@V?$allocator@D@2@@std@@QAEAAV12@PBDI@Z 10001860 f i Base64.obj
 0001:00000920       ?append@?$basic_string@DU?$char_traits@D@std@@V?$allocator@D@2@@std@@QAEAAV12@ID@Z 10001920 f i Base64.obj
 0001:000009a0       ?erase@?$basic_string@DU?$char_traits@D@std@@V?$allocator@D@2@@std@@QAEAAV12@II@Z 100019a0 f i Base64.obj
 0001:00000a40       ?get_allocator@?$basic_string@DU?$char_traits@D@std@@V?$allocator@D@2@@std@@QBE?AV?$allocator@D@2@XZ 10001a40 f i Base64.obj
 0001:00000a70       ?_Eos@?$basic_string@DU?$char_traits@D@std@@V?$allocator@D@2@@std@@QAEXI@Z 10001a70 f i Base64.obj
 0001:00000ab0       ?assign@?$char_traits@D@std@@SAXAADABD@Z 10001ab0 f i Base64.obj
 0001:00000ad0       ?_Grow@?$basic_string@DU?$char_traits@D@std@@V?$allocator@D@2@@std@@QAE_NI_N@Z 10001ad0 f i Base64.obj
 0001:00000b70       ?_Xran@?$basic_string@DU?$char_traits@D@std@@V?$allocator@D@2@@std@@QBEXXZ 10001b70 f i Base64.obj
 0001:00000b90       ?append@?$basic_string@DU?$char_traits@D@std@@V?$allocator@D@2@@std@@QAEAAV12@ABV12@II@Z 10001b90 f i Base64.obj
 0001:00000c50       ?max_size@?$basic_string@DU?$char_traits@D@std@@V?$allocator@D@2@@std@@QBEIXZ 10001c50 f i Base64.obj
 0001:00000c90       ?_Chassign@?$basic_string@DU?$char_traits@D@std@@V?$allocator@D@2@@std@@QAEXIID@Z 10001c90 f i Base64.obj
 0001:00000cf0       ?assign@?$char_traits@D@std@@SAPADPADID@Z 10001cf0 f i Base64.obj
 0001:00000d20       ?_Copy@?$basic_string@DU?$char_traits@D@std@@V?$allocator@D@2@@std@@QAEXII@Z 10001d20 f i Base64.obj
 0001:00000eb0       ?_Inside@?$basic_string@DU?$char_traits@D@std@@V?$allocator@D@2@@std@@QAE_NPBD@Z 10001eb0 f i Base64.obj
 0001:00000f00       ?_Xlen@?$basic_string@DU?$char_traits@D@std@@V?$allocator@D@2@@std@@QBEXXZ 10001f00 f i Base64.obj
 0001:00000f20       ?allocate@?$allocator@D@std@@QAEPADI@Z 10001f20 f i Base64.obj
 0001:00000f50       ?max_size@?$allocator@D@std@@QBEIXZ 10001f50 f i Base64.obj
 0001:00000f90       ??$?9HH@std@@YA_NABV?$allocator@H@0@0@Z 10001f90 f i AFCSocket.obj
 0001:00000f90       ??$?9DD@std@@YA_NABV?$allocator@D@0@0@Z 10001f90 f i Base64.obj
 0001:00000fc0       ??$_Allocate@D@std@@YAPADIPAD@Z 10001fc0 f i Base64.obj
 0001:00001020       ??0bad_alloc@std@@QAE@PBD@Z 10002020 f i Base64.obj
 0001:00001050       ??1bad_alloc@std@@UAE@XZ   10002050 f i Base64.obj
 0001:00001080       ??_Gbad_alloc@std@@UAEPAXI@Z 10002080 f i Base64.obj
 0001:00001080       ??_Ebad_alloc@std@@UAEPAXI@Z 10002080 f i Base64.obj
 0001:000010c0       ??0bad_alloc@std@@QAE@ABV01@@Z 100020c0 f i Base64.obj
 0001:000010f0       ??0SHA1@HN@@QAE@XZ         100020f0 f   sha1.obj
 0001:00001110       ?reset@SHA1@HN@@QAEXXZ     10002110 f   sha1.obj
 0001:00001170       ?sha1Transform@SHA1@HN@@AAEXQAIQBE@Z 10002170 f   sha1.obj
 0001:000038f0       ?update@SHA1@HN@@QAEXABV?$basic_string@DU?$char_traits@D@std@@V?$allocator@D@2@@std@@@Z 100048f0 f   sha1.obj
 0001:00003930       ?update@SHA1@HN@@AAEXPBEI@Z 10004930 f   sha1.obj
 0001:00003a40       ?finalInternal@SHA1@HN@@AAEXXZ 10004a40 f   sha1.obj
 0001:00003b10       ?final@SHA1@HN@@QAEXPAX@Z  10004b10 f   sha1.obj
 0001:00003b80       ?begin@?$basic_string@DU?$char_traits@D@std@@V?$allocator@D@2@@std@@QAE?AV?$_String_iterator@DU?$char_traits@D@std@@V?$allocator@D@2@@2@XZ 10004b80 f i sha1.obj
 0001:00003bb0       ??0?$_String_iterator@DU?$char_traits@D@std@@V?$allocator@D@2@@std@@QAE@PADPBU_Container_base0@1@@Z 10004bb0 f i sha1.obj
 0001:00003be0       ??0?$_String_const_iterator@DU?$char_traits@D@std@@V?$allocator@D@2@@std@@QAE@PBDPBU_Container_base0@1@@Z 10004be0 f i sha1.obj
 0001:00003c10       ?makeHandshakeResponse@HN@@YA?AV?$basic_string@DU?$char_traits@D@std@@V?$allocator@D@2@@std@@PBD@Z 10004c10 f   WebSocketAssitInterface.obj
 0001:00003ea0       ?decodeFrameMask@HN@@YA?AW4WsFrameType@1@PBDHAAHPAV?$vector@DV?$allocator@D@std@@@std@@@Z 10004ea0 f   WebSocketAssitInterface.obj
 0001:00004590       ?encodeFrame@HN@@YAHW4WsFrameType@1@PBDHPADH@Z 10005590 f   WebSocketAssitInterface.obj
 0001:00004820       ??4?$basic_string@DU?$char_traits@D@std@@V?$allocator@D@2@@std@@QAEAAV01@$$QAV01@@Z 10005820 f i WebSocketAssitInterface.obj
 0001:00004850       ?reserve@?$basic_string@DU?$char_traits@D@std@@V?$allocator@D@2@@std@@QAEXI@Z 10005850 f i WebSocketAssitInterface.obj
 0001:000048b0       ?push_back@?$vector@DV?$allocator@D@std@@@std@@QAEX$$QAD@Z 100058b0 f i WebSocketAssitInterface.obj
 0001:000049c0       ?size@?$vector@DV?$allocator@D@std@@@std@@QBEIXZ 100059c0 f i WebSocketAssitInterface.obj
 0001:000049e0       ?push_back@?$vector@DV?$allocator@D@std@@@std@@QAEXABD@Z 100059e0 f i WebSocketAssitInterface.obj
 0001:00004ae0       ?pop_back@?$vector@DV?$allocator@D@std@@@std@@QAEXXZ 10005ae0 f i WebSocketAssitInterface.obj
 0001:00004b30       ?empty@?$vector@DV?$allocator@D@std@@@std@@QBE_NXZ 10005b30 f i WebSocketAssitInterface.obj
 0001:00004b60       ?_Reserve@?$vector@DV?$allocator@D@std@@@std@@IAEXI@Z 10005b60 f i WebSocketAssitInterface.obj
 0001:00004bd0       ?reserve@?$vector@DV?$allocator@D@std@@@std@@QAEXI@Z 10005bd0 f i WebSocketAssitInterface.obj
 0001:00004d10       ?capacity@?$vector@DV?$allocator@D@std@@@std@@QBEIXZ 10005d10 f i WebSocketAssitInterface.obj
 0001:00004d30       ?max_size@?$vector@DV?$allocator@D@std@@@std@@QBEIXZ 10005d30 f i WebSocketAssitInterface.obj
 0001:00004d50       ?_Grow_to@?$vector@DV?$allocator@D@std@@@std@@IBEII@Z 10005d50 f i WebSocketAssitInterface.obj
 0001:00004db0       ?_Xlen@?$vector@HV?$allocator@H@std@@@std@@IBEXXZ 10005db0 f i AFCSocket.obj
 0001:00004db0       ?_Xlen@?$vector@DV?$allocator@D@std@@@std@@IBEXXZ 10005db0 f i WebSocketAssitInterface.obj
 0001:00004dd0       ??$?HDU?$char_traits@D@std@@V?$allocator@D@1@@std@@YA?AV?$basic_string@DU?$char_traits@D@std@@V?$allocator@D@2@@0@$$QAV10@PBD@Z 10005dd0 f i WebSocketAssitInterface.obj
 0001:00004e20       ??$?HDU?$char_traits@D@std@@V?$allocator@D@1@@std@@YA?AV?$basic_string@DU?$char_traits@D@std@@V?$allocator@D@2@@0@PBDABV10@@Z 10005e20 f i WebSocketAssitInterface.obj
 0001:00004ee0       ??$_Cons_val@V?$allocator@D@std@@DAAD@std@@YAXAAV?$allocator@D@0@PADAAD@Z 10005ee0 f i WebSocketAssitInterface.obj
 0001:00004ee0       ??$_Cons_val@V?$allocator@D@std@@DD@std@@YAXAAV?$allocator@D@0@PAD$$QAD@Z 10005ee0 f i WebSocketAssitInterface.obj
 0001:00004f10       ??$_Cons_val@V?$allocator@D@std@@DABD@std@@YAXAAV?$allocator@D@0@PADABD@Z 10005f10 f i WebSocketAssitInterface.obj
 0001:00004f40       ??$_Umove@PAD@?$vector@DV?$allocator@D@std@@@std@@IAEPADPAD00@Z 10005f40 f i WebSocketAssitInterface.obj
 0001:00004f70       ?construct@?$allocator@D@std@@QAEXPADABD@Z 10005f70 f i WebSocketAssitInterface.obj
 0001:00004fa0       ??2@YAPAXIPAX@Z            10005fa0 f i WebSocketAssitInterface.obj
 0001:00004fc0       ??$construct@AAD@?$allocator@D@std@@QAEXPADAAD@Z 10005fc0 f i WebSocketAssitInterface.obj
 0001:00004fc0       ?construct@?$allocator@D@std@@QAEXPAD$$QAD@Z 10005fc0 f i WebSocketAssitInterface.obj
 0001:00005050       ??$_Uninitialized_move@PADPADV?$allocator@D@std@@@std@@YAPADPAD00AAV?$allocator@D@0@@Z 10006050 f i WebSocketAssitInterface.obj
 0001:000050a0       ??$_Ptr_cat@V?$_Vector_const_iterator@V?$_Vector_val@HV?$allocator@H@std@@@std@@@std@@PAH@std@@YA?AU_Nonscalar_ptr_iterator_tag@0@AAV?$_Vector_const_iterator@V?$_Vector_val@HV?$allocator@H@std@@@std@@@0@AAPAH@Z 100060a0 f i AFCSocket.obj
 0001:000050a0       ??$_Ptr_cat@DD@std@@YA?AU_Scalar_ptr_iterator_tag@0@PAD0@Z 100060a0 f i WebSocketAssitInterface.obj
 0001:000050a0       ??$_Ptr_cat@HH@std@@YA?AU_Scalar_ptr_iterator_tag@0@PAH0@Z 100060a0 f i AFCSocket.obj
 0001:000050c0       ??$_Construct@DABD@std@@YAXPADABD@Z 100060c0 f i WebSocketAssitInterface.obj
 0001:00005150       ??$_Val_type@PAH@std@@YAPAHPAH@Z 10006150 f i AFCSocket.obj
 0001:00005150       ??$_Val_type@PAD@std@@YAPADPAD@Z 10006150 f i WebSocketAssitInterface.obj
 0001:00005170       ??$_Uninit_move@DDD@std@@YAPADPAD00AAV?$allocator@D@0@0U_Scalar_ptr_iterator_tag@0@@Z 10006170 f i WebSocketAssitInterface.obj
 0001:000051b0       ??0?$basic_string@DU?$char_traits@D@std@@V?$allocator@D@2@@std@@QAE@PBD@Z 100061b0 f i WebSocketAssitInterface.obj
 0001:00005230       ??Y?$basic_string@DU?$char_traits@D@std@@V?$allocator@D@2@@std@@QAEAAV01@ABV01@@Z 10006230 f i WebSocketAssitInterface.obj
 0001:00005260       ?assign@?$basic_string@DU?$char_traits@D@std@@V?$allocator@D@2@@std@@QAEAAV12@PBD@Z 10006260 f i WebSocketAssitInterface.obj
 0001:00005290       ?append@?$basic_string@DU?$char_traits@D@std@@V?$allocator@D@2@@std@@QAEAAV12@ABV12@@Z 10006290 f i WebSocketAssitInterface.obj
 0001:000052c0       ?assign@?$basic_string@DU?$char_traits@D@std@@V?$allocator@D@2@@std@@QAEAAV12@PBDI@Z 100062c0 f i WebSocketAssitInterface.obj
 0001:00005350       ??1StrPair@tinyxml2@@QAE@XZ 10006350 f   tinyxml2.obj
 0001:00005370       ?Reset@StrPair@tinyxml2@@AAEXXZ 10006370 f   tinyxml2.obj
 0001:000053d0       ?SetStr@StrPair@tinyxml2@@QAEXPBDH@Z 100063d0 f   tinyxml2.obj
 0001:00005450       ?ParseText@StrPair@tinyxml2@@QAEPADPADPBDH@Z 10006450 f   tinyxml2.obj
 0001:000054e0       ?Set@StrPair@tinyxml2@@QAEXPAD0H@Z 100064e0 f i tinyxml2.obj
 0001:00005520       ?ParseName@StrPair@tinyxml2@@QAEPADPAD@Z 10006520 f   tinyxml2.obj
 0001:000055c0       ?IsNameStartChar@XMLUtil@tinyxml2@@SA_NE@Z 100065c0 f i tinyxml2.obj
 0001:00005620       ?IsNameChar@XMLUtil@tinyxml2@@SA_NE@Z 10006620 f i tinyxml2.obj
 0001:00005680       ?CollapseWhitespace@StrPair@tinyxml2@@AAEXXZ 10006680 f   tinyxml2.obj
 0001:00005750       ?SkipWhiteSpace@XMLUtil@tinyxml2@@SAPADPAD@Z 10006750 f i tinyxml2.obj
 0001:00005750       ?SkipWhiteSpace@XMLUtil@tinyxml2@@SAPBDPBD@Z 10006750 f i tinyxml2.obj
 0001:000057a0       ?IsWhiteSpace@XMLUtil@tinyxml2@@SA_ND@Z 100067a0 f i tinyxml2.obj
 0001:000057f0       ?IsUTF8Continuation@XMLUtil@tinyxml2@@SAHD@Z 100067f0 f i tinyxml2.obj
 0001:00005810       ?GetStr@StrPair@tinyxml2@@QAEPBDXZ 10006810 f   tinyxml2.obj
 0001:00005ab0       ?ReadBOM@XMLUtil@tinyxml2@@SAPBDPBDPA_N@Z 10006ab0 f   tinyxml2.obj
 0001:00005b10       ?ConvertUTF32ToUTF8@XMLUtil@tinyxml2@@SAXKPADPAH@Z 10006b10 f   tinyxml2.obj
 0001:00005ca0       ?GetCharacterRef@XMLUtil@tinyxml2@@SAPBDPBDPADPAH@Z 10006ca0 f   tinyxml2.obj
 0001:00005ed0       ?StringEqual@XMLUtil@tinyxml2@@SA_NPBD0H@Z 10006ed0 f i tinyxml2.obj
 0001:00005f60       ?Identify@XMLDocument@tinyxml2@@QAEPADPADPAPAVXMLNode@2@@Z 10006f60 f   tinyxml2.obj
 0001:000063f0       ?SetCData@XMLText@tinyxml2@@QAEX_N@Z 100073f0 f i tinyxml2.obj
 0001:00006410       ??0XMLText@tinyxml2@@IAE@PAVXMLDocument@1@@Z 10007410 f i tinyxml2.obj
 0001:00006450       ??_EXMLText@tinyxml2@@MAEPAXI@Z 10007450 f i tinyxml2.obj
 0001:00006450       ??_GXMLText@tinyxml2@@MAEPAXI@Z 10007450 f i tinyxml2.obj
 0001:00006490       ??1XMLText@tinyxml2@@MAE@XZ 10007490 f i tinyxml2.obj
 0001:000064c0       ?Accept@XMLDocument@tinyxml2@@UBE_NPAVXMLVisitor@2@@Z 100074c0 f   tinyxml2.obj
 0001:00006540       ?FirstChild@XMLNode@tinyxml2@@QBEPBV12@XZ 10007540 f i tinyxml2.obj
 0001:00006560       ?NextSibling@XMLNode@tinyxml2@@QBEPBV12@XZ 10007560 f i tinyxml2.obj
 0001:00006580       ??0XMLNode@tinyxml2@@IAE@PAVXMLDocument@1@@Z 10007580 f   tinyxml2.obj
 0001:00006600       ??0StrPair@tinyxml2@@QAE@XZ 10007600 f i tinyxml2.obj
 0001:00006640       ?ToComment@XMLNode@tinyxml2@@UAEPAVXMLComment@2@XZ 10007640 f i tinyxml2.obj
 0001:00006640       ?ToText@XMLNode@tinyxml2@@UAEPAVXMLText@2@XZ 10007640 f i tinyxml2.obj
 0001:00006640       ?ToDeclaration@XMLNode@tinyxml2@@UBEPBVXMLDeclaration@2@XZ 10007640 f i tinyxml2.obj
 0001:00006640       ?ToComment@XMLNode@tinyxml2@@UBEPBVXMLComment@2@XZ 10007640 f i tinyxml2.obj
 0001:00006640       ?ToText@XMLNode@tinyxml2@@UBEPBVXMLText@2@XZ 10007640 f i tinyxml2.obj
 0001:00006640       ?ToUnknown@XMLNode@tinyxml2@@UAEPAVXMLUnknown@2@XZ 10007640 f i tinyxml2.obj
 0001:00006640       ?ToElement@XMLNode@tinyxml2@@UAEPAVXMLElement@2@XZ 10007640 f i tinyxml2.obj
 0001:00006640       ?ToUnknown@XMLNode@tinyxml2@@UBEPBVXMLUnknown@2@XZ 10007640 f i tinyxml2.obj
 0001:00006640       ?ToDocument@XMLNode@tinyxml2@@UBEPBVXMLDocument@2@XZ 10007640 f i tinyxml2.obj
 0001:00006640       ?ToDocument@XMLNode@tinyxml2@@UAEPAVXMLDocument@2@XZ 10007640 f i tinyxml2.obj
 0001:00006640       ?ToElement@XMLNode@tinyxml2@@UBEPBVXMLElement@2@XZ 10007640 f i tinyxml2.obj
 0001:00006640       ?ToDeclaration@XMLNode@tinyxml2@@UAEPAVXMLDeclaration@2@XZ 10007640 f i tinyxml2.obj
 0001:00006640       ?RecvData@CUDPSocket@@QAEHXZ 10007640 f i AFCSocket.obj
 0001:00006660       ??_EXMLNode@tinyxml2@@MAEPAXI@Z 10007660 f i tinyxml2.obj
 0001:00006660       ??_GXMLNode@tinyxml2@@MAEPAXI@Z 10007660 f i tinyxml2.obj
 0001:000066a0       ??1XMLNode@tinyxml2@@MAE@XZ 100076a0 f   tinyxml2.obj
 0001:00006720       ?Value@XMLNode@tinyxml2@@QBEPBDXZ 10007720 f   tinyxml2.obj
 0001:00006740       ?SetValue@XMLNode@tinyxml2@@QAEXPBD_N@Z 10007740 f   tinyxml2.obj
 0001:00006780       ?SetInternedStr@StrPair@tinyxml2@@QAEXPBD@Z 10007780 f i tinyxml2.obj
 0001:000067b0       ?DeleteChildren@XMLNode@tinyxml2@@QAEXXZ 100077b0 f   tinyxml2.obj
 0001:00006830       ?Unlink@XMLNode@tinyxml2@@AAEXPAV12@@Z 10007830 f   tinyxml2.obj
 0001:000068c0       ?InsertEndChild@XMLNode@tinyxml2@@QAEPAV12@PAV12@@Z 100078c0 f   tinyxml2.obj
 0001:00006990       ?FirstChildElement@XMLNode@tinyxml2@@QBEPBVXMLElement@2@PBD@Z 10007990 f   tinyxml2.obj
 0001:00006a10       ?Name@XMLElement@tinyxml2@@QBEPBDXZ 10007a10 f i tinyxml2.obj
 0001:00006a30       ?NextSiblingElement@XMLNode@tinyxml2@@QBEPBVXMLElement@2@PBD@Z 10007a30 f   tinyxml2.obj
 0001:00006ab0       ?ParseDeep@XMLNode@tinyxml2@@UAEPADPADPAVStrPair@2@@Z 10007ab0 f   tinyxml2.obj
 0001:00006dd0       ?Empty@StrPair@tinyxml2@@QBE_NXZ 10007dd0 f i tinyxml2.obj
 0001:00006e00       ?ClosingType@XMLElement@tinyxml2@@QBEHXZ 10007e00 f i tinyxml2.obj
 0001:00006e20       ?Error@XMLDocument@tinyxml2@@QBE_NXZ 10007e20 f i tinyxml2.obj
 0001:00006e50       ?ParseDeep@XMLText@tinyxml2@@UAEPADPADPAVStrPair@2@@Z 10007e50 f   tinyxml2.obj
 0001:00006f40       ?CData@XMLText@tinyxml2@@QBE_NXZ 10007f40 f i tinyxml2.obj
 0001:00006f60       ?ProcessEntities@XMLDocument@tinyxml2@@QBE_NXZ 10007f60 f i tinyxml2.obj
 0001:00006f80       ?WhitespaceMode@XMLDocument@tinyxml2@@QBE?AW4Whitespace@2@XZ 10007f80 f i tinyxml2.obj
 0001:00006fa0       ?ShallowClone@XMLText@tinyxml2@@UBEPAVXMLNode@2@PAVXMLDocument@2@@Z 10007fa0 f   tinyxml2.obj
 0001:00006ff0       ?ShallowEqual@XMLText@tinyxml2@@UBE_NPBVXMLNode@2@@Z 10007ff0 f   tinyxml2.obj
 0001:00007060       ?Accept@XMLText@tinyxml2@@UBE_NPAVXMLVisitor@2@@Z 10008060 f   tinyxml2.obj
 0001:00007090       ??0XMLComment@tinyxml2@@IAE@PAVXMLDocument@1@@Z 10008090 f   tinyxml2.obj
 0001:000070c0       ??_EXMLComment@tinyxml2@@MAEPAXI@Z 100080c0 f i tinyxml2.obj
 0001:000070c0       ??_GXMLComment@tinyxml2@@MAEPAXI@Z 100080c0 f i tinyxml2.obj
 0001:00007100       ??1XMLComment@tinyxml2@@MAE@XZ 10008100 f   tinyxml2.obj
 0001:00007130       ?ParseDeep@XMLComment@tinyxml2@@UAEPADPADPAVStrPair@2@@Z 10008130 f   tinyxml2.obj
 0001:00007180       ?ShallowClone@XMLComment@tinyxml2@@UBEPAVXMLNode@2@PAVXMLDocument@2@@Z 10008180 f   tinyxml2.obj
 0001:000071c0       ?ShallowEqual@XMLComment@tinyxml2@@UBE_NPBVXMLNode@2@@Z 100081c0 f   tinyxml2.obj
 0001:00007230       ?Accept@XMLComment@tinyxml2@@UBE_NPAVXMLVisitor@2@@Z 10008230 f   tinyxml2.obj
 0001:00007260       ??0XMLDeclaration@tinyxml2@@IAE@PAVXMLDocument@1@@Z 10008260 f   tinyxml2.obj
 0001:00007290       ??_EXMLDeclaration@tinyxml2@@MAEPAXI@Z 10008290 f i tinyxml2.obj
 0001:00007290       ??_GXMLDeclaration@tinyxml2@@MAEPAXI@Z 10008290 f i tinyxml2.obj
 0001:000072d0       ??1XMLDeclaration@tinyxml2@@MAE@XZ 100082d0 f   tinyxml2.obj
 0001:00007300       ?ParseDeep@XMLDeclaration@tinyxml2@@UAEPADPADPAVStrPair@2@@Z 10008300 f   tinyxml2.obj
 0001:00007350       ?ShallowClone@XMLDeclaration@tinyxml2@@UBEPAVXMLNode@2@PAVXMLDocument@2@@Z 10008350 f   tinyxml2.obj
 0001:00007390       ?ShallowEqual@XMLDeclaration@tinyxml2@@UBE_NPBVXMLNode@2@@Z 10008390 f   tinyxml2.obj
 0001:00007400       ?Accept@XMLDeclaration@tinyxml2@@UBE_NPAVXMLVisitor@2@@Z 10008400 f   tinyxml2.obj
 0001:00007430       ??0XMLUnknown@tinyxml2@@IAE@PAVXMLDocument@1@@Z 10008430 f   tinyxml2.obj
 0001:00007460       ??_GXMLUnknown@tinyxml2@@MAEPAXI@Z 10008460 f i tinyxml2.obj
 0001:00007460       ??_EXMLUnknown@tinyxml2@@MAEPAXI@Z 10008460 f i tinyxml2.obj
 0001:000074a0       ??1XMLUnknown@tinyxml2@@MAE@XZ 100084a0 f   tinyxml2.obj
 0001:000074d0       ?ParseDeep@XMLUnknown@tinyxml2@@UAEPADPADPAVStrPair@2@@Z 100084d0 f   tinyxml2.obj
 0001:00007520       ?ShallowClone@XMLUnknown@tinyxml2@@UBEPAVXMLNode@2@PAVXMLDocument@2@@Z 10008520 f   tinyxml2.obj
 0001:00007560       ?ShallowEqual@XMLUnknown@tinyxml2@@UBE_NPBVXMLNode@2@@Z 10008560 f   tinyxml2.obj
 0001:000075d0       ?Accept@XMLUnknown@tinyxml2@@UBE_NPAVXMLVisitor@2@@Z 100085d0 f   tinyxml2.obj
 0001:00007600       ?Name@XMLAttribute@tinyxml2@@QBEPBDXZ 10008600 f   tinyxml2.obj
 0001:00007620       ?Value@XMLAttribute@tinyxml2@@QBEPBDXZ 10008620 f   tinyxml2.obj
 0001:00007640       ?ParseDeep@XMLAttribute@tinyxml2@@AAEPADPAD_N@Z 10008640 f   tinyxml2.obj
 0001:00007710       ?SetName@XMLAttribute@tinyxml2@@AAEXPBD@Z 10008710 f   tinyxml2.obj
 0001:00007740       ?SetAttribute@XMLAttribute@tinyxml2@@QAEXPBD@Z 10008740 f   tinyxml2.obj
 0001:00007770       ??0XMLElement@tinyxml2@@AAE@PAVXMLDocument@1@@Z 10008770 f   tinyxml2.obj
 0001:000077c0       ??_GXMLElement@tinyxml2@@EAEPAXI@Z 100087c0 f i tinyxml2.obj
 0001:000077c0       ??_EXMLElement@tinyxml2@@EAEPAXI@Z 100087c0 f i tinyxml2.obj
 0001:00007800       ??1XMLElement@tinyxml2@@EAE@XZ 10008800 f   tinyxml2.obj
 0001:000078c0       ?FindAttribute@XMLElement@tinyxml2@@QBEPBVXMLAttribute@2@PBD@Z 100088c0 f   tinyxml2.obj
 0001:00007920       ?Attribute@XMLElement@tinyxml2@@QBEPBDPBD0@Z 10008920 f   tinyxml2.obj
 0001:00007990       ?FindOrCreateAttribute@XMLElement@tinyxml2@@AAEPAVXMLAttribute@2@PBD@Z 10008990 f   tinyxml2.obj
 0001:00007af0       ??0XMLAttribute@tinyxml2@@AAE@XZ 10008af0 f i tinyxml2.obj
 0001:00007b80       ??_EXMLAttribute@tinyxml2@@EAEPAXI@Z 10008b80 f i tinyxml2.obj
 0001:00007b80       ??_GXMLAttribute@tinyxml2@@EAEPAXI@Z 10008b80 f i tinyxml2.obj
 0001:00007bc0       ??1XMLAttribute@tinyxml2@@EAE@XZ 10008bc0 f i tinyxml2.obj
 0001:00007c30       ?ParseAttributes@XMLElement@tinyxml2@@AAEPADPAD@Z 10008c30 f   tinyxml2.obj
 0001:00007e80       ?ParseDeep@XMLElement@tinyxml2@@UAEPADPADPAVStrPair@2@@Z 10008e80 f   tinyxml2.obj
 0001:00007f40       ?ShallowClone@XMLElement@tinyxml2@@UBEPAVXMLNode@2@PAVXMLDocument@2@@Z 10008f40 f   tinyxml2.obj
 0001:00007fc0       ?Next@XMLAttribute@tinyxml2@@QBEPBV12@XZ 10008fc0 f i tinyxml2.obj
 0001:00007fe0       ?SetAttribute@XMLElement@tinyxml2@@QAEXPBD0@Z 10008fe0 f i tinyxml2.obj
 0001:00008010       ?Size@?$DynArray@PAUBlock@?$MemPoolT@$0CE@@tinyxml2@@$09@tinyxml2@@QBEHXZ 10009010 f i tinyxml2.obj
 0001:00008010       ?Size@?$DynArray@PAUBlock@?$MemPoolT@$0CM@@tinyxml2@@$09@tinyxml2@@QBEHXZ 10009010 f i tinyxml2.obj
 0001:00008010       ?Size@?$DynArray@PAUBlock@?$MemPoolT@$0DE@@tinyxml2@@$09@tinyxml2@@QBEHXZ 10009010 f i tinyxml2.obj
 0001:00008010       ?FirstAttribute@XMLElement@tinyxml2@@QBEPBVXMLAttribute@2@XZ 10009010 f i tinyxml2.obj
 0001:00008010       ?Size@?$DynArray@PAUBlock@?$MemPoolT@$0DA@@tinyxml2@@$09@tinyxml2@@QBEHXZ 10009010 f i tinyxml2.obj
 0001:00008030       ?ShallowEqual@XMLElement@tinyxml2@@UBE_NPBVXMLNode@2@@Z 10009030 f   tinyxml2.obj
 0001:00008100       ?Accept@XMLElement@tinyxml2@@UBE_NPAVXMLVisitor@2@@Z 10009100 f   tinyxml2.obj
 0001:00008180       ??0XMLDocument@tinyxml2@@QAE@_NW4Whitespace@1@@Z 10009180 f   tinyxml2.obj
 0001:00008270       ?ToComment@XMLComment@tinyxml2@@UBEPBV12@XZ 10009270 f i tinyxml2.obj
 0001:00008270       ??0CObject@@IAE@XZ         10009270 f i DataLine.obj
 0001:00008270       ?ToElement@XMLElement@tinyxml2@@UAEPAV12@XZ 10009270 f i tinyxml2.obj
 0001:00008270       ?ToDeclaration@XMLDeclaration@tinyxml2@@UBEPBV12@XZ 10009270 f i tinyxml2.obj
 0001:00008270       ??0?$allocator@U?$pair@$$CBV?$CStringT@DV?$StrTraitMFC_DLL@DV?$ChTraitsCRT@D@ATL@@@@@ATL@@PAVCBcfListItem@@@std@@@std@@QAE@XZ 10009270 f i MainManage.obj
 0001:00008270       ??0yxyDES@@QAE@XZ          10009270 f i yxyDES.obj
 0001:00008270       ?ToElement@XMLElement@tinyxml2@@UBEPBV12@XZ 10009270 f i tinyxml2.obj
 0001:00008270       ?ToText@XMLText@tinyxml2@@UBEPBV12@XZ 10009270 f i tinyxml2.obj
 0001:00008270       ??0?$allocator@D@std@@QAE@XZ 10009270 f i Base64.obj
 0001:00008270       ??0?$allocator@PAUFILEINFO@@@std@@QAE@XZ 10009270 f i HNSmtp.obj
 0001:00008270       ??0?$allocator@U?$pair@$$CBHV?$vector@HV?$allocator@H@std@@@std@@@std@@@std@@QAE@XZ 10009270 f i AFCSocket.obj
 0001:00008270       ??0?$allocator@H@std@@QAE@XZ 10009270 f i AFCSocket.obj
 0001:00008270       ?ToDocument@XMLDocument@tinyxml2@@UBEPBV12@XZ 10009270 f i tinyxml2.obj
 0001:00008270       ?ToText@XMLText@tinyxml2@@UAEPAV12@XZ 10009270 f i tinyxml2.obj
 0001:00008270       ?ToUnknown@XMLUnknown@tinyxml2@@UBEPBV12@XZ 10009270 f i tinyxml2.obj
 0001:00008270       ?ToDeclaration@XMLDeclaration@tinyxml2@@UAEPAV12@XZ 10009270 f i tinyxml2.obj
 0001:00008270       ??0ManageInfoStruct@@QAE@XZ 10009270 f i MainManage.obj
 0001:00008270       ??0?$allocator@U?$pair@$$CBV?$basic_string@DU?$char_traits@D@std@@V?$allocator@D@2@@std@@VHNTreeNode@@@std@@@std@@QAE@XZ 10009270 f i HNFilter.obj
 0001:00008270       ?ToDocument@XMLDocument@tinyxml2@@UAEPAV12@XZ 10009270 f i tinyxml2.obj
 0001:00008270       ?ToUnknown@XMLUnknown@tinyxml2@@UAEPAV12@XZ 10009270 f i tinyxml2.obj
 0001:00008270       ??0?$allocator@U?$pair@$$CBV?$CStringT@DV?$StrTraitMFC_DLL@DV?$ChTraitsCRT@D@ATL@@@@@ATL@@PAVCBcfFileNameItem@@@std@@@std@@QAE@XZ 10009270 f i MainManage.obj
 0001:00008270       ?ToComment@XMLComment@tinyxml2@@UAEPAV12@XZ 10009270 f i tinyxml2.obj
 0001:00008290       ?ShallowClone@XMLDocument@tinyxml2@@UBEPAVXMLNode@2@PAV12@@Z 10009290 f i tinyxml2.obj
 0001:000082b0       ?ShallowEqual@XMLDocument@tinyxml2@@UBE_NPBVXMLNode@2@@Z 100092b0 f i tinyxml2.obj
 0001:000082d0       ??_EXMLDocument@tinyxml2@@UAEPAXI@Z 100092d0 f i tinyxml2.obj
 0001:000082d0       ??_GXMLDocument@tinyxml2@@UAEPAXI@Z 100092d0 f i tinyxml2.obj
 0001:00008310       ??1XMLDocument@tinyxml2@@UAE@XZ 10009310 f   tinyxml2.obj
 0001:000083d0       ?Clear@XMLDocument@tinyxml2@@QAEXXZ 100093d0 f   tinyxml2.obj
 0001:00008430       ?NewElement@XMLDocument@tinyxml2@@QAEPAVXMLElement@2@PBD@Z 10009430 f   tinyxml2.obj
 0001:000084f0       ?SetName@XMLElement@tinyxml2@@QAEXPBD_N@Z 100094f0 f i tinyxml2.obj
 0001:00008520       ?NewComment@XMLDocument@tinyxml2@@QAEPAVXMLComment@2@PBD@Z 10009520 f   tinyxml2.obj
 0001:000085f0       ?NewText@XMLDocument@tinyxml2@@QAEPAVXMLText@2@PBD@Z 100095f0 f   tinyxml2.obj
 0001:000086c0       ?NewDeclaration@XMLDocument@tinyxml2@@QAEPAVXMLDeclaration@2@PBD@Z 100096c0 f   tinyxml2.obj
 0001:000087a0       ?NewUnknown@XMLDocument@tinyxml2@@QAEPAVXMLUnknown@2@PBD@Z 100097a0 f   tinyxml2.obj
 0001:00008870       ?LoadFile@XMLDocument@tinyxml2@@QAE?AW4XMLError@2@PBD@Z 10009870 f   tinyxml2.obj
 0001:000088f0       ?LoadFile@XMLDocument@tinyxml2@@QAE?AW4XMLError@2@PAU_iobuf@@@Z 100098f0 f   tinyxml2.obj
 0001:00008a90       ?SetError@XMLDocument@tinyxml2@@QAEXW4XMLError@2@PBD1@Z 10009a90 f   tinyxml2.obj
 0001:00008ac0       ??0?$MemPoolT@$0DE@@tinyxml2@@QAE@XZ 10009ac0 f i tinyxml2.obj
 0001:00008b60       ??0MemPool@tinyxml2@@QAE@XZ 10009b60 f i tinyxml2.obj
 0001:00008b80       ??1MemPool@tinyxml2@@UAE@XZ 10009b80 f i tinyxml2.obj
 0001:00008ba0       ??_EMemPool@tinyxml2@@UAEPAXI@Z 10009ba0 f i tinyxml2.obj
 0001:00008ba0       ??_GMemPool@tinyxml2@@UAEPAXI@Z 10009ba0 f i tinyxml2.obj
 0001:00008be0       ??1?$MemPoolT@$0DE@@tinyxml2@@UAE@XZ 10009be0 f i tinyxml2.obj
 0001:00008c90       ?ItemSize@?$MemPoolT@$0DE@@tinyxml2@@UBEHXZ 10009c90 f i tinyxml2.obj
 0001:00008cb0       ?Alloc@?$MemPoolT@$0DE@@tinyxml2@@UAEPAXXZ 10009cb0 f i tinyxml2.obj
 0001:00008dd0       ?SetTracked@?$MemPoolT@$0DA@@tinyxml2@@UAEXXZ 10009dd0 f i tinyxml2.obj
 0001:00008dd0       ?SetTracked@?$MemPoolT@$0CM@@tinyxml2@@UAEXXZ 10009dd0 f i tinyxml2.obj
 0001:00008dd0       ?SetTracked@?$MemPoolT@$0DE@@tinyxml2@@UAEXXZ 10009dd0 f i tinyxml2.obj
 0001:00008dd0       ?SetTracked@?$MemPoolT@$0CE@@tinyxml2@@UAEXXZ 10009dd0 f i tinyxml2.obj
 0001:00008e00       ??0?$MemPoolT@$0CE@@tinyxml2@@QAE@XZ 10009e00 f i tinyxml2.obj
 0001:00008ea0       ??1?$MemPoolT@$0CE@@tinyxml2@@UAE@XZ 10009ea0 f i tinyxml2.obj
 0001:00008f50       ?ItemSize@?$MemPoolT@$0CE@@tinyxml2@@UBEHXZ 10009f50 f i tinyxml2.obj
 0001:00008f70       ?Alloc@?$MemPoolT@$0CE@@tinyxml2@@UAEPAXXZ 10009f70 f i tinyxml2.obj
 0001:00009090       ??0?$MemPoolT@$0DA@@tinyxml2@@QAE@XZ 1000a090 f i tinyxml2.obj
 0001:00009130       ??1?$MemPoolT@$0DA@@tinyxml2@@UAE@XZ 1000a130 f i tinyxml2.obj
 0001:000091e0       ?ItemSize@?$MemPoolT@$0DA@@tinyxml2@@UBEHXZ 1000a1e0 f i tinyxml2.obj
 0001:00009200       ?Alloc@?$MemPoolT@$0DA@@tinyxml2@@UAEPAXXZ 1000a200 f i tinyxml2.obj
 0001:00009320       ?Free@?$MemPoolT@$0CM@@tinyxml2@@UAEXPAX@Z 1000a320 f i tinyxml2.obj
 0001:00009320       ?Free@?$MemPoolT@$0DA@@tinyxml2@@UAEXPAX@Z 1000a320 f i tinyxml2.obj
 0001:00009320       ?Free@?$MemPoolT@$0DE@@tinyxml2@@UAEXPAX@Z 1000a320 f i tinyxml2.obj
 0001:00009320       ?Free@?$MemPoolT@$0CE@@tinyxml2@@UAEXPAX@Z 1000a320 f i tinyxml2.obj
 0001:00009370       ??0?$MemPoolT@$0CM@@tinyxml2@@QAE@XZ 1000a370 f i tinyxml2.obj
 0001:00009410       ??1?$MemPoolT@$0CM@@tinyxml2@@UAE@XZ 1000a410 f i tinyxml2.obj
 0001:000094c0       ?ItemSize@?$MemPoolT@$0CM@@tinyxml2@@UBEHXZ 1000a4c0 f i tinyxml2.obj
 0001:000094e0       ?Alloc@?$MemPoolT@$0CM@@tinyxml2@@UAEPAXXZ 1000a4e0 f i tinyxml2.obj
 0001:00009600       ??_G?$MemPoolT@$0DE@@tinyxml2@@UAEPAXI@Z 1000a600 f i tinyxml2.obj
 0001:00009600       ??_E?$MemPoolT@$0DE@@tinyxml2@@UAEPAXI@Z 1000a600 f i tinyxml2.obj
 0001:00009640       ??_E?$MemPoolT@$0CE@@tinyxml2@@UAEPAXI@Z 1000a640 f i tinyxml2.obj
 0001:00009640       ??_G?$MemPoolT@$0CE@@tinyxml2@@UAEPAXI@Z 1000a640 f i tinyxml2.obj
 0001:00009680       ??_E?$MemPoolT@$0DA@@tinyxml2@@UAEPAXI@Z 1000a680 f i tinyxml2.obj
 0001:00009680       ??_G?$MemPoolT@$0DA@@tinyxml2@@UAEPAXI@Z 1000a680 f i tinyxml2.obj
 0001:000096c0       ??_E?$MemPoolT@$0CM@@tinyxml2@@UAEPAXI@Z 1000a6c0 f i tinyxml2.obj
 0001:000096c0       ??_G?$MemPoolT@$0CM@@tinyxml2@@UAEPAXI@Z 1000a6c0 f i tinyxml2.obj
 0001:00009700       ??1?$DynArray@PAUBlock@?$MemPoolT@$0CE@@tinyxml2@@$09@tinyxml2@@QAE@XZ 1000a700 f i tinyxml2.obj
 0001:00009700       ??1?$DynArray@PAUBlock@?$MemPoolT@$0CM@@tinyxml2@@$09@tinyxml2@@QAE@XZ 1000a700 f i tinyxml2.obj
 0001:00009700       ??1?$DynArray@PAUBlock@?$MemPoolT@$0DE@@tinyxml2@@$09@tinyxml2@@QAE@XZ 1000a700 f i tinyxml2.obj
 0001:00009700       ??1?$DynArray@PAUBlock@?$MemPoolT@$0DA@@tinyxml2@@$09@tinyxml2@@QAE@XZ 1000a700 f i tinyxml2.obj
 0001:00009740       ??0?$DynArray@PAUBlock@?$MemPoolT@$0DA@@tinyxml2@@$09@tinyxml2@@QAE@XZ 1000a740 f i tinyxml2.obj
 0001:00009740       ??0?$DynArray@PAUBlock@?$MemPoolT@$0DE@@tinyxml2@@$09@tinyxml2@@QAE@XZ 1000a740 f i tinyxml2.obj
 0001:00009740       ??0?$DynArray@PAUBlock@?$MemPoolT@$0CM@@tinyxml2@@$09@tinyxml2@@QAE@XZ 1000a740 f i tinyxml2.obj
 0001:00009740       ??0?$DynArray@PAUBlock@?$MemPoolT@$0CE@@tinyxml2@@$09@tinyxml2@@QAE@XZ 1000a740 f i tinyxml2.obj
 0001:00009780       ?Push@?$DynArray@PAUBlock@?$MemPoolT@$0CM@@tinyxml2@@$09@tinyxml2@@QAEXPAUBlock@?$MemPoolT@$0CM@@2@@Z 1000a780 f i tinyxml2.obj
 0001:00009780       ?Push@?$DynArray@PAUBlock@?$MemPoolT@$0DE@@tinyxml2@@$09@tinyxml2@@QAEXPAUBlock@?$MemPoolT@$0DE@@2@@Z 1000a780 f i tinyxml2.obj
 0001:00009780       ?Push@?$DynArray@PAUBlock@?$MemPoolT@$0DA@@tinyxml2@@$09@tinyxml2@@QAEXPAUBlock@?$MemPoolT@$0DA@@2@@Z 1000a780 f i tinyxml2.obj
 0001:00009780       ?Push@?$DynArray@PAUBlock@?$MemPoolT@$0CE@@tinyxml2@@$09@tinyxml2@@QAEXPAUBlock@?$MemPoolT@$0CE@@2@@Z 1000a780 f i tinyxml2.obj
 0001:000097d0       ??A?$DynArray@PAUBlock@?$MemPoolT@$0CM@@tinyxml2@@$09@tinyxml2@@QAEAAPAUBlock@?$MemPoolT@$0CM@@1@H@Z 1000a7d0 f i tinyxml2.obj
 0001:000097d0       ??A?$DynArray@PAUBlock@?$MemPoolT@$0DE@@tinyxml2@@$09@tinyxml2@@QAEAAPAUBlock@?$MemPoolT@$0DE@@1@H@Z 1000a7d0 f i tinyxml2.obj
 0001:000097d0       ??A?$DynArray@PAUBlock@?$MemPoolT@$0CE@@tinyxml2@@$09@tinyxml2@@QAEAAPAUBlock@?$MemPoolT@$0CE@@1@H@Z 1000a7d0 f i tinyxml2.obj
 0001:000097d0       ??A?$DynArray@PAUBlock@?$MemPoolT@$0DA@@tinyxml2@@$09@tinyxml2@@QAEAAPAUBlock@?$MemPoolT@$0DA@@1@H@Z 1000a7d0 f i tinyxml2.obj
 0001:000097f0       ?EnsureCapacity@?$DynArray@PAUBlock@?$MemPoolT@$0DA@@tinyxml2@@$09@tinyxml2@@AAEXH@Z 1000a7f0 f i tinyxml2.obj
 0001:000097f0       ?EnsureCapacity@?$DynArray@PAUBlock@?$MemPoolT@$0CE@@tinyxml2@@$09@tinyxml2@@AAEXH@Z 1000a7f0 f i tinyxml2.obj
 0001:000097f0       ?EnsureCapacity@?$DynArray@PAUBlock@?$MemPoolT@$0CM@@tinyxml2@@$09@tinyxml2@@AAEXH@Z 1000a7f0 f i tinyxml2.obj
 0001:000097f0       ?EnsureCapacity@?$DynArray@PAUBlock@?$MemPoolT@$0DE@@tinyxml2@@$09@tinyxml2@@AAEXH@Z 1000a7f0 f i tinyxml2.obj
 0001:00009890       _ExtRawDllMain@12          1000a890 f   AFCComDllEx.obj
 0001:000098f0       _DllMain@12                1000a8f0 f   AFCComDllEx.obj
 0001:00009970       ??B?$CTypedSimpleList@PAVCOleObjectFactory@@@@QAEPAVCOleObjectFactory@@XZ 1000a970 f i AFCComDllEx.obj
 0001:00009970       ??B?$CTypedSimpleList@PAUCRuntimeClass@@@@QAEPAUCRuntimeClass@@XZ 1000a970 f i AFCComDllEx.obj
 0001:00009990       ??2CObject@@SGPAXI@Z       1000a990 f i AFCComDllEx.obj
 0001:000099b0       ??4CSignedLockObject@@QAEAAV0@ABV0@@Z 1000a9b0 f i AFCDataBase.obj
 0001:000099b0       ??4CBcfFile@@QAEAAV0@ABV0@@Z 1000a9b0 f i MainManage.obj
 0001:000099e0       ??0CAFCSignedLock@@QAE@XZ  1000a9e0 f i AFCDataBase.obj
 0001:00009a00       ??1CAFCSignedLock@@QAE@XZ  1000aa00 f i AFCDataBase.obj
 0001:00009a20       ?Lock@CAFCSignedLock@@AAEXXZ 1000aa20 f i AFCDataBase.obj
 0001:00009a40       ?UnLock@CAFCSignedLock@@AAEXXZ 1000aa40 f i AFCDataBase.obj
 0001:00009a60       ??4CAFCSignedLock@@QAEAAV0@ABV0@@Z 1000aa60 f i AFCDataBase.obj
 0001:00009aa0       ??4CAFCRWLock@@QAEAAV0@ABV0@@Z 1000aaa0 f i AFCDataBase.obj
 0001:00009ad0       ?GetLock@CDataLine@@QAEPAVCAFCSignedLock@@XZ 1000aad0 f i AFCDataBase.obj
 0001:00009af0       ?SetCompletionHandle@CDataLine@@QAEXPAX@Z 1000aaf0 f i AFCDataBase.obj
 0001:00009b10       ??0CAFCException@@QAE@ABV0@@Z 1000ab10 f i AFCDataBase.obj
 0001:00009b60       ??4CAFCException@@QAEAAV0@ABV0@@Z 1000ab60 f i AFCDataBase.obj
 0001:00009bc0       ??_ECAFCException@@UAEPAXI@Z 1000abc0 f i AFCDataBase.obj
 0001:00009c40       ??_ECAFCDataBaseManage@@UAEPAXI@Z 1000ac40 f i AFCDataBase.obj
 0001:00009cc0       ??0CDataBaseHandle@@QAE@ABV0@@Z 1000acc0 f i AFCDataBase.obj
 0001:00009d20       ??4CDataBaseHandle@@QAEAAV0@ABV0@@Z 1000ad20 f i AFCDataBase.obj
 0001:00009d80       ??_ECDataBaseHandle@@UAEPAXI@Z 1000ad80 f i AFCDataBase.obj
 0001:00009e00       ??0IDataBaseHandleService@@QAE@ABU0@@Z 1000ae00 f i AFCDataBase.obj
 0001:00009e30       ??0CUDPSocket@@QAE@ABV0@@Z 1000ae30 f i AFCDataBase.obj
 0001:00009e60       ??_ECUDPSocket@@UAEPAXI@Z  1000ae60 f i AFCDataBase.obj
 0001:00009ee0       ?GetSocketState@CTCPClientSocket@@QAEEXZ 1000aee0 f i AFCDataBase.obj
 0001:00009f00       ??BCSyncObject@@QBEPAXXZ   1000af00 f i AFCDataBase.obj
 0001:00009f00       ?GetPermitCount@?$CAFCPtrArray@VCTCPSocketForZ@@@@QAEIXZ 1000af00 f i AFCSocket.obj
 0001:00009f00       ?GetPermitCount@?$CAFCPtrArray@VCTCPSocket@@@@QAEIXZ 1000af00 f i AFCSocket.obj
 0001:00009f00       ?GetSafeSocket@CListenSocket@@QAEIXZ 1000af00 f i AFCDataBase.obj
 0001:00009f00       ?GetPermitCount@?$CAFCPtrArray@VCTCPSocketForWeb@@@@QAEIXZ 1000af00 f i AFCWebSocket.obj
 0001:00009f20       ??0CListenSocket@@QAE@ABV0@@Z 1000af20 f i AFCDataBase.obj
 0001:00009f50       ??4CUDPSocket@@QAEAAV0@ABV0@@Z 1000af50 f i AFCDataBase.obj
 0001:00009f50       ??4CListenSocket@@QAEAAV0@ABV0@@Z 1000af50 f i AFCDataBase.obj
 0001:00009f80       ??_ECListenSocket@@UAEPAXI@Z 1000af80 f i AFCDataBase.obj
 0001:0000a000       ?IsConnect@CTCPSocket@@QAE_NXZ 1000b000 f i AFCDataBase.obj
 0001:0000a030       ?GetBeginTime@CTCPSocket@@QAEJXZ 1000b030 f i AFCDataBase.obj
 0001:0000a050       ?GetConnectData@CTCPSocket@@QAEKXZ 1000b050 f i AFCDataBase.obj
 0001:0000a070       ?GetRecvLock@CTCPSocket@@QAEPAVCAFCSignedLock@@XZ 1000b070 f i AFCDataBase.obj
 0001:0000a090       ?GetSendLock@CTCPSocket@@QAEPAVCAFCSignedLock@@XZ 1000b090 f i AFCDataBase.obj
 0001:0000a0b0       ?SetSocketManagePtr@CTCPSocket@@IAEXPAVCTCPSocketManage@@@Z 1000b0b0 f i AFCDataBase.obj
 0001:0000a0e0       ??0CTCPSocket@@QAE@ABV0@@Z 1000b0e0 f i AFCDataBase.obj
 0001:0000a280       ??4CTCPSocket@@QAEAAV0@ABV0@@Z 1000b280 f i AFCDataBase.obj
 0001:0000a440       ??_ECTCPSocket@@UAEPAXI@Z  1000b440 f i AFCDataBase.obj
 0001:0000a4c0       ?IsConnect@CTCPSocketForZ@@QAE_NXZ 1000b4c0 f i AFCDataBase.obj
 0001:0000a4f0       ?GetBeginTime@CTCPSocketForZ@@QAEJXZ 1000b4f0 f i AFCDataBase.obj
 0001:0000a510       ?GetConnectData@CTCPSocketForZ@@QAEKXZ 1000b510 f i AFCDataBase.obj
 0001:0000a530       ?GetRecvLock@CTCPSocketForZ@@QAEPAVCAFCSignedLock@@XZ 1000b530 f i AFCDataBase.obj
 0001:0000a550       ?GetSendLock@CTCPSocketForZ@@QAEPAVCAFCSignedLock@@XZ 1000b550 f i AFCDataBase.obj
 0001:0000a570       ?SetSocketManagePtr@CTCPSocketForZ@@IAEXPAVCTCPSocketManageForZ@@@Z 1000b570 f i AFCDataBase.obj
 0001:0000a5a0       ??0CTCPSocketForZ@@QAE@ABV0@@Z 1000b5a0 f i AFCDataBase.obj
 0001:0000a740       ??4CTCPSocketForZ@@QAEAAV0@ABV0@@Z 1000b740 f i AFCDataBase.obj
 0001:0000a900       ??_ECTCPSocketForZ@@UAEPAXI@Z 1000b900 f i AFCDataBase.obj
 0001:0000a980       ??0CAFCDataBaseManage@@QAE@XZ 1000b980 f   AFCDataBase.obj
 0001:0000aab0       ??1CAFCDataBaseManage@@UAE@XZ 1000bab0 f   AFCDataBase.obj
 0001:0000ab60       ?Start@CAFCDataBaseManage@@QAE_NXZ 1000bb60 f   AFCDataBase.obj
 0001:0000ae70       ?Stop@CAFCDataBaseManage@@QAE_NXZ 1000be70 f   AFCDataBase.obj
 0001:0000af30       ?UnInit@CAFCDataBaseManage@@QAE_NXZ 1000bf30 f   AFCDataBase.obj
 0001:0000afa0       ?PushLine@CAFCDataBaseManage@@QAE_NPAUDataBaseLineHead@@IIIK@Z 1000bfa0 f   AFCDataBase.obj
 0001:0000b000       ?DataServiceThread@CAFCDataBaseManage@@CGIPAX@Z 1000c000 f   AFCDataBase.obj
 0001:0000b180       ?SQLConnectReset@CAFCDataBaseManage@@QAE_NXZ 1000c180 f   AFCDataBase.obj
 0001:0000b670       ?FirstChildElement@XMLNode@tinyxml2@@QAEPAVXMLElement@2@PBD@Z 1000c670 f i AFCDataBase.obj
 0001:0000b6a0       ?OnStart@CBaseMainManageForWeb@@EAE_NXZ 1000c6a0 f   MainManageForWeb.obj
 0001:0000b6a0       ?OnStop@CBaseMainManageForZ@@EAE_NXZ 1000c6a0 f   MainManageForZ.obj
 0001:0000b6a0       ?OnUnInit@CBaseMainManageForWeb@@EAE_NXZ 1000c6a0 f   MainManageForWeb.obj
 0001:0000b6a0       ?OnStart@CBaseMainManageForZ@@EAE_NXZ 1000c6a0 f   MainManageForZ.obj
 0001:0000b6a0       ?OnStop@CBaseMainManage@@EAE_NXZ 1000c6a0 f   MainManage.obj
 0001:0000b6a0       ?OnStart@CBaseMainManage@@EAE_NXZ 1000c6a0 f   MainManage.obj
 0001:0000b6a0       ?StopTimer@CBaseMainManage@@UAE_NXZ 1000c6a0 f   MainManage.obj
 0001:0000b6a0       ?OnUnInit@CBaseMainManageForZ@@EAE_NXZ 1000c6a0 f   MainManageForZ.obj
 0001:0000b6a0       ?CheckSQLConnect@CAFCDataBaseManage@@QAE_NXZ 1000c6a0 f   AFCDataBase.obj
 0001:0000b6a0       ?OnUnInit@CBaseMainManage@@EAE_NXZ 1000c6a0 f   MainManage.obj
 0001:0000b6a0       ?StopTimer@CBaseMainManageForWeb@@UAE_NXZ 1000c6a0 f   MainManageForWeb.obj
 0001:0000b6a0       ?OnStop@CBaseMainManageForWeb@@EAE_NXZ 1000c6a0 f   MainManageForWeb.obj
 0001:0000b6c0       ?SQLConnect@CAFCDataBaseManage@@QAEXXZ 1000c6c0 f   AFCDataBase.obj
 0001:0000bbf0       ??0CDataBaseHandle@@QAE@XZ 1000cbf0 f   AFCDataBase.obj
 0001:0000bc40       ??0IDataBaseHandleService@@QAE@XZ 1000cc40 f i AFCDataBase.obj
 0001:0000bc60       ??1CDataBaseHandle@@UAE@XZ 1000cc60 f   AFCDataBase.obj
 0001:0000bc80       ?SetParameter@CDataBaseHandle@@UAE_NPAUIDataBaseResultService@@PAVCAFCDataBaseManage@@PAUManageInfoStruct@@PAUKernelInfoStruct@@@Z 1000cc80 f   AFCDataBase.obj
 0001:0000bcc0       ?Init@CAFCDataBaseManage@@QAE_NPAUManageInfoStruct@@PAUKernelInfoStruct@@PAUIDataBaseHandleService@@PAUIDataBaseResultService@@@Z 1000ccc0 f   AFCDataBase.obj
 0001:0000bdb0       ?sqlSPSetNameEx@CDataBaseHandle@@QAE_NPBD_N@Z 1000cdb0 f   AFCDataBase.obj
 0001:0000be40       ?closeRecord@CDataBaseHandle@@QAEXXZ 1000ce40 f   AFCDataBase.obj
 0001:0000be90       ?adoBOF@CDataBaseHandle@@QAE_NXZ 1000ce90 f   AFCDataBase.obj
 0001:0000bee0       ?adoEndOfFile@CDataBaseHandle@@QAE_NXZ 1000cee0 f   AFCDataBase.obj
 0001:0000bf30       ?moveFirst@CDataBaseHandle@@QAE_NXZ 1000cf30 f   AFCDataBase.obj
 0001:0000bf80       ?moveNext@CDataBaseHandle@@QAE_NXZ 1000cf80 f   AFCDataBase.obj
 0001:0000bfd0       ?moveLast@CDataBaseHandle@@QAE_NXZ 1000cfd0 f   AFCDataBase.obj
 0001:0000c020       ?getRecordCount@CDataBaseHandle@@QAEJXZ 1000d020 f   AFCDataBase.obj
 0001:0000c070       ?getFieldCount@CDataBaseHandle@@QAEJXZ 1000d070 f   AFCDataBase.obj
 0001:0000c0c0       ?execSQL@CDataBaseHandle@@QAEHPBD_N@Z 1000d0c0 f   AFCDataBase.obj
 0001:0000c120       ?execStoredProc@CDataBaseHandle@@QAEHXZ 1000d120 f   AFCDataBase.obj
 0001:0000c200       ?getReturnValue@CDataBaseHandle@@QAEJXZ 1000d200 f   AFCDataBase.obj
 0001:0000c250       ?addInputParameter@CDataBaseHandle@@QAEHPBD_N@Z 1000d250 f   AFCDataBase.obj
 0001:0000c2b0       ?addInputParameter@CDataBaseHandle@@QAEHPBDD@Z 1000d2b0 f   AFCDataBase.obj
 0001:0000c310       ?addInputParameter@CDataBaseHandle@@QAEHPBDE@Z 1000d310 f   AFCDataBase.obj
 0001:0000c370       ?addInputParameter@CDataBaseHandle@@QAEHPBDF@Z 1000d370 f   AFCDataBase.obj
 0001:0000c3d0       ?addInputParameter@CDataBaseHandle@@QAEHPBDG@Z 1000d3d0 f   AFCDataBase.obj
 0001:0000c430       ?addInputParameter@CDataBaseHandle@@QAEHPBDH@Z 1000d430 f   AFCDataBase.obj
 0001:0000c490       ?addInputParameter@CDataBaseHandle@@QAEHPBDI@Z 1000d490 f   AFCDataBase.obj
 0001:0000c4f0       ?addInputParameter@CDataBaseHandle@@QAEHPBD_J@Z 1000d4f0 f   AFCDataBase.obj
 0001:0000c550       ?addInputParameter@CDataBaseHandle@@QAEHPBD_K@Z 1000d550 f   AFCDataBase.obj
 0001:0000c5b0       ?addInputParameter@CDataBaseHandle@@QAEHPBDM@Z 1000d5b0 f   AFCDataBase.obj
 0001:0000c610       ?addInputParameter@CDataBaseHandle@@QAEHPBDN@Z 1000d610 f   AFCDataBase.obj
 0001:0000c670       ?addInputParameter@CDataBaseHandle@@QAEHPBD0I@Z 1000d670 f   AFCDataBase.obj
 0001:0000c6d0       ?addInputParameter@CDataBaseHandle@@QAEHPBDPAEI@Z 1000d6d0 f   AFCDataBase.obj
 0001:0000c730       ?getValue@CDataBaseHandle@@QAEHPBDPA_N@Z 1000d730 f   AFCDataBase.obj
 0001:0000c790       ?getValue@CDataBaseHandle@@QAEHPBDPAD@Z 1000d790 f   AFCDataBase.obj
 0001:0000c7f0       ?getValue@CDataBaseHandle@@QAEHPBDPAE@Z 1000d7f0 f   AFCDataBase.obj
 0001:0000c850       ?getValue@CDataBaseHandle@@QAEHPBDPAF@Z 1000d850 f   AFCDataBase.obj
 0001:0000c8b0       ?getValue@CDataBaseHandle@@QAEHPBDPAG@Z 1000d8b0 f   AFCDataBase.obj
 0001:0000c910       ?getValue@CDataBaseHandle@@QAEHPBDPAH@Z 1000d910 f   AFCDataBase.obj
 0001:0000c970       ?getValue@CDataBaseHandle@@QAEHPBDPAI@Z 1000d970 f   AFCDataBase.obj
 0001:0000c9d0       ?getValue@CDataBaseHandle@@QAEHPBDPAJ@Z 1000d9d0 f   AFCDataBase.obj
 0001:0000ca30       ?getValue@CDataBaseHandle@@QAEHPBDPAK@Z 1000da30 f   AFCDataBase.obj
 0001:0000ca90       ?getValue@CDataBaseHandle@@QAEHPBDPA_J@Z 1000da90 f   AFCDataBase.obj
 0001:0000caf0       ?getValue@CDataBaseHandle@@QAEHPBDPA_K@Z 1000daf0 f   AFCDataBase.obj
 0001:0000cb50       ?getValue@CDataBaseHandle@@QAEHPBDPAM@Z 1000db50 f   AFCDataBase.obj
 0001:0000cbb0       ?getValue@CDataBaseHandle@@QAEHPBDPAN@Z 1000dbb0 f   AFCDataBase.obj
 0001:0000cc10       ?getValue@CDataBaseHandle@@QAEHPBDPAVCOleDateTime@ATL@@@Z 1000dc10 f   AFCDataBase.obj
 0001:0000cc70       ?getValue@CDataBaseHandle@@QAEHPBDPAU_GUID@@@Z 1000dc70 f   AFCDataBase.obj
 0001:0000ccd0       ?getValue@CDataBaseHandle@@QAEHPBDPADI@Z 1000dcd0 f   AFCDataBase.obj
 0001:0000cd40       ?getValue@CDataBaseHandle@@QAEHPBDPAEI@Z 1000dd40 f   AFCDataBase.obj
 0001:0000cdb0       ??HATL@@YA?AV?$CStringT@DV?$StrTraitMFC_DLL@DV?$ChTraitsCRT@D@ATL@@@@@0@ABV10@0@Z 1000ddb0 f i AFCDataBase.obj
 0001:0000ce70       ?CreateInstance@?$_com_ptr_t@V?$_com_IIID@U_Connection@ADODB@@$1?_GUID_00001550_0000_0010_8000_00aa006d2ea4@@3U__s_GUID@@B@@@@QAEJABU_GUID@@PAUIUnknown@@K@Z 1000de70 f i AFCDataBase.obj
 0001:0000cf30       ??1?$_com_ptr_t@V?$_com_IIID@U_Connection@ADODB@@$1?_GUID_00001550_0000_0010_8000_00aa006d2ea4@@3U__s_GUID@@B@@@@QAE@XZ 1000df30 f i AFCDataBase.obj
 0001:0000cf30       ??1?$_com_ptr_t@V?$_com_IIID@U_Recordset@ADODB@@$1?_GUID_00001556_0000_0010_8000_00aa006d2ea4@@3U__s_GUID@@B@@@@QAE@XZ 1000df30 f i AFCDataBase.obj
 0001:0000cf50       ?CreateInstance@?$_com_ptr_t@V?$_com_IIID@U_Recordset@ADODB@@$1?_GUID_00001556_0000_0010_8000_00aa006d2ea4@@3U__s_GUID@@B@@@@QAEJABU_GUID@@PAUIUnknown@@K@Z 1000df50 f i AFCDataBase.obj
 0001:0000d010       ?GetIID@?$_com_ptr_t@V?$_com_IIID@U_Connection@ADODB@@$1?_GUID_00001550_0000_0010_8000_00aa006d2ea4@@3U__s_GUID@@B@@@@SAABU_GUID@@XZ 1000e010 f i AFCDataBase.obj
 0001:0000d030       ?_Release@?$_com_ptr_t@V?$_com_IIID@U_Recordset@ADODB@@$1?_GUID_00001556_0000_0010_8000_00aa006d2ea4@@3U__s_GUID@@B@@@@AAEXXZ 1000e030 f i AFCDataBase.obj
 0001:0000d030       ?_Release@?$_com_ptr_t@V?$_com_IIID@U_Connection@ADODB@@$1?_GUID_00001550_0000_0010_8000_00aa006d2ea4@@3U__s_GUID@@B@@@@AAEXXZ 1000e030 f i AFCDataBase.obj
 0001:0000d060       ?GetIID@?$_com_ptr_t@V?$_com_IIID@U_Recordset@ADODB@@$1?_GUID_00001556_0000_0010_8000_00aa006d2ea4@@3U__s_GUID@@B@@@@SAABU_GUID@@XZ 1000e060 f i AFCDataBase.obj
 0001:0000d080       ?GetIID@?$_com_IIID@U_Connection@ADODB@@$1?_GUID_00001550_0000_0010_8000_00aa006d2ea4@@3U__s_GUID@@B@@SAABU_GUID@@XZ 1000e080 f i AFCDataBase.obj
 0001:0000d0a0       ?GetIID@?$_com_IIID@U_Recordset@ADODB@@$1?_GUID_00001556_0000_0010_8000_00aa006d2ea4@@3U__s_GUID@@B@@SAABU_GUID@@XZ 1000e0a0 f i AFCDataBase.obj
 0001:0000d0c0       ??$strcpy_s@$0EA@@@YAHAAY0EA@DPBD@Z 1000e0c0 f i AFCDataBase.obj
 0001:0000d0f0       ?GetTotalSeconds@COleDateTimeSpan@ATL@@QBENXZ 1000e0f0 f i AFCDataBase.obj
 0001:0000d150       ?GetTickCount@COleDateTime@ATL@@SG?AV12@XZ 1000e150 f i AFCDataBase.obj
 0001:0000d180       ??0COleDateTime@ATL@@QAE@_J@Z 1000e180 f i AFCDataBase.obj
 0001:0000d1c0       ??4COleDateTime@ATL@@QAEAAV01@AB_J@Z 1000e1c0 f i AFCDataBase.obj
 0001:0000d240       ??0CTime@ATL@@QAE@_J@Z     1000e240 f i AFCDataBase.obj
 0001:0000d270       ?GetAsSystemTime@CTime@ATL@@QBE_NAAU_SYSTEMTIME@@@Z 1000e270 f i AFCDataBase.obj
 0001:0000d330       ?GetLocalTm@CTime@ATL@@QBEPAUtm@@PAU3@@Z 1000e330 f i AFCDataBase.obj
 0001:0000d3c0       ?AtlThrowImpl@ATL@@YGXJ@Z  1000e3c0 f i AFCDataBase.obj
 0001:0000d3f0       ?ConvertSystemTimeToVariantTime@COleDateTime@ATL@@IAEHABU_SYSTEMTIME@@@Z 1000e3f0 f i AFCDataBase.obj
 0001:0000d420       ?AtlConvertSystemTimeToVariantTime@ATL@@YAHABU_SYSTEMTIME@@PAN@Z 1000e420 f i AFCDataBase.obj
 0001:0000d540       ??GCOleDateTime@ATL@@QBE?AVCOleDateTimeSpan@1@ABV01@@Z 1000e540 f i AFCDataBase.obj
 0001:0000d590       ??0COleDateTimeSpan@ATL@@QAE@N@Z 1000e590 f i AFCDataBase.obj
 0001:0000d5d0       ?CheckRange@COleDateTimeSpan@ATL@@QAEXXZ 1000e5d0 f i AFCDataBase.obj
 0001:0000d620       ?DoubleFromDate@COleDateTime@ATL@@KGNN@Z 1000e620 f i AFCDataBase.obj
 0001:0000d670       ??0DB_CREATE_PARAM@@QAE@XZ 1000e670 f i AFCDataBase.obj
 0001:0000d6f0       ??0CAFCException@@QAE@PADI_N@Z 1000e6f0 f i AFCException.obj
 0001:0000d7a0       ??1CAFCException@@UAE@XZ   1000e7a0 f   AFCException.obj
 0001:0000d7c0       ?GetErrorCode@CAFCException@@UBEIXZ 1000e7c0 f   AFCException.obj
 0001:0000d7f0       ?Delete@CAFCException@@UAE_NXZ 1000e7f0 f   AFCException.obj
 0001:0000d850       ?GetErrorMessage@CAFCException@@UBEPBDPADH@Z 1000e850 f   AFCException.obj
 0001:0000d8e0       ?ShowErrorMessage@CAFCException@@SA_N_N@Z 1000e8e0 f   AFCException.obj
 0001:0000d900       ??0CSignedLockObject@@QAE@PAVCAFCSignedLock@@_N@Z 1000e900 f   AFCLock.obj
 0001:0000d940       ??1CSignedLockObject@@QAE@XZ 1000e940 f   AFCLock.obj
 0001:0000d970       ?Lock@CSignedLockObject@@QAEXXZ 1000e970 f i AFCLock.obj
 0001:0000d9b0       ?UnLock@CSignedLockObject@@QAEXXZ 1000e9b0 f i AFCLock.obj
 0001:0000d9f0       ??0CAFCRWLock@@QAE@XZ      1000e9f0 f   AFCLock.obj
 0001:0000da60       ??1CAFCRWLock@@QAE@XZ      1000ea60 f   AFCLock.obj
 0001:0000dab0       ?LockWrite@CAFCRWLock@@QAE_NK@Z 1000eab0 f   AFCLock.obj
 0001:0000db30       ?LockRead@CAFCRWLock@@QAE_NK@Z 1000eb30 f   AFCLock.obj
 0001:0000dba0       ?UnLockWrite@CAFCRWLock@@QAE_NXZ 1000eba0 f   AFCLock.obj
 0001:0000dbd0       ?UnLockRead@CAFCRWLock@@QAE_NXZ 1000ebd0 f   AFCLock.obj
 0001:0000dc10       ??_ECTCPClientSocket@@UAEPAXI@Z 1000ec10 f i AFCSocket.obj
 0001:0000dc90       ??_ECTCPSocketManage@@UAEPAXI@Z 1000ec90 f i AFCSocket.obj
 0001:0000dd10       ??_ECTCPSocketManageForZ@@UAEPAXI@Z 1000ed10 f i AFCSocket.obj
 0001:0000dd90       ??0MD5_CTX@@QAE@ABV0@@Z    1000ed90 f i AFCSocket.obj
 0001:0000de10       ??4MD5_CTX@@QAEAAV0@ABV0@@Z 1000ee10 f i AFCSocket.obj
 0001:0000dee0       ??_EMD5_CTX@@UAEPAXI@Z     1000eee0 f i AFCSocket.obj
 0001:0000df60       ?GeneratorSecretKey@@YAXXZ 1000ef60 f   AFCSocket.obj
 0001:0000e0a0       ?TCPSocketNew@CTCPSocketManageForZ@@AAEPAVCTCPSocketForZ@@XZ 1000f0a0 f i AFCSocket.obj
 0001:0000e0a0       ?TCPSocketNew@CTCPSocketManageForWeb@@AAEPAVCTCPSocketForWeb@@XZ 1000f0a0 f i AFCWebSocket.obj
 0001:0000e0a0       ?TCPSocketNew@CTCPSocketManage@@AAEPAVCTCPSocket@@XZ 1000f0a0 f i AFCSocket.obj
 0001:0000e130       ?TCPSocketDelete@CTCPSocketManage@@AAE_NPAVCTCPSocket@@@Z 1000f130 f i AFCSocket.obj
 0001:0000e1d0       ?ThreadAccept@CTCPSocketManage@@CGIPAX@Z 1000f1d0 f i AFCSocket.obj
 0001:0000e480       ??0CUDPSocket@@QAE@XZ      1000f480 f   AFCSocket.obj
 0001:0000e4b0       ??1CUDPSocket@@UAE@XZ      1000f4b0 f   AFCSocket.obj
 0001:0000e4f0       ?SendData@CUDPSocket@@QAEHPAXIQAD@Z 1000f4f0 f i AFCSocket.obj
 0001:0000e510       ??0CListenSocket@@QAE@XZ   1000f510 f   AFCSocket.obj
 0001:0000e540       ??1CListenSocket@@UAE@XZ   1000f540 f   AFCSocket.obj
 0001:0000e570       ?Create@CListenSocket@@QAE_NXZ 1000f570 f i AFCSocket.obj
 0001:0000e5b0       ?Bind@CListenSocket@@QAE_NI@Z 1000f5b0 f i AFCSocket.obj
 0001:0000e630       ?Listen@CListenSocket@@QAE_NXZ 1000f630 f i AFCSocket.obj
 0001:0000e660       ?CloseSocket@CListenSocket@@QAE_NXZ 1000f660 f i AFCSocket.obj
 0001:0000e690       ?GetMessageMap@CTCPClientSocket@@MBEPBUAFX_MSGMAP@@XZ 1000f690 f   AFCSocket.obj
 0001:0000e6b0       ?GetThisMessageMap@CTCPClientSocket@@KGPBUAFX_MSGMAP@@XZ 1000f6b0 f   AFCSocket.obj
 0001:0000e6d0       ??0CTCPClientSocket@@QAE@PAUIClientSocketService@@@Z 1000f6d0 f   AFCSocket.obj
 0001:0000e770       ??1CTCPClientSocket@@UAE@XZ 1000f770 f   AFCSocket.obj
 0001:0000e7e0       ?InitSocketWnd@CTCPClientSocket@@QAE_NXZ 1000f7e0 f i AFCSocket.obj
 0001:0000e8b0       ?CloseSocketWnd@CTCPClientSocket@@AAE_NXZ 1000f8b0 f i AFCSocket.obj
 0001:0000e8e0       ?OnSocketNotifyMesage@CTCPClientSocket@@AAEJIJ@Z 1000f8e0 f i AFCSocket.obj
 0001:0000ed40       ?Connect@CTCPClientSocket@@QAE_NPBDI@Z 1000fd40 f i AFCSocket.obj
 0001:0000eda0       ?Connect@CTCPClientSocket@@QAE_NJI@Z 1000fda0 f i AFCSocket.obj
 0001:0000ee80       ?CloseSocket@CTCPClientSocket@@QAE_N_N@Z 1000fe80 f i AFCSocket.obj
 0001:0000ef30       ?SendData@CTCPClientSocket@@QAEHPAXIEEE@Z 1000ff30 f i AFCSocket.obj
 0001:0000f220       ?SendData@CTCPClientSocket@@QAEHEEE@Z 10010220 f i AFCSocket.obj
 0001:0000f250       ?SetCheckCode@CTCPClientSocket@@QAEX_JH@Z 10010250 f   AFCSocket.obj
 0001:0000f290       ??0CTCPSocket@@QAE@XZ      10010290 f   AFCSocket.obj
 0001:0000f3f0       ??1CTCPSocket@@UAE@XZ      100103f0 f   AFCSocket.obj
 0001:0000f470       ?Attach@CTCPSocket@@QAE_NIAAUsockaddr_in@@K@Z 10010470 f i AFCSocket.obj
 0001:0000f5c0       ?CloseSocket@CTCPSocket@@IAE_NXZ 100105c0 f i AFCSocket.obj
 0001:0000f710       ?SendData@CTCPSocket@@QAEHEEEK@Z 10010710 f i AFCSocket.obj
 0001:0000f870       ?SendData@CTCPSocket@@QAEHPAXIEEEK@Z 10010870 f i AFCSocket.obj
 0001:0000fb90       ?SendData@CTCPSocket@@QAEHPBDI@Z 10010b90 f i AFCSocket.obj
 0001:0000fcb0       ?CheckSendData@CTCPSocket@@IAE_NXZ 10010cb0 f i AFCSocket.obj
 0001:0000fdf0       ?OnSendCompleted@CTCPSocket@@IAE_NKK@Z 10010df0 f i AFCSocket.obj
 0001:0000ff10       ?OnRecvCompleted@CTCPSocket@@IAE_NK@Z 10010f10 f i AFCSocket.obj
 0001:00010460       ?RecvData@CTCPSocket@@IAE_NXZ 10011460 f i AFCSocket.obj
 0001:00010590       ?IsConnectID@CTCPSocket@@QAE_NK@Z 10011590 f i AFCSocket.obj
 0001:000105d0       ??0CTCPSocketManage@@QAE@XZ 100115d0 f   AFCSocket.obj
 0001:00010710       ??1CTCPSocketManage@@UAE@XZ 10011710 f   AFCSocket.obj
 0001:000107d0       ?Init@CTCPSocketManage@@UAE_NIIEEHPAUIServerSocketService@@@Z 100117d0 f   AFCSocket.obj
 0001:00010ae0       ?UnInit@CTCPSocketManage@@UAE_NXZ 10011ae0 f   AFCSocket.obj
 0001:00010bc0       ?Start@CTCPSocketManage@@UAE_NII@Z 10011bc0 f   AFCSocket.obj
 0001:00011430       ?Stop@CTCPSocketManage@@UAE_NXZ 10012430 f   AFCSocket.obj
 0001:00011680       ?SendData@CTCPSocketManage@@QAEHIPBDI@Z 10012680 f i AFCSocket.obj
 0001:000116f0       ?SendData@CTCPSocketManage@@QAEHIEEEK@Z 100126f0 f i AFCSocket.obj
 0001:00011750       ?SendData@CTCPSocketManage@@QAEHIPAXIEEEK@Z 10012750 f i AFCSocket.obj
 0001:000117c0       ?SendDataBatch@CTCPSocketManage@@QAEHPAXIEEE@Z 100127c0 f i AFCSocket.obj
 0001:00011950       ?CloseSocket@CTCPSocketManage@@QAE_NIK@Z 10012950 f i AFCSocket.obj
 0001:000119a0       ?CloseSocket@CTCPSocketManage@@QAE_NPAVCTCPSocket@@K@Z 100129a0 f i AFCSocket.obj
 0001:00011b10       ?IsConnectID@CTCPSocketManage@@QAE_NIK@Z 10012b10 f i AFCSocket.obj
 0001:00011b60       ?ThreadRSSocket@CTCPSocketManage@@CGIPAX@Z 10012b60 f i AFCSocket.obj
 0001:00011ce0       ?ThreadBatchSend@CTCPSocketManage@@CGIPAX@Z 10012ce0 f i AFCSocket.obj
 0001:00011ed0       ?ThreadKeepActive@CTCPSocketManage@@CGIPAX@Z 10012ed0 f i AFCSocket.obj
 0001:00012040       ?GetHandleID@CTCPSocketManage@@CAKXZ 10013040 f i AFCSocket.obj
 0001:00012080       ?GetServerInfo@CTCPSocketManage@@QAE?AV?$basic_string@DU?$char_traits@D@std@@V?$allocator@D@2@@std@@I@Z 10013080 f   AFCSocket.obj
 0001:000121a0       ?TCPSocketDelete@CTCPSocketManageForZ@@AAE_NPAVCTCPSocketForZ@@@Z 100131a0 f i AFCSocket.obj
 0001:00012240       ?ThreadAccept@CTCPSocketManageForZ@@CGIPAX@Z 10013240 f i AFCSocket.obj
 0001:000124d0       ??0CTCPSocketForZ@@QAE@XZ  100134d0 f   AFCSocket.obj
 0001:00012630       ??1CTCPSocketForZ@@UAE@XZ  10013630 f   AFCSocket.obj
 0001:000126b0       ?Attach@CTCPSocketForZ@@QAE_NIAAUsockaddr_in@@K@Z 100136b0 f i AFCSocket.obj
 0001:00012800       ?CloseSocket@CTCPSocketForZ@@IAE_NXZ 10013800 f i AFCSocket.obj
 0001:00012950       ?SendData@CTCPSocketForZ@@QAEHEEEK@Z 10013950 f i AFCSocket.obj
 0001:00012ab0       ?SendData@CTCPSocketForZ@@QAEHPAXIEEEK@Z 10013ab0 f i AFCSocket.obj
 0001:00012dd0       ?CheckSendData@CTCPSocketForZ@@IAE_NXZ 10013dd0 f i AFCSocket.obj
 0001:00012f20       ?OnSendCompleted@CTCPSocketForZ@@IAE_NKK@Z 10013f20 f i AFCSocket.obj
 0001:00013040       ?OnRecvCompleted@CTCPSocketForZ@@IAE_NK@Z 10014040 f i AFCSocket.obj
 0001:00013520       ?RecvData@CTCPSocketForZ@@IAE_NXZ 10014520 f i AFCSocket.obj
 0001:00013650       ?IsConnectID@CTCPSocketForZ@@QAE_NK@Z 10014650 f i AFCSocket.obj
 0001:00013690       ??0CTCPSocketManageForZ@@QAE@XZ 10014690 f   AFCSocket.obj
 0001:00013810       ??1CTCPSocketManageForZ@@UAE@XZ 10014810 f   AFCSocket.obj
 0001:000138f0       ??1?$map@HV?$vector@HV?$allocator@H@std@@@std@@U?$less@H@2@V?$allocator@U?$pair@$$CBHV?$vector@HV?$allocator@H@std@@@std@@@std@@@2@@std@@QAE@XZ 100148f0 f i AFCSocket.obj
 0001:00013910       ?Init@CTCPSocketManageForZ@@UAE_NIIEEHPAUIServerSocketServiceForZ@@@Z 10014910 f   AFCSocket.obj
 0001:00013c20       ?UnInit@CTCPSocketManageForZ@@UAE_NXZ 10014c20 f   AFCSocket.obj
 0001:00013d20       ?Start@CTCPSocketManageForZ@@UAE_NII@Z 10014d20 f   AFCSocket.obj
 0001:00014700       ?Stop@CTCPSocketManageForZ@@UAE_NXZ 10015700 f   AFCSocket.obj
 0001:000149b0       ?SendData@CTCPSocketManageForZ@@QAEHIEEEK@Z 100159b0 f i AFCSocket.obj
 0001:00014a10       ?SendData@CTCPSocketManageForZ@@QAEHIPAXIEEEK@Z 10015a10 f i AFCSocket.obj
 0001:00014a80       ?SendData@CTCPSocketManageForZ@@QAEHPAVCTCPSocketForZ@@PAXIEEEK@Z 10015a80 f i AFCSocket.obj
 0001:00014ad0       ?SendDataUnion@CTCPSocketManageForWeb@@QAEHIPAXIEEE@Z 10015ad0 f i AFCWebSocket.obj
 0001:00014ad0       ?SendDataUnion@CTCPSocketManageForZ@@QAEHIPAXIEEE@Z 10015ad0 f i AFCSocket.obj
 0001:00014c80       ?CloseSocket@CTCPSocketManageForZ@@QAE_NIK@Z 10015c80 f i AFCSocket.obj
 0001:00014cd0       ?CloseSocket@CTCPSocketManageForZ@@QAE_NPAVCTCPSocketForZ@@K@Z 10015cd0 f i AFCSocket.obj
 0001:00014e40       ?IsConnectID@CTCPSocketManageForZ@@QAE_NIK@Z 10015e40 f i AFCSocket.obj
 0001:00014e90       ?OnNetMessage@CTCPSocketManageForZ@@UAE_NPAVCTCPSocketForZ@@PAUNetMessageHead@@PAXIIK@Z 10015e90 f   AFCSocket.obj
 0001:00014e90       ?OnNetMessage@CTCPSocketManage@@UAE_NPAVCTCPSocket@@PAUNetMessageHead@@PAXIIK@Z 10015e90 f   AFCSocket.obj
 0001:00014e90       ?OnNetMessage@CTCPSocketManageForWeb@@UAE_NPAVCTCPSocketForWeb@@PAUNetMessageHead@@PAXIIK@Z 10015e90 f   AFCWebSocket.obj
 0001:00014f10       ??1?$pair@HV?$vector@HV?$allocator@H@std@@@std@@@std@@QAE@XZ 10015f10 f i AFCSocket.obj
 0001:00014f10       ??1?$pair@$$CBHV?$vector@HV?$allocator@H@std@@@std@@@std@@QAE@XZ 10015f10 f i AFCSocket.obj
 0001:00014f30       ??1?$_Pair_base@$$CBHV?$vector@HV?$allocator@H@std@@@std@@@std@@QAE@XZ 10015f30 f i AFCSocket.obj
 0001:00014f30       ??1?$_Pair_base@HV?$vector@HV?$allocator@H@std@@@std@@@std@@QAE@XZ 10015f30 f i AFCSocket.obj
 0001:00014f50       ?UnionRemoveUser@CTCPSocketManageForZ@@QAEHII@Z 10015f50 f i AFCSocket.obj
 0001:00014f50       ?UnionRemoveUser@CTCPSocketManageForWeb@@QAEHII@Z 10015f50 f i AFCWebSocket.obj
 0001:00015040       ?UnionRemoveAll@CTCPSocketManageForWeb@@QAEHI@Z 10016040 f i AFCWebSocket.obj
 0001:00015040       ?UnionRemoveAll@CTCPSocketManageForZ@@QAEHI@Z 10016040 f i AFCSocket.obj
 0001:000150c0       ?UnionRemovUserAll@CTCPSocketManageForZ@@QAEHI@Z 100160c0 f i AFCSocket.obj
 0001:000150c0       ?UnionRemovUserAll@CTCPSocketManageForWeb@@QAEHI@Z 100160c0 f i AFCWebSocket.obj
 0001:000151d0       ?ThreadRSSocket@CTCPSocketManageForZ@@CGIPAX@Z 100161d0 f i AFCSocket.obj
 0001:00015350       ?ThreadBatchSend@CTCPSocketManageForZ@@CGIPAX@Z 10016350 f i AFCSocket.obj
 0001:00015540       ?ThreadUnionSend@CTCPSocketManageForZ@@CGIPAX@Z 10016540 f i AFCSocket.obj
 0001:00015830       ?ThreadKeepActive@CTCPSocketManageForZ@@CGIPAX@Z 10016830 f i AFCSocket.obj
 0001:000159a0       ?GetHandleID@CTCPSocketManageForZ@@CAKXZ 100169a0 f i AFCSocket.obj
 0001:000159e0       ?GetLoaclIPAddr@CTCPSocketManageForWeb@@SA_NQADI@Z 100169e0 f i AFCWebSocket.obj
 0001:000159e0       ?GetLoaclIPAddr@CTCPSocketManageForZ@@SA_NQADI@Z 100169e0 f i AFCSocket.obj
 0001:000159e0       ?GetLoaclIPAddr@CTCPSocketManage@@SA_NQADI@Z 100169e0 f i AFCSocket.obj
 0001:00015aa0       ??4?$basic_string@DU?$char_traits@D@std@@V?$allocator@D@2@@std@@QAEAAV01@PBD@Z 10016aa0 f i AFCSocket.obj
 0001:00015ad0       ?GetArrayItem@?$CAFCPtrArray@VCTCPSocket@@@@QAEPAVCTCPSocket@@I@Z 10016ad0 f i AFCSocket.obj
 0001:00015b00       ?GetArrayItem@?$CAFCPtrArray@VCTCPSocketForZ@@@@QAEPAVCTCPSocketForZ@@I@Z 10016b00 f i AFCSocket.obj
 0001:00015b30       ??0?$map@HV?$vector@HV?$allocator@H@std@@@std@@U?$less@H@2@V?$allocator@U?$pair@$$CBHV?$vector@HV?$allocator@H@std@@@std@@@std@@@2@@std@@QAE@XZ 10016b30 f i AFCSocket.obj
 0001:00015b60       ??1?$_Tree@V?$_Tmap_traits@HV?$vector@HV?$allocator@H@std@@@std@@U?$less@H@2@V?$allocator@U?$pair@$$CBHV?$vector@HV?$allocator@H@std@@@std@@@std@@@2@$0A@@std@@@std@@QAE@XZ 10016b60 f i AFCSocket.obj
 0001:00015bc0       ?erase@?$_Tree@V?$_Tmap_traits@HV?$vector@HV?$allocator@H@std@@@std@@U?$less@H@2@V?$allocator@U?$pair@$$CBHV?$vector@HV?$allocator@H@std@@@std@@@std@@@2@$0A@@std@@@std@@QAE?AV?$_Tree_iterator@V?$_Tree_val@V?$_Tmap_traits@HV?$vector@HV?$allocator@H@std@@@std@@U?$less@H@2@V?$allocator@U?$pair@$$CBHV?$vector@HV?$allocator@H@std@@@std@@@std@@@2@$0A@@std@@@std@@@2@V?$_Tree_const_iterator@V?$_Tree_val@V?$_Tmap_traits@HV?$vector@HV?$allocator@H@std@@@std@@U?$less@H@2@V?$allocator@U?$pair@$$CBHV?$vector@HV?$allocator@H@std@@@std@@@std@@@2@$0A@@std@@@std@@@2@@Z 10016bc0 f i AFCSocket.obj
 0001:00016350       ?find@?$_Tree@V?$_Tmap_traits@HV?$vector@HV?$allocator@H@std@@@std@@U?$less@H@2@V?$allocator@U?$pair@$$CBHV?$vector@HV?$allocator@H@std@@@std@@@std@@@2@$0A@@std@@@std@@QAE?AV?$_Tree_iterator@V?$_Tree_val@V?$_Tmap_traits@HV?$vector@HV?$allocator@H@std@@@std@@U?$less@H@2@V?$allocator@U?$pair@$$CBHV?$vector@HV?$allocator@H@std@@@std@@@std@@@2@$0A@@std@@@std@@@2@ABH@Z 10017350 f i AFCSocket.obj
 0001:000163e0       ??0?$_List_iterator@V?$_List_val@PAUFILEINFO@@V?$allocator@PAUFILEINFO@@@std@@@std@@@std@@QAE@XZ 100173e0 f i HNSmtp.obj
 0001:000163e0       ??0?$_Tree_iterator@V?$_Tree_val@V?$_Tmap_traits@HV?$vector@HV?$allocator@H@std@@@std@@U?$less@H@2@V?$allocator@U?$pair@$$CBHV?$vector@HV?$allocator@H@std@@@std@@@std@@@2@$0A@@std@@@std@@@std@@QAE@XZ 100173e0 f i AFCSocket.obj
 0001:00016400       ??E?$_Tree_iterator@V?$_Tree_val@V?$_Tmap_traits@HV?$vector@HV?$allocator@H@std@@@std@@U?$less@H@2@V?$allocator@U?$pair@$$CBHV?$vector@HV?$allocator@H@std@@@std@@@std@@@2@$0A@@std@@@std@@@std@@QAE?AV01@H@Z 10017400 f i AFCSocket.obj
 0001:00016430       ??0?$vector@DV?$allocator@D@std@@@std@@QAE@XZ 10017430 f i AFCWebSocket.obj
 0001:00016430       ??0?$vector@HV?$allocator@H@std@@@std@@QAE@XZ 10017430 f i AFCSocket.obj
 0001:00016460       ??1?$vector@HV?$allocator@H@std@@@std@@QAE@XZ 10017460 f i AFCSocket.obj
 0001:000164c0       ?end@?$vector@HV?$allocator@H@std@@@std@@QAE?AV?$_Vector_iterator@V?$_Vector_val@HV?$allocator@H@std@@@std@@@2@XZ 100174c0 f i AFCSocket.obj
 0001:000164f0       ?push_back@?$vector@HV?$allocator@H@std@@@std@@QAEXABH@Z 100174f0 f i AFCSocket.obj
 0001:000165f0       ?erase@?$vector@HV?$allocator@H@std@@@std@@QAE?AV?$_Vector_iterator@V?$_Vector_val@HV?$allocator@H@std@@@std@@@2@V?$_Vector_const_iterator@V?$_Vector_val@HV?$allocator@H@std@@@std@@@2@@Z 100175f0 f i AFCSocket.obj
 0001:00016660       ??E?$_Vector_iterator@V?$_Vector_val@HV?$allocator@H@std@@@std@@@std@@QAE?AV01@H@Z 10017660 f i AFCSocket.obj
 0001:00016690       ??8?$_Vector_const_iterator@V?$_Vector_val@HV?$allocator@H@std@@@std@@@std@@QBE_NABV01@@Z 10017690 f i AFCSocket.obj
 0001:000166c0       ??9?$_Vector_const_iterator@V?$_Vector_val@HV?$allocator@H@std@@@std@@@std@@QBE_NABV01@@Z 100176c0 f i AFCSocket.obj
 0001:000166f0       ??0?$_Tree@V?$_Tmap_traits@HV?$vector@HV?$allocator@H@std@@@std@@U?$less@H@2@V?$allocator@U?$pair@$$CBHV?$vector@HV?$allocator@H@std@@@std@@@std@@@2@$0A@@std@@@std@@QAE@ABU?$less@H@1@ABV?$allocator@U?$pair@$$CBHV?$vector@HV?$allocator@H@std@@@std@@@std@@@1@@Z 100176f0 f i AFCSocket.obj
 0001:00016730       ?lower_bound@?$_Tree@V?$_Tmap_traits@HV?$vector@HV?$allocator@H@std@@@std@@U?$less@H@2@V?$allocator@U?$pair@$$CBHV?$vector@HV?$allocator@H@std@@@std@@@std@@@2@$0A@@std@@@std@@QAE?AV?$_Tree_iterator@V?$_Tree_val@V?$_Tmap_traits@HV?$vector@HV?$allocator@H@std@@@std@@U?$less@H@2@V?$allocator@U?$pair@$$CBHV?$vector@HV?$allocator@H@std@@@std@@@std@@@2@$0A@@std@@@std@@@2@ABH@Z 10017730 f i AFCSocket.obj
 0001:00016770       ?_Lrotate@?$_Tree@V?$_Tmap_traits@HV?$vector@HV?$allocator@H@std@@@std@@U?$less@H@2@V?$allocator@U?$pair@$$CBHV?$vector@HV?$allocator@H@std@@@std@@@std@@@2@$0A@@std@@@std@@IAEXPAU_Node@?$_Tree_nod@V?$_Tmap_traits@HV?$vector@HV?$allocator@H@std@@@std@@U?$less@H@2@V?$allocator@U?$pair@$$CBHV?$vector@HV?$allocator@H@std@@@std@@@std@@@2@$0A@@std@@@2@@Z 10017770 f i AFCSocket.obj
 0001:000168b0       ?_Rrotate@?$_Tree@V?$_Tmap_traits@HV?$vector@HV?$allocator@H@std@@@std@@U?$less@H@2@V?$allocator@U?$pair@$$CBHV?$vector@HV?$allocator@H@std@@@std@@@std@@@2@$0A@@std@@@std@@IAEXPAU_Node@?$_Tree_nod@V?$_Tmap_traits@HV?$vector@HV?$allocator@H@std@@@std@@U?$less@H@2@V?$allocator@U?$pair@$$CBHV?$vector@HV?$allocator@H@std@@@std@@@std@@@2@$0A@@std@@@2@@Z 100178b0 f i AFCSocket.obj
 0001:000169f0       ?_Tidy@?$_Tree@V?$_Tmap_traits@HV?$vector@HV?$allocator@H@std@@@std@@U?$less@H@2@V?$allocator@U?$pair@$$CBHV?$vector@HV?$allocator@H@std@@@std@@@std@@@2@$0A@@std@@@std@@IAEXXZ 100179f0 f i AFCSocket.obj
 0001:00016a40       ?_Color@?$_Tree_val@V?$_Tmap_traits@HV?$vector@HV?$allocator@H@std@@@std@@U?$less@H@2@V?$allocator@U?$pair@$$CBHV?$vector@HV?$allocator@H@std@@@std@@@std@@@2@$0A@@std@@@std@@SAAADPAU_Node@?$_Tree_nod@V?$_Tmap_traits@HV?$vector@HV?$allocator@H@std@@@std@@U?$less@H@2@V?$allocator@U?$pair@$$CBHV?$vector@HV?$allocator@H@std@@@std@@@std@@@2@$0A@@std@@@2@@Z 10017a40 f i AFCSocket.obj
 0001:00016a60       ?_Isnil@?$_Tree_val@V?$_Tmap_traits@HV?$vector@HV?$allocator@H@std@@@std@@U?$less@H@2@V?$allocator@U?$pair@$$CBHV?$vector@HV?$allocator@H@std@@@std@@@std@@@2@$0A@@std@@@std@@SAAADPAU_Node@?$_Tree_nod@V?$_Tmap_traits@HV?$vector@HV?$allocator@H@std@@@std@@U?$less@H@2@V?$allocator@U?$pair@$$CBHV?$vector@HV?$allocator@H@std@@@std@@@std@@@2@$0A@@std@@@2@@Z 10017a60 f i AFCSocket.obj
 0001:00016a80       ?_Key@?$_Tree_val@V?$_Tmap_traits@V?$CStringT@DV?$StrTraitMFC_DLL@DV?$ChTraitsCRT@D@ATL@@@@@ATL@@PAVCBcfFileNameItem@@U?$less@V?$CStringT@DV?$StrTraitMFC_DLL@DV?$ChTraitsCRT@D@ATL@@@@@ATL@@@std@@V?$allocator@U?$pair@$$CBV?$CStringT@DV?$StrTraitMFC_DLL@DV?$ChTraitsCRT@D@ATL@@@@@ATL@@PAVCBcfFileNameItem@@@std@@@5@$0A@@std@@@std@@SAAAV?$CStringT@DV?$StrTraitMFC_DLL@DV?$ChTraitsCRT@D@ATL@@@@@ATL@@PAU_Node@?$_Tree_nod@V?$_Tmap_traits@V?$CStringT@DV?$StrTraitMFC_DLL@DV?$ChTraitsCRT@D@ATL@@@@@ATL@@PAVCBcfFileNameItem@@U?$less@V?$CStringT@DV?$StrTraitMFC_DLL@DV?$ChTraitsCRT@D@ATL@@@@@ATL@@@std@@V?$allocator@U?$pair@$$CBV?$CStringT@DV?$StrTraitMFC_DLL@DV?$ChTraitsCRT@D@ATL@@@@@ATL@@PAVCBcfFileNameItem@@@std@@@5@$0A@@std@@@2@@Z 10017a80 f i MainManage.obj
 0001:00016a80       ?_Key@?$_Tree_val@V?$_Tmap_traits@V?$basic_string@DU?$char_traits@D@std@@V?$allocator@D@2@@std@@VHNTreeNode@@U?$less@V?$basic_string@DU?$char_traits@D@std@@V?$allocator@D@2@@std@@@2@V?$allocator@U?$pair@$$CBV?$basic_string@DU?$char_traits@D@std@@V?$allocator@D@2@@std@@VHNTreeNode@@@std@@@2@$0A@@std@@@std@@SAAAV?$basic_string@DU?$char_traits@D@std@@V?$allocator@D@2@@2@PAU_Node@?$_Tree_nod@V?$_Tmap_traits@V?$basic_string@DU?$char_traits@D@std@@V?$allocator@D@2@@std@@VHNTreeNode@@U?$less@V?$basic_string@DU?$char_traits@D@std@@V?$allocator@D@2@@std@@@2@V?$allocator@U?$pair@$$CBV?$basic_string@DU?$char_traits@D@std@@V?$allocator@D@2@@std@@VHNTreeNode@@@std@@@2@$0A@@std@@@2@@Z 10017a80 f i HNTreeNode.obj
 0001:00016a80       ?_Key@?$_Tree_val@V?$_Tmap_traits@HV?$vector@HV?$allocator@H@std@@@std@@U?$less@H@2@V?$allocator@U?$pair@$$CBHV?$vector@HV?$allocator@H@std@@@std@@@std@@@2@$0A@@std@@@std@@SAAAHPAU_Node@?$_Tree_nod@V?$_Tmap_traits@HV?$vector@HV?$allocator@H@std@@@std@@U?$less@H@2@V?$allocator@U?$pair@$$CBHV?$vector@HV?$allocator@H@std@@@std@@@std@@@2@$0A@@std@@@2@@Z 10017a80 f i AFCSocket.obj
 0001:00016a80       ?_Key@?$_Tree_val@V?$_Tmap_traits@V?$CStringT@DV?$StrTraitMFC_DLL@DV?$ChTraitsCRT@D@ATL@@@@@ATL@@PAVCBcfListItem@@U?$less@V?$CStringT@DV?$StrTraitMFC_DLL@DV?$ChTraitsCRT@D@ATL@@@@@ATL@@@std@@V?$allocator@U?$pair@$$CBV?$CStringT@DV?$StrTraitMFC_DLL@DV?$ChTraitsCRT@D@ATL@@@@@ATL@@PAVCBcfListItem@@@std@@@5@$0A@@std@@@std@@SAAAV?$CStringT@DV?$StrTraitMFC_DLL@DV?$ChTraitsCRT@D@ATL@@@@@ATL@@PAU_Node@?$_Tree_nod@V?$_Tmap_traits@V?$CStringT@DV?$StrTraitMFC_DLL@DV?$ChTraitsCRT@D@ATL@@@@@ATL@@PAVCBcfListItem@@U?$less@V?$CStringT@DV?$StrTraitMFC_DLL@DV?$ChTraitsCRT@D@ATL@@@@@ATL@@@std@@V?$allocator@U?$pair@$$CBV?$CStringT@DV?$StrTraitMFC_DLL@DV?$ChTraitsCRT@D@ATL@@@@@ATL@@PAVCBcfListItem@@@std@@@5@$0A@@std@@@2@@Z 10017a80 f i MainManage.obj
 0001:00016ab0       ?_Max@?$_Tree_val@V?$_Tmap_traits@HV?$vector@HV?$allocator@H@std@@@std@@U?$less@H@2@V?$allocator@U?$pair@$$CBHV?$vector@HV?$allocator@H@std@@@std@@@std@@@2@$0A@@std@@@std@@SAPAU_Node@?$_Tree_nod@V?$_Tmap_traits@HV?$vector@HV?$allocator@H@std@@@std@@U?$less@H@2@V?$allocator@U?$pair@$$CBHV?$vector@HV?$allocator@H@std@@@std@@@std@@@2@$0A@@std@@@2@PAU342@@Z 10017ab0 f i AFCSocket.obj
 0001:00016b00       ?_Min@?$_Tree_val@V?$_Tmap_traits@HV?$vector@HV?$allocator@H@std@@@std@@U?$less@H@2@V?$allocator@U?$pair@$$CBHV?$vector@HV?$allocator@H@std@@@std@@@std@@@2@$0A@@std@@@std@@SAPAU_Node@?$_Tree_nod@V?$_Tmap_traits@HV?$vector@HV?$allocator@H@std@@@std@@U?$less@H@2@V?$allocator@U?$pair@$$CBHV?$vector@HV?$allocator@H@std@@@std@@@std@@@2@$0A@@std@@@2@PAU342@@Z 10017b00 f i AFCSocket.obj
 0001:00016b50       ??R?$less@H@std@@QBE_NABH0@Z 10017b50 f i AFCSocket.obj
 0001:00016b80       ??E?$_Tree_iterator@V?$_Tree_val@V?$_Tmap_traits@HV?$vector@HV?$allocator@H@std@@@std@@U?$less@H@2@V?$allocator@U?$pair@$$CBHV?$vector@HV?$allocator@H@std@@@std@@@std@@@2@$0A@@std@@@std@@@std@@QAEAAV01@XZ 10017b80 f i AFCSocket.obj
 0001:00016ba0       ??0?$_Tree_const_iterator@V?$_Tree_val@V?$_Tmap_traits@V?$CStringT@DV?$StrTraitMFC_DLL@DV?$ChTraitsCRT@D@ATL@@@@@ATL@@PAVCBcfFileNameItem@@U?$less@V?$CStringT@DV?$StrTraitMFC_DLL@DV?$ChTraitsCRT@D@ATL@@@@@ATL@@@std@@V?$allocator@U?$pair@$$CBV?$CStringT@DV?$StrTraitMFC_DLL@DV?$ChTraitsCRT@D@ATL@@@@@ATL@@PAVCBcfFileNameItem@@@std@@@5@$0A@@std@@@std@@@std@@QAE@XZ 10017ba0 f i MainManage.obj
 0001:00016ba0       ??0?$_List_const_iterator@V?$_List_val@PAUFILEINFO@@V?$allocator@PAUFILEINFO@@@std@@@std@@@std@@QAE@XZ 10017ba0 f i HNSmtp.obj
 0001:00016ba0       ??0?$_Tree_const_iterator@V?$_Tree_val@V?$_Tmap_traits@V?$CStringT@DV?$StrTraitMFC_DLL@DV?$ChTraitsCRT@D@ATL@@@@@ATL@@PAVCBcfListItem@@U?$less@V?$CStringT@DV?$StrTraitMFC_DLL@DV?$ChTraitsCRT@D@ATL@@@@@ATL@@@std@@V?$allocator@U?$pair@$$CBV?$CStringT@DV?$StrTraitMFC_DLL@DV?$ChTraitsCRT@D@ATL@@@@@ATL@@PAVCBcfListItem@@@std@@@5@$0A@@std@@@std@@@std@@QAE@XZ 10017ba0 f i MainManage.obj
 0001:00016ba0       ??0?$_Tree_const_iterator@V?$_Tree_val@V?$_Tmap_traits@HV?$vector@HV?$allocator@H@std@@@std@@U?$less@H@2@V?$allocator@U?$pair@$$CBHV?$vector@HV?$allocator@H@std@@@std@@@std@@@2@$0A@@std@@@std@@@std@@QAE@XZ 10017ba0 f i AFCSocket.obj
 0001:00016bc0       ??E?$_Tree_const_iterator@V?$_Tree_val@V?$_Tmap_traits@HV?$vector@HV?$allocator@H@std@@@std@@U?$less@H@2@V?$allocator@U?$pair@$$CBHV?$vector@HV?$allocator@H@std@@@std@@@std@@@2@$0A@@std@@@std@@@std@@QAEAAV01@XZ 10017bc0 f i AFCSocket.obj
 0001:00016be0       ??8?$_List_const_iterator@V?$_List_val@PAUFILEINFO@@V?$allocator@PAUFILEINFO@@@std@@@std@@@std@@QBE_NABV01@@Z 10017be0 f i HNSmtp.obj
 0001:00016be0       ??8?$_Tree_const_iterator@V?$_Tree_val@V?$_Tmap_traits@HV?$vector@HV?$allocator@H@std@@@std@@U?$less@H@2@V?$allocator@U?$pair@$$CBHV?$vector@HV?$allocator@H@std@@@std@@@std@@@2@$0A@@std@@@std@@@std@@QBE_NABV01@@Z 10017be0 f i AFCSocket.obj
 0001:00016be0       ??8?$_Tree_const_iterator@V?$_Tree_val@V?$_Tmap_traits@V?$basic_string@DU?$char_traits@D@std@@V?$allocator@D@2@@std@@VHNTreeNode@@U?$less@V?$basic_string@DU?$char_traits@D@std@@V?$allocator@D@2@@std@@@2@V?$allocator@U?$pair@$$CBV?$basic_string@DU?$char_traits@D@std@@V?$allocator@D@2@@std@@VHNTreeNode@@@std@@@2@$0A@@std@@@std@@@std@@QBE_NABV01@@Z 10017be0 f i HNFilter.obj
 0001:00016be0       ??8?$_Tree_const_iterator@V?$_Tree_val@V?$_Tmap_traits@V?$CStringT@DV?$StrTraitMFC_DLL@DV?$ChTraitsCRT@D@ATL@@@@@ATL@@PAVCBcfFileNameItem@@U?$less@V?$CStringT@DV?$StrTraitMFC_DLL@DV?$ChTraitsCRT@D@ATL@@@@@ATL@@@std@@V?$allocator@U?$pair@$$CBV?$CStringT@DV?$StrTraitMFC_DLL@DV?$ChTraitsCRT@D@ATL@@@@@ATL@@PAVCBcfFileNameItem@@@std@@@5@$0A@@std@@@std@@@std@@QBE_NABV01@@Z 10017be0 f i MainManage.obj
 0001:00016be0       ??8?$_Tree_const_iterator@V?$_Tree_val@V?$_Tmap_traits@V?$CStringT@DV?$StrTraitMFC_DLL@DV?$ChTraitsCRT@D@ATL@@@@@ATL@@PAVCBcfListItem@@U?$less@V?$CStringT@DV?$StrTraitMFC_DLL@DV?$ChTraitsCRT@D@ATL@@@@@ATL@@@std@@V?$allocator@U?$pair@$$CBV?$CStringT@DV?$StrTraitMFC_DLL@DV?$ChTraitsCRT@D@ATL@@@@@ATL@@PAVCBcfListItem@@@std@@@5@$0A@@std@@@std@@@std@@QBE_NABV01@@Z 10017be0 f i MainManage.obj
 0001:00016c10       ?_Make_iter@?$vector@HV?$allocator@H@std@@@std@@QBE?AV?$_Vector_iterator@V?$_Vector_val@HV?$allocator@H@std@@@std@@@2@V?$_Vector_const_iterator@V?$_Vector_val@HV?$allocator@H@std@@@std@@@2@@Z 10017c10 f i AFCSocket.obj
 0001:00016c40       ?_Destroy@?$vector@DV?$allocator@D@std@@@std@@IAEXPAD0@Z 10017c40 f i WebSocketAssitInterface.obj
 0001:00016c40       ?_Destroy@?$vector@HV?$allocator@H@std@@@std@@IAEXPAH0@Z 10017c40 f i AFCSocket.obj
 0001:00016c70       ?_Inside@?$vector@HV?$allocator@H@std@@@std@@IBE_NPBH@Z 10017c70 f i AFCSocket.obj
 0001:00016c70       ?_Inside@?$vector@DV?$allocator@D@std@@@std@@IBE_NPBD@Z 10017c70 f i WebSocketAssitInterface.obj
 0001:00016cb0       ?_Reserve@?$vector@HV?$allocator@H@std@@@std@@IAEXI@Z 10017cb0 f i AFCSocket.obj
 0001:00016d20       ?_Tidy@?$vector@HV?$allocator@H@std@@@std@@IAEXXZ 10017d20 f i AFCSocket.obj
 0001:00016da0       ?SetData@CBcfSectionItem@@UAEXPAXI@Z 10017da0 f i MainManage.obj
 0001:00016da0       ?_Orphan_range@?$vector@DV?$allocator@D@std@@@std@@IBEXPAD0@Z 10017da0 f i WebSocketAssitInterface.obj
 0001:00016da0       ?SetData@CBcfFileNameItem@@UAEXPAXI@Z 10017da0 f i MainManage.obj
 0001:00016da0       ?_Orphan_range@?$vector@HV?$allocator@H@std@@@std@@IBEXPAH0@Z 10017da0 f i AFCSocket.obj
 0001:00016da0       ?SetData@CBcfKeyItem@@UAEXPAXI@Z 10017da0 f i MainManage.obj
 0001:00016dc0       ??0?$_Vector_val@DV?$allocator@D@std@@@std@@QAE@V?$allocator@D@1@@Z 10017dc0 f i AFCWebSocket.obj
 0001:00016dc0       ??0?$_Vector_val@HV?$allocator@H@std@@@std@@QAE@V?$allocator@H@1@@Z 10017dc0 f i AFCSocket.obj
 0001:00016e10       ??0?$_Tree_const_iterator@V?$_Tree_val@V?$_Tmap_traits@V?$CStringT@DV?$StrTraitMFC_DLL@DV?$ChTraitsCRT@D@ATL@@@@@ATL@@PAVCBcfFileNameItem@@U?$less@V?$CStringT@DV?$StrTraitMFC_DLL@DV?$ChTraitsCRT@D@ATL@@@@@ATL@@@std@@V?$allocator@U?$pair@$$CBV?$CStringT@DV?$StrTraitMFC_DLL@DV?$ChTraitsCRT@D@ATL@@@@@ATL@@PAVCBcfFileNameItem@@@std@@@5@$0A@@std@@@std@@@std@@QAE@PAU_Node@?$_Tree_nod@V?$_Tmap_traits@V?$CStringT@DV?$StrTraitMFC_DLL@DV?$ChTraitsCRT@D@ATL@@@@@ATL@@PAVCBcfFileNameItem@@U?$less@V?$CStringT@DV?$StrTraitMFC_DLL@DV?$ChTraitsCRT@D@ATL@@@@@ATL@@@std@@V?$allocator@U?$pair@$$CBV?$CStringT@DV?$StrTraitMFC_DLL@DV?$ChTraitsCRT@D@ATL@@@@@ATL@@PAVCBcfFileNameItem@@@std@@@5@$0A@@std@@@1@PBV?$_Tree_val@V?$_Tmap_traits@V?$CStringT@DV?$StrTraitMFC_DLL@DV?$ChTraitsCRT@D@ATL@@@@@ATL@@PAVCBcfFileNameItem@@U?$less@V?$CStringT@DV?$StrTraitMFC_DLL@DV?$ChTraitsCRT@D@ATL@@@@@ATL@@@std@@V?$allocator@U?$pair@$$CBV?$CStringT@DV?$StrTraitMFC_DLL@DV?$ChTraitsCRT@D@ATL@@@@@ATL@@PAVCBcfFileNameItem@@@std@@@5@$0A@@std@@@1@@Z 10017e10 f i MainManage.obj
 0001:00016e10       ??0?$_Tree_const_iterator@V?$_Tree_val@V?$_Tmap_traits@V?$basic_string@DU?$char_traits@D@std@@V?$allocator@D@2@@std@@VHNTreeNode@@U?$less@V?$basic_string@DU?$char_traits@D@std@@V?$allocator@D@2@@std@@@2@V?$allocator@U?$pair@$$CBV?$basic_string@DU?$char_traits@D@std@@V?$allocator@D@2@@std@@VHNTreeNode@@@std@@@2@$0A@@std@@@std@@@std@@QAE@PAU_Node@?$_Tree_nod@V?$_Tmap_traits@V?$basic_string@DU?$char_traits@D@std@@V?$allocator@D@2@@std@@VHNTreeNode@@U?$less@V?$basic_string@DU?$char_traits@D@std@@V?$allocator@D@2@@std@@@2@V?$allocator@U?$pair@$$CBV?$basic_string@DU?$char_traits@D@std@@V?$allocator@D@2@@std@@VHNTreeNode@@@std@@@2@$0A@@std@@@1@PBV?$_Tree_val@V?$_Tmap_traits@V?$basic_string@DU?$char_traits@D@std@@V?$allocator@D@2@@std@@VHNTreeNode@@U?$less@V?$basic_string@DU?$char_traits@D@std@@V?$allocator@D@2@@std@@@2@V?$allocator@U?$pair@$$CBV?$basic_string@DU?$char_traits@D@std@@V?$allocator@D@2@@std@@VHNTreeNode@@@std@@@2@$0A@@std@@@1@@Z 10017e10 f i HNFilter.obj
 0001:00016e10       ??0?$_List_const_iterator@V?$_List_val@PAUFILEINFO@@V?$allocator@PAUFILEINFO@@@std@@@std@@@std@@QAE@PAU_Node@?$_List_nod@PAUFILEINFO@@V?$allocator@PAUFILEINFO@@@std@@@1@PBV?$_List_val@PAUFILEINFO@@V?$allocator@PAUFILEINFO@@@std@@@1@@Z 10017e10 f i HNSmtp.obj
 0001:00016e10       ??0?$_Tree_const_iterator@V?$_Tree_val@V?$_Tmap_traits@V?$CStringT@DV?$StrTraitMFC_DLL@DV?$ChTraitsCRT@D@ATL@@@@@ATL@@PAVCBcfListItem@@U?$less@V?$CStringT@DV?$StrTraitMFC_DLL@DV?$ChTraitsCRT@D@ATL@@@@@ATL@@@std@@V?$allocator@U?$pair@$$CBV?$CStringT@DV?$StrTraitMFC_DLL@DV?$ChTraitsCRT@D@ATL@@@@@ATL@@PAVCBcfListItem@@@std@@@5@$0A@@std@@@std@@@std@@QAE@PAU_Node@?$_Tree_nod@V?$_Tmap_traits@V?$CStringT@DV?$StrTraitMFC_DLL@DV?$ChTraitsCRT@D@ATL@@@@@ATL@@PAVCBcfListItem@@U?$less@V?$CStringT@DV?$StrTraitMFC_DLL@DV?$ChTraitsCRT@D@ATL@@@@@ATL@@@std@@V?$allocator@U?$pair@$$CBV?$CStringT@DV?$StrTraitMFC_DLL@DV?$ChTraitsCRT@D@ATL@@@@@ATL@@PAVCBcfListItem@@@std@@@5@$0A@@std@@@1@PBV?$_Tree_val@V?$_Tmap_traits@V?$CStringT@DV?$StrTraitMFC_DLL@DV?$ChTraitsCRT@D@ATL@@@@@ATL@@PAVCBcfListItem@@U?$less@V?$CStringT@DV?$StrTraitMFC_DLL@DV?$ChTraitsCRT@D@ATL@@@@@ATL@@@std@@V?$allocator@U?$pair@$$CBV?$CStringT@DV?$StrTraitMFC_DLL@DV?$ChTraitsCRT@D@ATL@@@@@ATL@@PAVCBcfListItem@@@std@@@5@$0A@@std@@@1@@Z 10017e10 f i MainManage.obj
 0001:00016e10       ??0?$_Vector_iterator@V?$_Vector_val@HV?$allocator@H@std@@@std@@@std@@QAE@PAHPBU_Container_base0@1@@Z 10017e10 f i AFCSocket.obj
 0001:00016e10       ??0?$_Tree_const_iterator@V?$_Tree_val@V?$_Tmap_traits@HV?$vector@HV?$allocator@H@std@@@std@@U?$less@H@2@V?$allocator@U?$pair@$$CBHV?$vector@HV?$allocator@H@std@@@std@@@std@@@2@$0A@@std@@@std@@@std@@QAE@PAU_Node@?$_Tree_nod@V?$_Tmap_traits@HV?$vector@HV?$allocator@H@std@@@std@@U?$less@H@2@V?$allocator@U?$pair@$$CBHV?$vector@HV?$allocator@H@std@@@std@@@std@@@2@$0A@@std@@@1@PBV?$_Tree_val@V?$_Tmap_traits@HV?$vector@HV?$allocator@H@std@@@std@@U?$less@H@2@V?$allocator@U?$pair@$$CBHV?$vector@HV?$allocator@H@std@@@std@@@std@@@2@$0A@@std@@@1@@Z 10017e10 f i AFCSocket.obj
 0001:00016e40       ??E?$_Vector_iterator@V?$_Vector_val@HV?$allocator@H@std@@@std@@@std@@QAEAAV01@XZ 10017e40 f i AFCSocket.obj
 0001:00016e60       ?erase@?$_Tree@V?$_Tmap_traits@HV?$vector@HV?$allocator@H@std@@@std@@U?$less@H@2@V?$allocator@U?$pair@$$CBHV?$vector@HV?$allocator@H@std@@@std@@@std@@@2@$0A@@std@@@std@@QAE?AV?$_Tree_iterator@V?$_Tree_val@V?$_Tmap_traits@HV?$vector@HV?$allocator@H@std@@@std@@U?$less@H@2@V?$allocator@U?$pair@$$CBHV?$vector@HV?$allocator@H@std@@@std@@@std@@@2@$0A@@std@@@std@@@2@V?$_Tree_const_iterator@V?$_Tree_val@V?$_Tmap_traits@HV?$vector@HV?$allocator@H@std@@@std@@U?$less@H@2@V?$allocator@U?$pair@$$CBHV?$vector@HV?$allocator@H@std@@@std@@@std@@@2@$0A@@std@@@std@@@2@0@Z 10017e60 f i AFCSocket.obj
 0001:00016f10       ?_Lbound@?$_Tree@V?$_Tmap_traits@HV?$vector@HV?$allocator@H@std@@@std@@U?$less@H@2@V?$allocator@U?$pair@$$CBHV?$vector@HV?$allocator@H@std@@@std@@@std@@@2@$0A@@std@@@std@@IAEPAU_Node@?$_Tree_nod@V?$_Tmap_traits@HV?$vector@HV?$allocator@H@std@@@std@@U?$less@H@2@V?$allocator@U?$pair@$$CBHV?$vector@HV?$allocator@H@std@@@std@@@std@@@2@$0A@@std@@@2@ABH@Z 10017f10 f i AFCSocket.obj
 0001:00016fa0       ??0?$_Tree_val@V?$_Tmap_traits@HV?$vector@HV?$allocator@H@std@@@std@@U?$less@H@2@V?$allocator@U?$pair@$$CBHV?$vector@HV?$allocator@H@std@@@std@@@std@@@2@$0A@@std@@@std@@QAE@ABU?$less@H@1@V?$allocator@U?$pair@$$CBHV?$vector@HV?$allocator@H@std@@@std@@@std@@@1@@Z 10017fa0 f i AFCSocket.obj
 0001:00017060       ??E?$_Tree_unchecked_const_iterator@V?$_Tree_val@V?$_Tmap_traits@HV?$vector@HV?$allocator@H@std@@@std@@U?$less@H@2@V?$allocator@U?$pair@$$CBHV?$vector@HV?$allocator@H@std@@@std@@@std@@@2@$0A@@std@@@std@@U_Iterator_base0@2@@std@@QAEAAV01@XZ 10018060 f i AFCSocket.obj
 0001:00017120       ?reserve@?$vector@HV?$allocator@H@std@@@std@@QAEXI@Z 10018120 f i AFCSocket.obj
 0001:00017270       ?capacity@?$vector@HV?$allocator@H@std@@@std@@QBEIXZ 10018270 f i AFCSocket.obj
 0001:000172a0       ?size@?$vector@HV?$allocator@H@std@@@std@@QBEIXZ 100182a0 f i AFCSocket.obj
 0001:000172d0       ?max_size@?$vector@HV?$allocator@H@std@@@std@@QBEIXZ 100182d0 f i AFCSocket.obj
 0001:000172f0       ?_Grow_to@?$vector@HV?$allocator@H@std@@@std@@IBEII@Z 100182f0 f i AFCSocket.obj
 0001:00017350       ??$?0U?$pair@$$CBHV?$vector@HV?$allocator@H@std@@@std@@@std@@@?$allocator@U_Node@?$_Tree_nod@V?$_Tmap_traits@HV?$vector@HV?$allocator@H@std@@@std@@U?$less@H@2@V?$allocator@U?$pair@$$CBHV?$vector@HV?$allocator@H@std@@@std@@@std@@@2@$0A@@std@@@std@@@std@@QAE@ABV?$allocator@U?$pair@$$CBHV?$vector@HV?$allocator@H@std@@@std@@@std@@@1@@Z 10018350 f i AFCSocket.obj
 0001:00017350       ??0?$allocator@PAUFILEINFO@@@std@@QAE@ABV01@@Z 10018350 f i HNSmtp.obj
 0001:00017350       ??0?$allocator@U?$pair@$$CBV?$basic_string@DU?$char_traits@D@std@@V?$allocator@D@2@@std@@VHNTreeNode@@@std@@@std@@QAE@ABV01@@Z 10018350 f i HNFilter.obj
 0001:00017350       ??0?$_Tmap_traits@V?$basic_string@DU?$char_traits@D@std@@V?$allocator@D@2@@std@@VHNTreeNode@@U?$less@V?$basic_string@DU?$char_traits@D@std@@V?$allocator@D@2@@std@@@2@V?$allocator@U?$pair@$$CBV?$basic_string@DU?$char_traits@D@std@@V?$allocator@D@2@@std@@VHNTreeNode@@@std@@@2@$0A@@std@@QAE@U?$less@V?$basic_string@DU?$char_traits@D@std@@V?$allocator@D@2@@std@@@1@@Z 10018350 f i HNFilter.obj
 0001:00017350       ??0?$_Tmap_traits@V?$CStringT@DV?$StrTraitMFC_DLL@DV?$ChTraitsCRT@D@ATL@@@@@ATL@@PAVCBcfListItem@@U?$less@V?$CStringT@DV?$StrTraitMFC_DLL@DV?$ChTraitsCRT@D@ATL@@@@@ATL@@@std@@V?$allocator@U?$pair@$$CBV?$CStringT@DV?$StrTraitMFC_DLL@DV?$ChTraitsCRT@D@ATL@@@@@ATL@@PAVCBcfListItem@@@std@@@5@$0A@@std@@QAE@U?$less@V?$CStringT@DV?$StrTraitMFC_DLL@DV?$ChTraitsCRT@D@ATL@@@@@ATL@@@1@@Z 10018350 f i MainManage.obj
 0001:00017350       ??4IDataBaseHandleService@@QAEAAU0@ABU0@@Z 10018350 f i AFCDataBase.obj
 0001:00017350       ??$?0U?$pair@$$CBV?$CStringT@DV?$StrTraitMFC_DLL@DV?$ChTraitsCRT@D@ATL@@@@@ATL@@PAVCBcfListItem@@@std@@@?$allocator@U_Node@?$_Tree_nod@V?$_Tmap_traits@V?$CStringT@DV?$StrTraitMFC_DLL@DV?$ChTraitsCRT@D@ATL@@@@@ATL@@PAVCBcfListItem@@U?$less@V?$CStringT@DV?$StrTraitMFC_DLL@DV?$ChTraitsCRT@D@ATL@@@@@ATL@@@std@@V?$allocator@U?$pair@$$CBV?$CStringT@DV?$StrTraitMFC_DLL@DV?$ChTraitsCRT@D@ATL@@@@@ATL@@PAVCBcfListItem@@@std@@@5@$0A@@std@@@std@@@std@@QAE@ABV?$allocator@U?$pair@$$CBV?$CStringT@DV?$StrTraitMFC_DLL@DV?$ChTraitsCRT@D@ATL@@@@@ATL@@PAVCBcfListItem@@@std@@@1@@Z 10018350 f i MainManage.obj
 0001:00017350       ??0?$_Tmap_traits@V?$CStringT@DV?$StrTraitMFC_DLL@DV?$ChTraitsCRT@D@ATL@@@@@ATL@@PAVCBcfFileNameItem@@U?$less@V?$CStringT@DV?$StrTraitMFC_DLL@DV?$ChTraitsCRT@D@ATL@@@@@ATL@@@std@@V?$allocator@U?$pair@$$CBV?$CStringT@DV?$StrTraitMFC_DLL@DV?$ChTraitsCRT@D@ATL@@@@@ATL@@PAVCBcfFileNameItem@@@std@@@5@$0A@@std@@QAE@U?$less@V?$CStringT@DV?$StrTraitMFC_DLL@DV?$ChTraitsCRT@D@ATL@@@@@ATL@@@1@@Z 10018350 f i MainManage.obj
 0001:00017350       ??0?$allocator@U?$pair@$$CBV?$CStringT@DV?$StrTraitMFC_DLL@DV?$ChTraitsCRT@D@ATL@@@@@ATL@@PAVCBcfListItem@@@std@@@std@@QAE@ABV01@@Z 10018350 f i MainManage.obj
 0001:00017350       ??4CProcessManage@@QAEAAV0@ABV0@@Z 10018350 f i ProcessManage.obj
 0001:00017350       ??$?0PAUFILEINFO@@@?$allocator@U_Node@?$_List_nod@PAUFILEINFO@@V?$allocator@PAUFILEINFO@@@std@@@std@@@std@@QAE@ABV?$allocator@PAUFILEINFO@@@1@@Z 10018350 f i HNSmtp.obj
 0001:00017350       ??$?0U?$pair@$$CBV?$CStringT@DV?$StrTraitMFC_DLL@DV?$ChTraitsCRT@D@ATL@@@@@ATL@@PAVCBcfFileNameItem@@@std@@@?$allocator@U_Node@?$_Tree_nod@V?$_Tmap_traits@V?$CStringT@DV?$StrTraitMFC_DLL@DV?$ChTraitsCRT@D@ATL@@@@@ATL@@PAVCBcfFileNameItem@@U?$less@V?$CStringT@DV?$StrTraitMFC_DLL@DV?$ChTraitsCRT@D@ATL@@@@@ATL@@@std@@V?$allocator@U?$pair@$$CBV?$CStringT@DV?$StrTraitMFC_DLL@DV?$ChTraitsCRT@D@ATL@@@@@ATL@@PAVCBcfFileNameItem@@@std@@@5@$0A@@std@@@std@@@std@@QAE@ABV?$allocator@U?$pair@$$CBV?$CStringT@DV?$StrTraitMFC_DLL@DV?$ChTraitsCRT@D@ATL@@@@@ATL@@PAVCBcfFileNameItem@@@std@@@1@@Z 10018350 f i MainManage.obj
 0001:00017350       ??0?$allocator@U?$pair@$$CBHV?$vector@HV?$allocator@H@std@@@std@@@std@@@std@@QAE@ABV01@@Z 10018350 f i AFCSocket.obj
 0001:00017350       ??0?$_Tmap_traits@HV?$vector@HV?$allocator@H@std@@@std@@U?$less@H@2@V?$allocator@U?$pair@$$CBHV?$vector@HV?$allocator@H@std@@@std@@@std@@@2@$0A@@std@@QAE@U?$less@H@1@@Z 10018350 f i AFCSocket.obj
 0001:00017350       ??0?$allocator@U?$pair@$$CBV?$CStringT@DV?$StrTraitMFC_DLL@DV?$ChTraitsCRT@D@ATL@@@@@ATL@@PAVCBcfFileNameItem@@@std@@@std@@QAE@ABV01@@Z 10018350 f i MainManage.obj
 0001:00017350       ??0?$allocator@H@std@@QAE@ABV01@@Z 10018350 f i AFCSocket.obj
 0001:00017350       ??$?0U?$pair@$$CBV?$basic_string@DU?$char_traits@D@std@@V?$allocator@D@2@@std@@VHNTreeNode@@@std@@@?$allocator@U_Node@?$_Tree_nod@V?$_Tmap_traits@V?$basic_string@DU?$char_traits@D@std@@V?$allocator@D@2@@std@@VHNTreeNode@@U?$less@V?$basic_string@DU?$char_traits@D@std@@V?$allocator@D@2@@std@@@2@V?$allocator@U?$pair@$$CBV?$basic_string@DU?$char_traits@D@std@@V?$allocator@D@2@@std@@VHNTreeNode@@@std@@@2@$0A@@std@@@std@@@std@@QAE@ABV?$allocator@U?$pair@$$CBV?$basic_string@DU?$char_traits@D@std@@V?$allocator@D@2@@std@@VHNTreeNode@@@std@@@1@@Z 10018350 f i HNFilter.obj
 0001:00017350       ??0?$allocator@D@std@@QAE@ABV01@@Z 10018350 f i Base64.obj
 0001:00017370       ?deallocate@?$allocator@H@std@@QAEXPAHI@Z 10018370 f i AFCSocket.obj
 0001:00017370       ?deallocate@?$allocator@D@std@@QAEXPADI@Z 10018370 f i Base64.obj
 0001:00017370       ?deallocate@?$allocator@U_Node@?$_Tree_nod@V?$_Tmap_traits@V?$CStringT@DV?$StrTraitMFC_DLL@DV?$ChTraitsCRT@D@ATL@@@@@ATL@@PAVCBcfListItem@@U?$less@V?$CStringT@DV?$StrTraitMFC_DLL@DV?$ChTraitsCRT@D@ATL@@@@@ATL@@@std@@V?$allocator@U?$pair@$$CBV?$CStringT@DV?$StrTraitMFC_DLL@DV?$ChTraitsCRT@D@ATL@@@@@ATL@@PAVCBcfListItem@@@std@@@5@$0A@@std@@@std@@@std@@QAEXPAU_Node@?$_Tree_nod@V?$_Tmap_traits@V?$CStringT@DV?$StrTraitMFC_DLL@DV?$ChTraitsCRT@D@ATL@@@@@ATL@@PAVCBcfListItem@@U?$less@V?$CStringT@DV?$StrTraitMFC_DLL@DV?$ChTraitsCRT@D@ATL@@@@@ATL@@@std@@V?$allocator@U?$pair@$$CBV?$CStringT@DV?$StrTraitMFC_DLL@DV?$ChTraitsCRT@D@ATL@@@@@ATL@@PAVCBcfListItem@@@std@@@5@$0A@@std@@@2@I@Z 10018370 f i MainManage.obj
 0001:00017370       ?deallocate@?$allocator@U_Node@?$_List_nod@PAUFILEINFO@@V?$allocator@PAUFILEINFO@@@std@@@std@@@std@@QAEXPAU_Node@?$_List_nod@PAUFILEINFO@@V?$allocator@PAUFILEINFO@@@std@@@2@I@Z 10018370 f i HNSmtp.obj
 0001:00017370       ?deallocate@?$allocator@U_Node@?$_Tree_nod@V?$_Tmap_traits@HV?$vector@HV?$allocator@H@std@@@std@@U?$less@H@2@V?$allocator@U?$pair@$$CBHV?$vector@HV?$allocator@H@std@@@std@@@std@@@2@$0A@@std@@@std@@@std@@QAEXPAU_Node@?$_Tree_nod@V?$_Tmap_traits@HV?$vector@HV?$allocator@H@std@@@std@@U?$less@H@2@V?$allocator@U?$pair@$$CBHV?$vector@HV?$allocator@H@std@@@std@@@std@@@2@$0A@@std@@@2@I@Z 10018370 f i AFCSocket.obj
 0001:00017370       ?deallocate@?$allocator@U_Node@?$_Tree_nod@V?$_Tmap_traits@V?$CStringT@DV?$StrTraitMFC_DLL@DV?$ChTraitsCRT@D@ATL@@@@@ATL@@PAVCBcfFileNameItem@@U?$less@V?$CStringT@DV?$StrTraitMFC_DLL@DV?$ChTraitsCRT@D@ATL@@@@@ATL@@@std@@V?$allocator@U?$pair@$$CBV?$CStringT@DV?$StrTraitMFC_DLL@DV?$ChTraitsCRT@D@ATL@@@@@ATL@@PAVCBcfFileNameItem@@@std@@@5@$0A@@std@@@std@@@std@@QAEXPAU_Node@?$_Tree_nod@V?$_Tmap_traits@V?$CStringT@DV?$StrTraitMFC_DLL@DV?$ChTraitsCRT@D@ATL@@@@@ATL@@PAVCBcfFileNameItem@@U?$less@V?$CStringT@DV?$StrTraitMFC_DLL@DV?$ChTraitsCRT@D@ATL@@@@@ATL@@@std@@V?$allocator@U?$pair@$$CBV?$CStringT@DV?$StrTraitMFC_DLL@DV?$ChTraitsCRT@D@ATL@@@@@ATL@@PAVCBcfFileNameItem@@@std@@@5@$0A@@std@@@2@I@Z 10018370 f i MainManage.obj
 0001:00017370       ?deallocate@?$allocator@U_Node@?$_Tree_nod@V?$_Tmap_traits@V?$basic_string@DU?$char_traits@D@std@@V?$allocator@D@2@@std@@VHNTreeNode@@U?$less@V?$basic_string@DU?$char_traits@D@std@@V?$allocator@D@2@@std@@@2@V?$allocator@U?$pair@$$CBV?$basic_string@DU?$char_traits@D@std@@V?$allocator@D@2@@std@@VHNTreeNode@@@std@@@2@$0A@@std@@@std@@@std@@QAEXPAU_Node@?$_Tree_nod@V?$_Tmap_traits@V?$basic_string@DU?$char_traits@D@std@@V?$allocator@D@2@@std@@VHNTreeNode@@U?$less@V?$basic_string@DU?$char_traits@D@std@@V?$allocator@D@2@@std@@@2@V?$allocator@U?$pair@$$CBV?$basic_string@DU?$char_traits@D@std@@V?$allocator@D@2@@std@@VHNTreeNode@@@std@@@2@$0A@@std@@@2@I@Z 10018370 f i HNFilter.obj
 0001:000173a0       ??0?$_Tree_unchecked_const_iterator@V?$_Tree_val@V?$_Tmap_traits@V?$basic_string@DU?$char_traits@D@std@@V?$allocator@D@2@@std@@VHNTreeNode@@U?$less@V?$basic_string@DU?$char_traits@D@std@@V?$allocator@D@2@@std@@@2@V?$allocator@U?$pair@$$CBV?$basic_string@DU?$char_traits@D@std@@V?$allocator@D@2@@std@@VHNTreeNode@@@std@@@2@$0A@@std@@@std@@U_Iterator_base0@2@@std@@QAE@PAU_Node@?$_Tree_nod@V?$_Tmap_traits@V?$basic_string@DU?$char_traits@D@std@@V?$allocator@D@2@@std@@VHNTreeNode@@U?$less@V?$basic_string@DU?$char_traits@D@std@@V?$allocator@D@2@@std@@@2@V?$allocator@U?$pair@$$CBV?$basic_string@DU?$char_traits@D@std@@V?$allocator@D@2@@std@@VHNTreeNode@@@std@@@2@$0A@@std@@@1@PBV?$_Tree_val@V?$_Tmap_traits@V?$basic_string@DU?$char_traits@D@std@@V?$allocator@D@2@@std@@VHNTreeNode@@U?$less@V?$basic_string@DU?$char_traits@D@std@@V?$allocator@D@2@@std@@@2@V?$allocator@U?$pair@$$CBV?$basic_string@DU?$char_traits@D@std@@V?$allocator@D@2@@std@@VHNTreeNode@@@std@@@2@$0A@@std@@@1@@Z 100183a0 f i HNFilter.obj
 0001:000173a0       ??0?$_List_unchecked_const_iterator@V?$_List_val@PAUFILEINFO@@V?$allocator@PAUFILEINFO@@@std@@@std@@U_Iterator_base0@2@@std@@QAE@PAU_Node@?$_List_nod@PAUFILEINFO@@V?$allocator@PAUFILEINFO@@@std@@@1@PBV?$_List_val@PAUFILEINFO@@V?$allocator@PAUFILEINFO@@@std@@@1@@Z 100183a0 f i HNSmtp.obj
 0001:000173a0       ??0?$_Tree_unchecked_const_iterator@V?$_Tree_val@V?$_Tmap_traits@V?$CStringT@DV?$StrTraitMFC_DLL@DV?$ChTraitsCRT@D@ATL@@@@@ATL@@PAVCBcfListItem@@U?$less@V?$CStringT@DV?$StrTraitMFC_DLL@DV?$ChTraitsCRT@D@ATL@@@@@ATL@@@std@@V?$allocator@U?$pair@$$CBV?$CStringT@DV?$StrTraitMFC_DLL@DV?$ChTraitsCRT@D@ATL@@@@@ATL@@PAVCBcfListItem@@@std@@@5@$0A@@std@@@std@@U_Iterator_base0@2@@std@@QAE@PAU_Node@?$_Tree_nod@V?$_Tmap_traits@V?$CStringT@DV?$StrTraitMFC_DLL@DV?$ChTraitsCRT@D@ATL@@@@@ATL@@PAVCBcfListItem@@U?$less@V?$CStringT@DV?$StrTraitMFC_DLL@DV?$ChTraitsCRT@D@ATL@@@@@ATL@@@std@@V?$allocator@U?$pair@$$CBV?$CStringT@DV?$StrTraitMFC_DLL@DV?$ChTraitsCRT@D@ATL@@@@@ATL@@PAVCBcfListItem@@@std@@@5@$0A@@std@@@1@PBV?$_Tree_val@V?$_Tmap_traits@V?$CStringT@DV?$StrTraitMFC_DLL@DV?$ChTraitsCRT@D@ATL@@@@@ATL@@PAVCBcfListItem@@U?$less@V?$CStringT@DV?$StrTraitMFC_DLL@DV?$ChTraitsCRT@D@ATL@@@@@ATL@@@std@@V?$allocator@U?$pair@$$CBV?$CStringT@DV?$StrTraitMFC_DLL@DV?$ChTraitsCRT@D@ATL@@@@@ATL@@PAVCBcfListItem@@@std@@@5@$0A@@std@@@1@@Z 100183a0 f i MainManage.obj
 0001:000173a0       ??0?$_Tree_unchecked_const_iterator@V?$_Tree_val@V?$_Tmap_traits@HV?$vector@HV?$allocator@H@std@@@std@@U?$less@H@2@V?$allocator@U?$pair@$$CBHV?$vector@HV?$allocator@H@std@@@std@@@std@@@2@$0A@@std@@@std@@U_Iterator_base0@2@@std@@QAE@PAU_Node@?$_Tree_nod@V?$_Tmap_traits@HV?$vector@HV?$allocator@H@std@@@std@@U?$less@H@2@V?$allocator@U?$pair@$$CBHV?$vector@HV?$allocator@H@std@@@std@@@std@@@2@$0A@@std@@@1@PBV?$_Tree_val@V?$_Tmap_traits@HV?$vector@HV?$allocator@H@std@@@std@@U?$less@H@2@V?$allocator@U?$pair@$$CBHV?$vector@HV?$allocator@H@std@@@std@@@std@@@2@$0A@@std@@@1@@Z 100183a0 f i AFCSocket.obj
 0001:000173a0       ??0?$_Tree_unchecked_const_iterator@V?$_Tree_val@V?$_Tmap_traits@V?$CStringT@DV?$StrTraitMFC_DLL@DV?$ChTraitsCRT@D@ATL@@@@@ATL@@PAVCBcfFileNameItem@@U?$less@V?$CStringT@DV?$StrTraitMFC_DLL@DV?$ChTraitsCRT@D@ATL@@@@@ATL@@@std@@V?$allocator@U?$pair@$$CBV?$CStringT@DV?$StrTraitMFC_DLL@DV?$ChTraitsCRT@D@ATL@@@@@ATL@@PAVCBcfFileNameItem@@@std@@@5@$0A@@std@@@std@@U_Iterator_base0@2@@std@@QAE@PAU_Node@?$_Tree_nod@V?$_Tmap_traits@V?$CStringT@DV?$StrTraitMFC_DLL@DV?$ChTraitsCRT@D@ATL@@@@@ATL@@PAVCBcfFileNameItem@@U?$less@V?$CStringT@DV?$StrTraitMFC_DLL@DV?$ChTraitsCRT@D@ATL@@@@@ATL@@@std@@V?$allocator@U?$pair@$$CBV?$CStringT@DV?$StrTraitMFC_DLL@DV?$ChTraitsCRT@D@ATL@@@@@ATL@@PAVCBcfFileNameItem@@@std@@@5@$0A@@std@@@1@PBV?$_Tree_val@V?$_Tmap_traits@V?$CStringT@DV?$StrTraitMFC_DLL@DV?$ChTraitsCRT@D@ATL@@@@@ATL@@PAVCBcfFileNameItem@@U?$less@V?$CStringT@DV?$StrTraitMFC_DLL@DV?$ChTraitsCRT@D@ATL@@@@@ATL@@@std@@V?$allocator@U?$pair@$$CBV?$CStringT@DV?$StrTraitMFC_DLL@DV?$ChTraitsCRT@D@ATL@@@@@ATL@@PAVCBcfFileNameItem@@@std@@@5@$0A@@std@@@1@@Z 100183a0 f i MainManage.obj
 0001:000173a0       ??0?$_Vector_const_iterator@V?$_Vector_val@HV?$allocator@H@std@@@std@@@std@@QAE@PAHPBU_Container_base0@1@@Z 100183a0 f i AFCSocket.obj
 0001:000173d0       ??E?$_Vector_const_iterator@V?$_Vector_val@HV?$allocator@H@std@@@std@@@std@@QAEAAV01@XZ 100183d0 f i AFCSocket.obj
 0001:00017400       ?clear@?$_Tree@V?$_Tmap_traits@HV?$vector@HV?$allocator@H@std@@@std@@U?$less@H@2@V?$allocator@U?$pair@$$CBHV?$vector@HV?$allocator@H@std@@@std@@@std@@@2@$0A@@std@@@std@@QAEXXZ 10018400 f i AFCSocket.obj
 0001:00017460       ?allocate@?$allocator@U_Node@?$_Tree_nod@V?$_Tmap_traits@HV?$vector@HV?$allocator@H@std@@@std@@U?$less@H@2@V?$allocator@U?$pair@$$CBHV?$vector@HV?$allocator@H@std@@@std@@@std@@@2@$0A@@std@@@std@@@std@@QAEPAU_Node@?$_Tree_nod@V?$_Tmap_traits@HV?$vector@HV?$allocator@H@std@@@std@@U?$less@H@2@V?$allocator@U?$pair@$$CBHV?$vector@HV?$allocator@H@std@@@std@@@std@@@2@$0A@@std@@@2@I@Z 10018460 f i AFCSocket.obj
 0001:00017490       ??E?$_Tree_const_iterator@V?$_Tree_val@V?$_Tmap_traits@HV?$vector@HV?$allocator@H@std@@@std@@U?$less@H@2@V?$allocator@U?$pair@$$CBHV?$vector@HV?$allocator@H@std@@@std@@@std@@@2@$0A@@std@@@std@@@std@@QAE?AV01@H@Z 10018490 f i AFCSocket.obj
 0001:000174c0       ?allocate@?$allocator@H@std@@QAEPAHI@Z 100184c0 f i AFCSocket.obj
 0001:000174f0       ?max_size@?$allocator@PAUFILEINFO@@@std@@QBEIXZ 100184f0 f i HNSmtp.obj
 0001:000174f0       ?max_size@?$allocator@H@std@@QBEIXZ 100184f0 f i AFCSocket.obj
 0001:00017530       ?_Erase@?$_Tree@V?$_Tmap_traits@HV?$vector@HV?$allocator@H@std@@@std@@U?$less@H@2@V?$allocator@U?$pair@$$CBHV?$vector@HV?$allocator@H@std@@@std@@@std@@@2@$0A@@std@@@std@@IAEXPAU_Node@?$_Tree_nod@V?$_Tmap_traits@HV?$vector@HV?$allocator@H@std@@@std@@U?$less@H@2@V?$allocator@U?$pair@$$CBHV?$vector@HV?$allocator@H@std@@@std@@@std@@@2@$0A@@std@@@2@@Z 10018530 f i AFCSocket.obj
 0001:000175d0       ??0?$CAFCPtrArray@VCTCPSocket@@@@QAE@XZ 100185d0 f i AFCSocket.obj
 0001:000175d0       ??0?$CAFCPtrArray@VCTCPSocketForZ@@@@QAE@XZ 100185d0 f i AFCSocket.obj
 0001:000175d0       ??0?$CAFCPtrArray@VCTCPSocketForWeb@@@@QAE@XZ 100185d0 f i AFCWebSocket.obj
 0001:00017630       ?Init@?$CAFCPtrArray@VCTCPSocket@@@@QAE_NII@Z 10018630 f i AFCSocket.obj
 0001:00017820       ??1?$CAFCPtrArray@VCTCPSocket@@@@QAE@XZ 10018820 f i AFCSocket.obj
 0001:00017820       ??1?$CAFCPtrArray@VCTCPSocketForZ@@@@QAE@XZ 10018820 f i AFCSocket.obj
 0001:00017820       ??1?$CAFCPtrArray@VCTCPSocketForWeb@@@@QAE@XZ 10018820 f i AFCWebSocket.obj
 0001:00017880       ?Init@?$CAFCPtrArray@VCTCPSocketForZ@@@@QAE_NII@Z 10018880 f i AFCSocket.obj
 0001:00017a70       ?UnInit@?$CAFCPtrArray@VCTCPSocket@@@@QAE_NXZ 10018a70 f i AFCSocket.obj
 0001:00017a70       ?UnInit@?$CAFCPtrArray@VCTCPSocketForZ@@@@QAE_NXZ 10018a70 f i AFCSocket.obj
 0001:00017a70       ?UnInit@?$CAFCPtrArray@VCTCPSocketForWeb@@@@QAE_NXZ 10018a70 f i AFCWebSocket.obj
 0001:00017be0       ??$find@V?$_Vector_iterator@V?$_Vector_val@HV?$allocator@H@std@@@std@@@std@@I@std@@YA?AV?$_Vector_iterator@V?$_Vector_val@HV?$allocator@H@std@@@std@@@0@V10@0ABI@Z 10018be0 f i AFCSocket.obj
 0001:00017c30       ??$?0AAIAAV?$vector@HV?$allocator@H@std@@@std@@@?$pair@HV?$vector@HV?$allocator@H@std@@@std@@@std@@QAE@AAIAAV?$vector@HV?$allocator@H@std@@@1@@Z 10018c30 f i AFCSocket.obj
 0001:00017c70       ??$insert@U?$pair@HV?$vector@HV?$allocator@H@std@@@std@@@std@@@?$_Tree@V?$_Tmap_traits@HV?$vector@HV?$allocator@H@std@@@std@@U?$less@H@2@V?$allocator@U?$pair@$$CBHV?$vector@HV?$allocator@H@std@@@std@@@std@@@2@$0A@@std@@@std@@QAE?AU?$pair@V?$_Tree_iterator@V?$_Tree_val@V?$_Tmap_traits@HV?$vector@HV?$allocator@H@std@@@std@@U?$less@H@2@V?$allocator@U?$pair@$$CBHV?$vector@HV?$allocator@H@std@@@std@@@std@@@2@$0A@@std@@@std@@@std@@_N@1@$$QAU?$pair@HV?$vector@HV?$allocator@H@std@@@std@@@1@@Z 10018c70 f i AFCSocket.obj
 0001:00017cb0       ??$swap@D@std@@YAXAAD0@Z   10018cb0 f i AFCSocket.obj
 0001:00017d00       ??$_Dest_val@V?$allocator@U?$pair@$$CBHV?$vector@HV?$allocator@H@std@@@std@@@std@@@std@@U?$pair@$$CBHV?$vector@HV?$allocator@H@std@@@std@@@2@@std@@YAXAAV?$allocator@U?$pair@$$CBHV?$vector@HV?$allocator@H@std@@@std@@@std@@@0@PAU?$pair@$$CBHV?$vector@HV?$allocator@H@std@@@std@@@0@@Z 10018d00 f i AFCSocket.obj
 0001:00017d20       ??$_Cons_val@V?$allocator@H@std@@HAAH@std@@YAXAAV?$allocator@H@0@PAHAAH@Z 10018d20 f i AFCSocket.obj
 0001:00017d20       ??$_Cons_val@V?$allocator@H@std@@HH@std@@YAXAAV?$allocator@H@0@PAH$$QAH@Z 10018d20 f i AFCSocket.obj
 0001:00017d50       ??$_Move@PAHPAH@std@@YAPAHPAH00@Z 10018d50 f i AFCSocket.obj
 0001:00017d90       ??$_Destroy_range@V?$allocator@D@std@@@std@@YAXPAD0AAV?$allocator@D@0@@Z 10018d90 f i WebSocketAssitInterface.obj
 0001:00017d90       ??$_Destroy_range@V?$allocator@H@std@@@std@@YAXPAH0AAV?$allocator@H@0@@Z 10018d90 f i AFCSocket.obj
 0001:00017dd0       ??$_Umove@PAH@?$vector@HV?$allocator@H@std@@@std@@IAEPAHPAH00@Z 10018dd0 f i AFCSocket.obj
 0001:00017e00       ??$_Allocate@U_Node@?$_Tree_nod@V?$_Tmap_traits@HV?$vector@HV?$allocator@H@std@@@std@@U?$less@H@2@V?$allocator@U?$pair@$$CBHV?$vector@HV?$allocator@H@std@@@std@@@std@@@2@$0A@@std@@@std@@@std@@YAPAU_Node@?$_Tree_nod@V?$_Tmap_traits@HV?$vector@HV?$allocator@H@std@@@std@@U?$less@H@2@V?$allocator@U?$pair@$$CBHV?$vector@HV?$allocator@H@std@@@std@@@std@@@2@$0A@@std@@@0@IPAU120@@Z 10018e00 f i AFCSocket.obj
 0001:00017e70       ??$_Allocate@H@std@@YAPAHIPAH@Z 10018e70 f i AFCSocket.obj
 0001:00017ee0       ?_Linsert@?$_Tree@V?$_Tmap_traits@HV?$vector@HV?$allocator@H@std@@@std@@U?$less@H@2@V?$allocator@U?$pair@$$CBHV?$vector@HV?$allocator@H@std@@@std@@@std@@@2@$0A@@std@@@std@@QAE?AU?$pair@V?$_Tree_iterator@V?$_Tree_val@V?$_Tmap_traits@HV?$vector@HV?$allocator@H@std@@@std@@U?$less@H@2@V?$allocator@U?$pair@$$CBHV?$vector@HV?$allocator@H@std@@@std@@@std@@@2@$0A@@std@@@std@@@std@@_N@2@PAU_Node@?$_Tree_nod@V?$_Tmap_traits@HV?$vector@HV?$allocator@H@std@@@std@@U?$less@H@2@V?$allocator@U?$pair@$$CBHV?$vector@HV?$allocator@H@std@@@std@@@std@@@2@$0A@@std@@@2@_N@Z 10018ee0 f i AFCSocket.obj
 0001:00018130       ?destroy@?$allocator@U?$pair@$$CBHV?$vector@HV?$allocator@H@std@@@std@@@std@@@std@@QAEXPAU?$pair@$$CBHV?$vector@HV?$allocator@H@std@@@std@@@2@@Z 10019130 f i AFCSocket.obj
 0001:00018160       ?_Insert@?$_Tree@V?$_Tmap_traits@HV?$vector@HV?$allocator@H@std@@@std@@U?$less@H@2@V?$allocator@U?$pair@$$CBHV?$vector@HV?$allocator@H@std@@@std@@@std@@@2@$0A@@std@@@std@@IAE?AV?$_Tree_iterator@V?$_Tree_val@V?$_Tmap_traits@HV?$vector@HV?$allocator@H@std@@@std@@U?$less@H@2@V?$allocator@U?$pair@$$CBHV?$vector@HV?$allocator@H@std@@@std@@@std@@@2@$0A@@std@@@std@@@2@_NPAU_Node@?$_Tree_nod@V?$_Tmap_traits@HV?$vector@HV?$allocator@H@std@@@std@@U?$less@H@2@V?$allocator@U?$pair@$$CBHV?$vector@HV?$allocator@H@std@@@std@@@std@@@2@$0A@@std@@@2@1@Z 10019160 f i AFCSocket.obj
 0001:000185a0       ??F?$_Tree_iterator@V?$_Tree_val@V?$_Tmap_traits@HV?$vector@HV?$allocator@H@std@@@std@@U?$less@H@2@V?$allocator@U?$pair@$$CBHV?$vector@HV?$allocator@H@std@@@std@@@std@@@2@$0A@@std@@@std@@@std@@QAEAAV01@XZ 100195a0 f i AFCSocket.obj
 0001:000185c0       ?max_size@?$_Tree@V?$_Tmap_traits@HV?$vector@HV?$allocator@H@std@@@std@@U?$less@H@2@V?$allocator@U?$pair@$$CBHV?$vector@HV?$allocator@H@std@@@std@@@std@@@2@$0A@@std@@@std@@QBEIXZ 100195c0 f i AFCSocket.obj
 0001:000185e0       ??F?$_Tree_const_iterator@V?$_Tree_val@V?$_Tmap_traits@HV?$vector@HV?$allocator@H@std@@@std@@U?$less@H@2@V?$allocator@U?$pair@$$CBHV?$vector@HV?$allocator@H@std@@@std@@@std@@@2@$0A@@std@@@std@@@std@@QAEAAV01@XZ 100195e0 f i AFCSocket.obj
 0001:00018600       ??$?0AAV?$_Tree_iterator@V?$_Tree_val@V?$_Tmap_traits@HV?$vector@HV?$allocator@H@std@@@std@@U?$less@H@2@V?$allocator@U?$pair@$$CBHV?$vector@HV?$allocator@H@std@@@std@@@std@@@2@$0A@@std@@@std@@@std@@_N@?$_Pair_base@V?$_Tree_iterator@V?$_Tree_val@V?$_Tmap_traits@HV?$vector@HV?$allocator@H@std@@@std@@U?$less@H@2@V?$allocator@U?$pair@$$CBHV?$vector@HV?$allocator@H@std@@@std@@@std@@@2@$0A@@std@@@std@@@std@@_N@std@@QAE@AAV?$_Tree_iterator@V?$_Tree_val@V?$_Tmap_traits@HV?$vector@HV?$allocator@H@std@@@std@@U?$less@H@2@V?$allocator@U?$pair@$$CBHV?$vector@HV?$allocator@H@std@@@std@@@std@@@2@$0A@@std@@@std@@@1@$$QA_N@Z 10019600 f i AFCSocket.obj
 0001:00018600       ??$?0AAV?$_Tree_iterator@V?$_Tree_val@V?$_Tmap_traits@V?$CStringT@DV?$StrTraitMFC_DLL@DV?$ChTraitsCRT@D@ATL@@@@@ATL@@PAVCBcfFileNameItem@@U?$less@V?$CStringT@DV?$StrTraitMFC_DLL@DV?$ChTraitsCRT@D@ATL@@@@@ATL@@@std@@V?$allocator@U?$pair@$$CBV?$CStringT@DV?$StrTraitMFC_DLL@DV?$ChTraitsCRT@D@ATL@@@@@ATL@@PAVCBcfFileNameItem@@@std@@@5@$0A@@std@@@std@@@std@@_N@?$_Pair_base@V?$_Tree_iterator@V?$_Tree_val@V?$_Tmap_traits@V?$CStringT@DV?$StrTraitMFC_DLL@DV?$ChTraitsCRT@D@ATL@@@@@ATL@@PAVCBcfFileNameItem@@U?$less@V?$CStringT@DV?$StrTraitMFC_DLL@DV?$ChTraitsCRT@D@ATL@@@@@ATL@@@std@@V?$allocator@U?$pair@$$CBV?$CStringT@DV?$StrTraitMFC_DLL@DV?$ChTraitsCRT@D@ATL@@@@@ATL@@PAVCBcfFileNameItem@@@std@@@5@$0A@@std@@@std@@@std@@_N@std@@QAE@AAV?$_Tree_iterator@V?$_Tree_val@V?$_Tmap_traits@V?$CStringT@DV?$StrTraitMFC_DLL@DV?$ChTraitsCRT@D@ATL@@@@@ATL@@PAVCBcfFileNameItem@@U?$less@V?$CStringT@DV?$StrTraitMFC_DLL@DV?$ChTraitsCRT@D@ATL@@@@@ATL@@@std@@V?$allocator@U?$pair@$$CBV?$CStringT@DV?$StrTraitMFC_DLL@DV?$ChTraitsCRT@D@ATL@@@@@ATL@@PAVCBcfFileNameItem@@@std@@@5@$0A@@std@@@std@@@1@$$QA_N@Z 10019600 f i MainManage.obj
 0001:00018600       ??0?$_Pair_base@V?$_Tree_iterator@V?$_Tree_val@V?$_Tmap_traits@HV?$vector@HV?$allocator@H@std@@@std@@U?$less@H@2@V?$allocator@U?$pair@$$CBHV?$vector@HV?$allocator@H@std@@@std@@@std@@@2@$0A@@std@@@std@@@std@@_N@std@@QAE@$$QAV?$_Tree_iterator@V?$_Tree_val@V?$_Tmap_traits@HV?$vector@HV?$allocator@H@std@@@std@@U?$less@H@2@V?$allocator@U?$pair@$$CBHV?$vector@HV?$allocator@H@std@@@std@@@std@@@2@$0A@@std@@@std@@@1@$$QA_N@Z 10019600 f i AFCSocket.obj
 0001:00018600       ??$?0AAV?$_Tree_iterator@V?$_Tree_val@V?$_Tmap_traits@V?$basic_string@DU?$char_traits@D@std@@V?$allocator@D@2@@std@@VHNTreeNode@@U?$less@V?$basic_string@DU?$char_traits@D@std@@V?$allocator@D@2@@std@@@2@V?$allocator@U?$pair@$$CBV?$basic_string@DU?$char_traits@D@std@@V?$allocator@D@2@@std@@VHNTreeNode@@@std@@@2@$0A@@std@@@std@@@std@@_N@?$_Pair_base@V?$_Tree_iterator@V?$_Tree_val@V?$_Tmap_traits@V?$basic_string@DU?$char_traits@D@std@@V?$allocator@D@2@@std@@VHNTreeNode@@U?$less@V?$basic_string@DU?$char_traits@D@std@@V?$allocator@D@2@@std@@@2@V?$allocator@U?$pair@$$CBV?$basic_string@DU?$char_traits@D@std@@V?$allocator@D@2@@std@@VHNTreeNode@@@std@@@2@$0A@@std@@@std@@@std@@_N@std@@QAE@AAV?$_Tree_iterator@V?$_Tree_val@V?$_Tmap_traits@V?$basic_string@DU?$char_traits@D@std@@V?$allocator@D@2@@std@@VHNTreeNode@@U?$less@V?$basic_string@DU?$char_traits@D@std@@V?$allocator@D@2@@std@@@2@V?$allocator@U?$pair@$$CBV?$basic_string@DU?$char_traits@D@std@@V?$allocator@D@2@@std@@VHNTreeNode@@@std@@@2@$0A@@std@@@std@@@1@$$QA_N@Z 10019600 f i HNTreeNode.obj
 0001:00018600       ??$?0AAV?$_Tree_iterator@V?$_Tree_val@V?$_Tmap_traits@V?$CStringT@DV?$StrTraitMFC_DLL@DV?$ChTraitsCRT@D@ATL@@@@@ATL@@PAVCBcfListItem@@U?$less@V?$CStringT@DV?$StrTraitMFC_DLL@DV?$ChTraitsCRT@D@ATL@@@@@ATL@@@std@@V?$allocator@U?$pair@$$CBV?$CStringT@DV?$StrTraitMFC_DLL@DV?$ChTraitsCRT@D@ATL@@@@@ATL@@PAVCBcfListItem@@@std@@@5@$0A@@std@@@std@@@std@@_N@?$_Pair_base@V?$_Tree_iterator@V?$_Tree_val@V?$_Tmap_traits@V?$CStringT@DV?$StrTraitMFC_DLL@DV?$ChTraitsCRT@D@ATL@@@@@ATL@@PAVCBcfListItem@@U?$less@V?$CStringT@DV?$StrTraitMFC_DLL@DV?$ChTraitsCRT@D@ATL@@@@@ATL@@@std@@V?$allocator@U?$pair@$$CBV?$CStringT@DV?$StrTraitMFC_DLL@DV?$ChTraitsCRT@D@ATL@@@@@ATL@@PAVCBcfListItem@@@std@@@5@$0A@@std@@@std@@@std@@_N@std@@QAE@AAV?$_Tree_iterator@V?$_Tree_val@V?$_Tmap_traits@V?$CStringT@DV?$StrTraitMFC_DLL@DV?$ChTraitsCRT@D@ATL@@@@@ATL@@PAVCBcfListItem@@U?$less@V?$CStringT@DV?$StrTraitMFC_DLL@DV?$ChTraitsCRT@D@ATL@@@@@ATL@@@std@@V?$allocator@U?$pair@$$CBV?$CStringT@DV?$StrTraitMFC_DLL@DV?$ChTraitsCRT@D@ATL@@@@@ATL@@PAVCBcfListItem@@@std@@@5@$0A@@std@@@std@@@1@$$QA_N@Z 10019600 f i MainManage.obj
 0001:00018600       ??0?$_Pair_base@V?$_Tree_iterator@V?$_Tree_val@V?$_Tmap_traits@V?$CStringT@DV?$StrTraitMFC_DLL@DV?$ChTraitsCRT@D@ATL@@@@@ATL@@PAVCBcfFileNameItem@@U?$less@V?$CStringT@DV?$StrTraitMFC_DLL@DV?$ChTraitsCRT@D@ATL@@@@@ATL@@@std@@V?$allocator@U?$pair@$$CBV?$CStringT@DV?$StrTraitMFC_DLL@DV?$ChTraitsCRT@D@ATL@@@@@ATL@@PAVCBcfFileNameItem@@@std@@@5@$0A@@std@@@std@@@std@@_N@std@@QAE@$$QAV?$_Tree_iterator@V?$_Tree_val@V?$_Tmap_traits@V?$CStringT@DV?$StrTraitMFC_DLL@DV?$ChTraitsCRT@D@ATL@@@@@ATL@@PAVCBcfFileNameItem@@U?$less@V?$CStringT@DV?$StrTraitMFC_DLL@DV?$ChTraitsCRT@D@ATL@@@@@ATL@@@std@@V?$allocator@U?$pair@$$CBV?$CStringT@DV?$StrTraitMFC_DLL@DV?$ChTraitsCRT@D@ATL@@@@@ATL@@PAVCBcfFileNameItem@@@std@@@5@$0A@@std@@@std@@@1@$$QA_N@Z 10019600 f i MainManage.obj
 0001:00018600       ??0?$_Pair_base@V?$_Tree_iterator@V?$_Tree_val@V?$_Tmap_traits@V?$CStringT@DV?$StrTraitMFC_DLL@DV?$ChTraitsCRT@D@ATL@@@@@ATL@@PAVCBcfListItem@@U?$less@V?$CStringT@DV?$StrTraitMFC_DLL@DV?$ChTraitsCRT@D@ATL@@@@@ATL@@@std@@V?$allocator@U?$pair@$$CBV?$CStringT@DV?$StrTraitMFC_DLL@DV?$ChTraitsCRT@D@ATL@@@@@ATL@@PAVCBcfListItem@@@std@@@5@$0A@@std@@@std@@@std@@_N@std@@QAE@$$QAV?$_Tree_iterator@V?$_Tree_val@V?$_Tmap_traits@V?$CStringT@DV?$StrTraitMFC_DLL@DV?$ChTraitsCRT@D@ATL@@@@@ATL@@PAVCBcfListItem@@U?$less@V?$CStringT@DV?$StrTraitMFC_DLL@DV?$ChTraitsCRT@D@ATL@@@@@ATL@@@std@@V?$allocator@U?$pair@$$CBV?$CStringT@DV?$StrTraitMFC_DLL@DV?$ChTraitsCRT@D@ATL@@@@@ATL@@PAVCBcfListItem@@@std@@@5@$0A@@std@@@std@@@1@$$QA_N@Z 10019600 f i MainManage.obj
 0001:00018600       ??0?$_Pair_base@V?$_Tree_iterator@V?$_Tree_val@V?$_Tmap_traits@V?$basic_string@DU?$char_traits@D@std@@V?$allocator@D@2@@std@@VHNTreeNode@@U?$less@V?$basic_string@DU?$char_traits@D@std@@V?$allocator@D@2@@std@@@2@V?$allocator@U?$pair@$$CBV?$basic_string@DU?$char_traits@D@std@@V?$allocator@D@2@@std@@VHNTreeNode@@@std@@@2@$0A@@std@@@std@@@std@@_N@std@@QAE@$$QAV?$_Tree_iterator@V?$_Tree_val@V?$_Tmap_traits@V?$basic_string@DU?$char_traits@D@std@@V?$allocator@D@2@@std@@VHNTreeNode@@U?$less@V?$basic_string@DU?$char_traits@D@std@@V?$allocator@D@2@@std@@@2@V?$allocator@U?$pair@$$CBV?$basic_string@DU?$char_traits@D@std@@V?$allocator@D@2@@std@@VHNTreeNode@@@std@@@2@$0A@@std@@@std@@@1@$$QA_N@Z 10019600 f i HNTreeNode.obj
 0001:00018640       ?max_size@?$allocator@U?$pair@$$CBHV?$vector@HV?$allocator@H@std@@@std@@@std@@@std@@QBEIXZ 10019640 f i AFCSocket.obj
 0001:00018680       ??F?$_Tree_unchecked_const_iterator@V?$_Tree_val@V?$_Tmap_traits@HV?$vector@HV?$allocator@H@std@@@std@@U?$less@H@2@V?$allocator@U?$pair@$$CBHV?$vector@HV?$allocator@H@std@@@std@@@std@@@2@$0A@@std@@@std@@U_Iterator_base0@2@@std@@QAEAAV01@XZ 10019680 f i AFCSocket.obj
 0001:00018770       ??$_Unchecked@V?$_Vector_val@HV?$allocator@H@std@@@std@@@std@@YAPAHV?$_Vector_iterator@V?$_Vector_val@HV?$allocator@H@std@@@std@@@0@@Z 10019770 f i AFCSocket.obj
 0001:00018790       ??$_Find@PAHI@std@@YAPAHPAH0ABI@Z 10019790 f i AFCSocket.obj
 0001:000187d0       ??$_Rechecked@V?$_Vector_val@HV?$allocator@H@std@@@std@@@std@@YAAAV?$_Vector_iterator@V?$_Vector_val@HV?$allocator@H@std@@@std@@@0@AAV10@PAH@Z 100197d0 f i AFCSocket.obj
 0001:000187f0       ??$?0AAIAAV?$vector@HV?$allocator@H@std@@@std@@@?$_Pair_base@HV?$vector@HV?$allocator@H@std@@@std@@@std@@QAE@AAIAAV?$vector@HV?$allocator@H@std@@@1@@Z 100197f0 f i AFCSocket.obj
 0001:00018840       ??$_Buynode@U?$pair@HV?$vector@HV?$allocator@H@std@@@std@@@std@@@?$_Tree_val@V?$_Tmap_traits@HV?$vector@HV?$allocator@H@std@@@std@@U?$less@H@2@V?$allocator@U?$pair@$$CBHV?$vector@HV?$allocator@H@std@@@std@@@std@@@2@$0A@@std@@@std@@QAEPAU_Node@?$_Tree_nod@V?$_Tmap_traits@HV?$vector@HV?$allocator@H@std@@@std@@U?$less@H@2@V?$allocator@U?$pair@$$CBHV?$vector@HV?$allocator@H@std@@@std@@@std@@@2@$0A@@std@@@1@$$QAU?$pair@HV?$vector@HV?$allocator@H@std@@@std@@@1@@Z 10019840 f i AFCSocket.obj
 0001:00018910       ?construct@?$allocator@H@std@@QAEXPAH$$QAH@Z 10019910 f i AFCSocket.obj
 0001:00018910       ??$construct@AAH@?$allocator@H@std@@QAEXPAHAAH@Z 10019910 f i AFCSocket.obj
 0001:000189a0       ??$_Move@PAHPAH@std@@YAPAHPAH00U_Scalar_ptr_iterator_tag@0@@Z 100199a0 f i AFCSocket.obj
 0001:000189e0       ??$_Destroy_range@V?$allocator@H@std@@@std@@YAXPAH0AAV?$allocator@H@0@U_Scalar_ptr_iterator_tag@0@@Z 100199e0 f i AFCSocket.obj
 0001:000189e0       ??$_Destroy@U_Node@?$_List_nod@PAUFILEINFO@@V?$allocator@PAUFILEINFO@@@std@@@std@@@std@@YAXPAU_Node@?$_List_nod@PAUFILEINFO@@V?$allocator@PAUFILEINFO@@@std@@@0@@Z 100199e0 f i HNSmtp.obj
 0001:000189e0       ??$_Destroy@H@std@@YAXPAH@Z 100199e0 f i AFCSocket.obj
 0001:000189e0       ??$_Destroy@D@std@@YAXPAD@Z 100199e0 f i WebSocketAssitInterface.obj
 0001:000189e0       ??3@YAXPAX0@Z              100199e0 f i WebSocketAssitInterface.obj
 0001:000189e0       ??$_Destroy_range@V?$allocator@D@std@@@std@@YAXPAD0AAV?$allocator@D@0@U_Scalar_ptr_iterator_tag@0@@Z 100199e0 f i WebSocketAssitInterface.obj
 0001:000189f0       ??$_Uninitialized_move@PAHPAHV?$allocator@H@std@@@std@@YAPAHPAH00AAV?$allocator@H@0@@Z 100199f0 f i AFCSocket.obj
 0001:00018a40       ??$_Destroy@U?$pair@$$CBHV?$vector@HV?$allocator@H@std@@@std@@@std@@@std@@YAXPAU?$pair@$$CBHV?$vector@HV?$allocator@H@std@@@std@@@0@@Z 10019a40 f i AFCSocket.obj
 0001:00018a60       ??_G?$pair@$$CBHV?$vector@HV?$allocator@H@std@@@std@@@std@@QAEPAXI@Z 10019a60 f i AFCSocket.obj
 0001:00018aa0       ?_Buynode@?$_Tree_val@V?$_Tmap_traits@HV?$vector@HV?$allocator@H@std@@@std@@U?$less@H@2@V?$allocator@U?$pair@$$CBHV?$vector@HV?$allocator@H@std@@@std@@@std@@@2@$0A@@std@@@std@@QAEPAU_Node@?$_Tree_nod@V?$_Tmap_traits@HV?$vector@HV?$allocator@H@std@@@std@@U?$less@H@2@V?$allocator@U?$pair@$$CBHV?$vector@HV?$allocator@H@std@@@std@@@std@@@2@$0A@@std@@@2@XZ 10019aa0 f i AFCSocket.obj
 0001:00018b20       ??0?$vector@HV?$allocator@H@std@@@std@@QAE@ABV01@@Z 10019b20 f i AFCSocket.obj
 0001:00018c20       ?_Rechecked@?$_Vector_iterator@V?$_Vector_val@HV?$allocator@H@std@@@std@@@std@@QAEAAV12@PAH@Z 10019c20 f i AFCSocket.obj
 0001:00018c40       ?begin@?$vector@HV?$allocator@H@std@@@std@@QBE?AV?$_Vector_const_iterator@V?$_Vector_val@HV?$allocator@H@std@@@std@@@2@XZ 10019c40 f i AFCSocket.obj
 0001:00018c70       ?end@?$vector@HV?$allocator@H@std@@@std@@QBE?AV?$_Vector_const_iterator@V?$_Vector_val@HV?$allocator@H@std@@@std@@@2@XZ 10019c70 f i AFCSocket.obj
 0001:00018ca0       ?_Buy@?$vector@HV?$allocator@H@std@@@std@@IAE_NI@Z 10019ca0 f i AFCSocket.obj
 0001:00018d30       ??$_Cons_val@V?$allocator@U?$pair@$$CBHV?$vector@HV?$allocator@H@std@@@std@@@std@@@std@@U?$pair@$$CBHV?$vector@HV?$allocator@H@std@@@std@@@2@U?$pair@HV?$vector@HV?$allocator@H@std@@@std@@@2@@std@@YAXAAV?$allocator@U?$pair@$$CBHV?$vector@HV?$allocator@H@std@@@std@@@std@@@0@PAU?$pair@$$CBHV?$vector@HV?$allocator@H@std@@@std@@@0@$$QAU?$pair@HV?$vector@HV?$allocator@H@std@@@std@@@0@@Z 10019d30 f i AFCSocket.obj
 0001:00018d60       ??$_Uninit_move@HHH@std@@YAPAHPAH00AAV?$allocator@H@0@0U_Scalar_ptr_iterator_tag@0@@Z 10019d60 f i AFCSocket.obj
 0001:00018da0       ??$_Ucopy@V?$_Vector_const_iterator@V?$_Vector_val@HV?$allocator@H@std@@@std@@@std@@@?$vector@HV?$allocator@H@std@@@std@@IAEPAHV?$_Vector_const_iterator@V?$_Vector_val@HV?$allocator@H@std@@@std@@@1@0PAH@Z 10019da0 f i AFCSocket.obj
 0001:00018dd0       ??$construct@U?$pair@HV?$vector@HV?$allocator@H@std@@@std@@@std@@@?$allocator@U?$pair@$$CBHV?$vector@HV?$allocator@H@std@@@std@@@std@@@std@@QAEXPAU?$pair@$$CBHV?$vector@HV?$allocator@H@std@@@std@@@1@$$QAU?$pair@HV?$vector@HV?$allocator@H@std@@@std@@@1@@Z 10019dd0 f i AFCSocket.obj
 0001:00018e60       ??$_Uninitialized_copy@V?$_Vector_const_iterator@V?$_Vector_val@HV?$allocator@H@std@@@std@@@std@@PAHV?$allocator@H@2@@std@@YAPAHV?$_Vector_const_iterator@V?$_Vector_val@HV?$allocator@H@std@@@std@@@0@0PAHAAV?$allocator@H@0@@Z 10019e60 f i AFCSocket.obj
 0001:00018ea0       ??$?0HV?$vector@HV?$allocator@H@std@@@std@@@?$pair@$$CBHV?$vector@HV?$allocator@H@std@@@std@@@std@@QAE@$$QAU?$pair@HV?$vector@HV?$allocator@H@std@@@std@@@1@@Z 10019ea0 f i AFCSocket.obj
 0001:00018ee0       ??$_Uninit_copy@V?$_Vector_const_iterator@V?$_Vector_val@HV?$allocator@H@std@@@std@@@std@@PAHV?$allocator@H@2@@std@@YAPAHV?$_Vector_const_iterator@V?$_Vector_val@HV?$allocator@H@std@@@std@@@0@0PAHAAV?$allocator@H@0@U_Nonscalar_ptr_iterator_tag@0@@Z 10019ee0 f i AFCSocket.obj
 0001:00018fc0       ??$?0HV?$vector@HV?$allocator@H@std@@@std@@@?$_Pair_base@$$CBHV?$vector@HV?$allocator@H@std@@@std@@@std@@QAE@$$QAH$$QAV?$vector@HV?$allocator@H@std@@@1@@Z 10019fc0 f i AFCSocket.obj
 0001:00019010       ??0?$vector@HV?$allocator@H@std@@@std@@QAE@$$QAV01@@Z 1001a010 f i AFCSocket.obj
 0001:00019090       ?_Assign_rv@?$vector@HV?$allocator@H@std@@@std@@QAEX$$QAV12@@Z 1001a090 f i AFCSocket.obj
 0001:00019190       ?push_back@?$vector@HV?$allocator@H@std@@@std@@QAEX$$QAH@Z 1001a190 f i AFCSocket.obj
 0001:000192b0       ?get_allocator@?$vector@HV?$allocator@H@std@@@std@@QBE?AV?$allocator@H@2@XZ 1001a2b0 f i AFCSocket.obj
 0001:000192e0       ?clear@?$vector@HV?$allocator@H@std@@@std@@QAEXXZ 1001a2e0 f i AFCSocket.obj
 0001:00019330       ?erase@?$vector@HV?$allocator@H@std@@@std@@QAE?AV?$_Vector_iterator@V?$_Vector_val@HV?$allocator@H@std@@@std@@@2@V?$_Vector_const_iterator@V?$_Vector_val@HV?$allocator@H@std@@@std@@@2@0@Z 1001a330 f i AFCSocket.obj
 0001:000193c0       ??$?8DD@std@@YA_NABV?$allocator@D@0@0@Z 1001a3c0 f i Base64.obj
 0001:000193c0       ??$?8HH@std@@YA_NABV?$allocator@H@0@0@Z 1001a3c0 f i AFCSocket.obj
 0001:000193e0       ??0CRect@@QAE@HHHH@Z       1001a3e0 f i AFCSocket.obj
 0001:00019420       ??3CObject@@SGXPAX@Z       1001a420 f i AFCSocket.obj
 0001:00019440       ?Dump@CObject@@UBEXAAVCDumpContext@@@Z 1001a440 f i AFCSocket.obj
 0001:00019440       ?Serialize@CObject@@UAEXAAVCArchive@@@Z 1001a440 f i AFCSocket.obj
 0001:00019440       ?_Adopt@_Iterator_base0@std@@QAEXPBX@Z 1001a440 f i sha1.obj
 0001:00019440       ?_Compat@?$_Vector_const_iterator@V?$_Vector_val@HV?$allocator@H@std@@@std@@@std@@QBEXABV12@@Z 1001a440 f i AFCSocket.obj
 0001:00019440       ?DoDataExchange@CWnd@@MAEXPAVCDataExchange@@@Z 1001a440 f i AFCSocket.obj
 0001:00019460       ?AfxGetMainWnd@@YGPAVCWnd@@XZ 1001a460 f i AFCSocket.obj
 0001:000194a0       ?GetSafeHwnd@CWnd@@QBEPAUHWND__@@XZ 1001a4a0 f i AFCSocket.obj
 0001:000194d0       ?BeginModalState@CWnd@@UAEXXZ 1001a4d0 f i AFCSocket.obj
 0001:00019500       ?EndModalState@CWnd@@UAEXXZ 1001a500 f i AFCSocket.obj
 0001:00019530       ?IsConnect@CTCPSocketForWeb@@QAE_NXZ 1001a530 f i AFCWebSocket.obj
 0001:00019560       ?GetBeginTime@CTCPSocketForWeb@@QAEJXZ 1001a560 f i AFCWebSocket.obj
 0001:00019580       ?GetConnectData@CTCPSocketForWeb@@QAEKXZ 1001a580 f i AFCWebSocket.obj
 0001:000195a0       ?GetRecvLock@CTCPSocketForWeb@@QAEPAVCAFCSignedLock@@XZ 1001a5a0 f i AFCWebSocket.obj
 0001:000195c0       ?GetSendLock@CTCPSocketForWeb@@QAEPAVCAFCSignedLock@@XZ 1001a5c0 f i AFCWebSocket.obj
 0001:000195e0       ?SetIndex@CTCPSocket@@IAEXI@Z 1001a5e0 f i AFCDataBase.obj
 0001:000195e0       ?SetIndex@CTCPSocketForZ@@IAEXI@Z 1001a5e0 f i AFCDataBase.obj
 0001:000195e0       ?SetIndex@CTCPSocketForWeb@@IAEXI@Z 1001a5e0 f i AFCWebSocket.obj
 0001:00019600       ?SetSocketManagePtr@CTCPSocketForWeb@@IAEXPAVCTCPSocketManageForWeb@@@Z 1001a600 f i AFCWebSocket.obj
 0001:00019630       ??0CTCPSocketForWeb@@QAE@ABV0@@Z 1001a630 f i AFCWebSocket.obj
 0001:00019820       ??4CTCPSocketForWeb@@QAEAAV0@ABV0@@Z 1001a820 f i AFCWebSocket.obj
 0001:00019a50       ??_ECTCPSocketForWeb@@UAEPAXI@Z 1001aa50 f i AFCWebSocket.obj
 0001:00019ad0       ?GetListenPort@CTCPSocketManage@@QAEIXZ 1001aad0 f i AFCDataBase.obj
 0001:00019ad0       ?GetListenPort@CTCPSocketManageForWeb@@QAEIXZ 1001aad0 f i AFCWebSocket.obj
 0001:00019af0       ??_ECTCPSocketManageForWeb@@UAEPAXI@Z 1001aaf0 f i AFCWebSocket.obj
 0001:00019b70       ??0CTCPSocketForWeb@@QAE@XZ 1001ab70 f   AFCWebSocket.obj
 0001:00019d10       ??1CTCPSocketForWeb@@UAE@XZ 1001ad10 f   AFCWebSocket.obj
 0001:00019d90       ?Attach@CTCPSocketForWeb@@QAE_NIAAUsockaddr_in@@K@Z 1001ad90 f i AFCWebSocket.obj
 0001:00019f00       ?CloseSocket@CTCPSocketForWeb@@IAE_NXZ 1001af00 f i AFCWebSocket.obj
 0001:0001a0c0       ?SendData@CTCPSocketForWeb@@QAEHPBDI@Z 1001b0c0 f i AFCWebSocket.obj
 0001:0001a120       ?SendData@CTCPSocketForWeb@@QAEHEEEK@Z 1001b120 f i AFCWebSocket.obj
 0001:0001a190       ?SendData@CTCPSocketForWeb@@QAEHPAXIEEEK@Z 1001b190 f i AFCWebSocket.obj
 0001:0001a210       ?SendDataForNormal@CTCPSocketForWeb@@AAEHEEEK@Z 1001b210 f i AFCWebSocket.obj
 0001:0001a370       ?SendDataForNormal@CTCPSocketForWeb@@AAEHPAXIEEEK@Z 1001b370 f i AFCWebSocket.obj
 0001:0001a690       ?SendDataForNormal@CTCPSocketForWeb@@AAEHPBDI@Z 1001b690 f i AFCWebSocket.obj
 0001:0001a7b0       ?SendDataForWeb@CTCPSocketForWeb@@AAEHEEEK@Z 1001b7b0 f i AFCWebSocket.obj
 0001:0001a920       ?SendDataForWeb@CTCPSocketForWeb@@AAEHPAXIEEEK@Z 1001b920 f i AFCWebSocket.obj
 0001:0001ac00       ?SendDataForWeb@CTCPSocketForWeb@@AAEHPBDI@Z 1001bc00 f i AFCWebSocket.obj
 0001:0001ad30       ?CheckSendData@CTCPSocketForWeb@@IAE_NXZ 1001bd30 f i AFCWebSocket.obj
 0001:0001ae70       ?OnSendCompleted@CTCPSocketForWeb@@IAE_NKK@Z 1001be70 f i AFCWebSocket.obj
 0001:0001af90       ?OnRecvCompleted@CTCPSocketForWeb@@IAE_NK@Z 1001bf90 f i AFCWebSocket.obj
 0001:0001bbd0       ?RecvData@CTCPSocketForWeb@@IAE_NXZ 1001cbd0 f i AFCWebSocket.obj
 0001:0001bd00       ?IsConnectID@CTCPSocketForWeb@@QAE_NK@Z 1001cd00 f i AFCWebSocket.obj
 0001:0001bd40       ?HandShake@CTCPSocketForWeb@@IAE_NXZ 1001cd40 f   AFCWebSocket.obj
 0001:0001c590       ??0CTCPSocketManageForWeb@@QAE@XZ 1001d590 f   AFCWebSocket.obj
 0001:0001c710       ??1CTCPSocketManageForWeb@@UAE@XZ 1001d710 f   AFCWebSocket.obj
 0001:0001c7f0       ?Init@CTCPSocketManageForWeb@@UAE_NIIEEHPAUIServerSocketServiceForWeb@@@Z 1001d7f0 f   AFCWebSocket.obj
 0001:0001cb00       ?UnInit@CTCPSocketManageForWeb@@UAE_NXZ 1001db00 f   AFCWebSocket.obj
 0001:0001cbf0       ?Start@CTCPSocketManageForWeb@@UAE_NII@Z 1001dbf0 f   AFCWebSocket.obj
 0001:0001d5d0       ?Stop@CTCPSocketManageForWeb@@UAE_NXZ 1001e5d0 f   AFCWebSocket.obj
 0001:0001d880       ?SendData@CTCPSocketManageForWeb@@QAEHIPBDI@Z 1001e880 f i AFCWebSocket.obj
 0001:0001d8f0       ?SendData@CTCPSocketManageForWeb@@QAEHIEEEK@Z 1001e8f0 f i AFCWebSocket.obj
 0001:0001d950       ?SendData@CTCPSocketManageForWeb@@QAEHIPAXIEEEK@Z 1001e950 f i AFCWebSocket.obj
 0001:0001d9c0       ?SendData@CTCPSocketManage@@QAEHPAVCTCPSocket@@PAXIEEEK@Z 1001e9c0 f i AFCSocket.obj
 0001:0001d9c0       ?SendData@CTCPSocketManageForWeb@@QAEHPAVCTCPSocket@@PAXIEEEK@Z 1001e9c0 f i AFCWebSocket.obj
 0001:0001da10       ?SendDataBatch@CTCPSocketManageForWeb@@QAEHPAXIEEE@Z 1001ea10 f i AFCWebSocket.obj
 0001:0001da10       ?SendDataBatch@CTCPSocketManageForZ@@QAEHPAXIEEE@Z 1001ea10 f i AFCSocket.obj
 0001:0001dbb0       ?CloseSocket@CTCPSocketManageForWeb@@QAE_NIK@Z 1001ebb0 f i AFCWebSocket.obj
 0001:0001dc00       ?CloseSocket@CTCPSocketManageForWeb@@QAE_NPAVCTCPSocketForWeb@@K@Z 1001ec00 f i AFCWebSocket.obj
 0001:0001dd70       ?IsConnectID@CTCPSocketManageForWeb@@QAE_NIK@Z 1001ed70 f i AFCWebSocket.obj
 0001:0001ddc0       ?ThreadRSSocket@CTCPSocketManageForWeb@@CGIPAX@Z 1001edc0 f i AFCWebSocket.obj
 0001:0001df40       ?ThreadBatchSend@CTCPSocketManageForWeb@@CGIPAX@Z 1001ef40 f i AFCWebSocket.obj
 0001:0001e130       ?ThreadKeepActive@CTCPSocketManageForWeb@@CGIPAX@Z 1001f130 f i AFCWebSocket.obj
 0001:0001e2a0       ?AFCGetTimer@CTCPSocketManageForZ@@CA_KXZ 1001f2a0 f i AFCSocket.obj
 0001:0001e2a0       ?AFCGetTimer@CTCPSocketManage@@CA_KXZ 1001f2a0 f i AFCSocket.obj
 0001:0001e2a0       ?AFCGetTimer@CTCPSocketManageForWeb@@CA_KXZ 1001f2a0 f i AFCWebSocket.obj
 0001:0001e2c0       ?GetHandleID@CTCPSocketManageForWeb@@CAKXZ 1001f2c0 f i AFCWebSocket.obj
 0001:0001e300       ?ULongToIP@CTCPSocketManage@@SAPADKPAD@Z 1001f300 f   AFCSocket.obj
 0001:0001e300       ?ULongToIP@CTCPSocketManageForWeb@@SAPADKPAD@Z 1001f300 f   AFCWebSocket.obj
 0001:0001e300       ?ULongToIP@CTCPSocketManageForZ@@SAPADKPAD@Z 1001f300 f   AFCSocket.obj
 0001:0001e360       ?IPToULong@CTCPSocketManage@@SAKPAD@Z 1001f360 f   AFCSocket.obj
 0001:0001e360       ?IPToULong@CTCPSocketManageForWeb@@SAKPAD@Z 1001f360 f   AFCWebSocket.obj
 0001:0001e440       ?GetServerInfo@CTCPSocketManageForWeb@@QAE?AV?$basic_string@DU?$char_traits@D@std@@V?$allocator@D@2@@std@@I@Z 1001f440 f   AFCWebSocket.obj
 0001:0001e560       ?TCPSocketDelete@CTCPSocketManageForWeb@@AAE_NPAVCTCPSocketForWeb@@@Z 1001f560 f i AFCWebSocket.obj
 0001:0001e600       ?ThreadAccept@CTCPSocketManageForWeb@@CGIPAX@Z 1001f600 f i AFCWebSocket.obj
 0001:0001e7f0       ?ThreadUnionSend@CTCPSocketManageForWeb@@CGIPAX@Z 1001f7f0 f i AFCWebSocket.obj
 0001:0001eae0       ?UnionAddUser@CTCPSocketManageForZ@@QAEHII@Z 1001fae0 f i AFCSocket.obj
 0001:0001eae0       ?UnionAddUser@CTCPSocketManageForWeb@@QAEHII@Z 1001fae0 f i AFCWebSocket.obj
 0001:0001eca0       ?size@?$basic_string@DU?$char_traits@D@std@@V?$allocator@D@2@@std@@QBEIXZ 1001fca0 f i Base64.obj
 0001:0001eca0       ?length@?$basic_string@DU?$char_traits@D@std@@V?$allocator@D@2@@std@@QBEIXZ 1001fca0 f i AFCWebSocket.obj
 0001:0001eca0       ?state@?$fpos@H@std@@QBEHXZ 1001fca0 f i HNFilter.obj
 0001:0001ecc0       ?find@?$basic_string@DU?$char_traits@D@std@@V?$allocator@D@2@@std@@QBEIPBDI@Z 1001fcc0 f i AFCWebSocket.obj
 0001:0001ed00       ?find_first_of@?$basic_string@DU?$char_traits@D@std@@V?$allocator@D@2@@std@@QBEIPBDI@Z 1001fd00 f i AFCWebSocket.obj
 0001:0001ed40       ?find_first_not_of@?$basic_string@DU?$char_traits@D@std@@V?$allocator@D@2@@std@@QBEIPBDI@Z 1001fd40 f i AFCWebSocket.obj
 0001:0001ed80       ?find_last_not_of@?$basic_string@DU?$char_traits@D@std@@V?$allocator@D@2@@std@@QBEIPBDI@Z 1001fd80 f i AFCWebSocket.obj
 0001:0001edc0       ?substr@?$basic_string@DU?$char_traits@D@std@@V?$allocator@D@2@@std@@QBE?AV12@II@Z 1001fdc0 f i AFCWebSocket.obj
 0001:0001ee10       ?GetArrayItem@?$CAFCPtrArray@VCTCPSocketForWeb@@@@QAEPAVCTCPSocketForWeb@@I@Z 1001fe10 f i AFCWebSocket.obj
 0001:0001ee40       ?GetArrayLock@?$CAFCPtrArray@VCTCPSocket@@@@QAEPAVCAFCSignedLock@@XZ 1001fe40 f i AFCSocket.obj
 0001:0001ee40       ?GetArrayLock@?$CAFCPtrArray@VCTCPSocketForZ@@@@QAEPAVCAFCSignedLock@@XZ 1001fe40 f i AFCSocket.obj
 0001:0001ee40       ?GetArrayLock@?$CAFCPtrArray@VCTCPSocketForWeb@@@@QAEPAVCAFCSignedLock@@XZ 1001fe40 f i AFCWebSocket.obj
 0001:0001ee60       ??1?$vector@DV?$allocator@D@std@@@std@@QAE@XZ 1001fe60 f i AFCWebSocket.obj
 0001:0001eec0       ??A?$vector@DV?$allocator@D@std@@@std@@QAEAADI@Z 1001fec0 f i AFCWebSocket.obj
 0001:0001eee0       ??0?$basic_string@DU?$char_traits@D@std@@V?$allocator@D@2@@std@@QAE@ABV01@IIABV?$allocator@D@1@@Z 1001fee0 f i AFCWebSocket.obj
 0001:0001ef70       ?find@?$basic_string@DU?$char_traits@D@std@@V?$allocator@D@2@@std@@QBEIPBDII@Z 1001ff70 f i AFCWebSocket.obj
 0001:0001f050       ?find_first_of@?$basic_string@DU?$char_traits@D@std@@V?$allocator@D@2@@std@@QBEIPBDII@Z 10020050 f i AFCWebSocket.obj
 0001:0001f0e0       ?find_first_not_of@?$basic_string@DU?$char_traits@D@std@@V?$allocator@D@2@@std@@QBEIPBDII@Z 100200e0 f i AFCWebSocket.obj
 0001:0001f160       ?find_last_not_of@?$basic_string@DU?$char_traits@D@std@@V?$allocator@D@2@@std@@QBEIPBDII@Z 10020160 f i AFCWebSocket.obj
 0001:0001f200       ?_Tidy@?$vector@DV?$allocator@D@std@@@std@@IAEXXZ 10020200 f i AFCWebSocket.obj
 0001:0001f280       ?Init@?$CAFCPtrArray@VCTCPSocketForWeb@@@@QAE_NII@Z 10020280 f i AFCWebSocket.obj
 0001:0001f470       ?NewItem@?$CAFCPtrArray@VCTCPSocketForZ@@@@QAEPAVCTCPSocketForZ@@XZ 10020470 f i AFCSocket.obj
 0001:0001f470       ?NewItem@?$CAFCPtrArray@VCTCPSocketForWeb@@@@QAEPAVCTCPSocketForWeb@@XZ 10020470 f i AFCWebSocket.obj
 0001:0001f470       ?NewItem@?$CAFCPtrArray@VCTCPSocket@@@@QAEPAVCTCPSocket@@XZ 10020470 f i AFCSocket.obj
 0001:0001f520       ?FreeItem@?$CAFCPtrArray@VCTCPSocketForZ@@@@QAE_NPAVCTCPSocketForZ@@@Z 10020520 f i AFCSocket.obj
 0001:0001f520       ?FreeItem@?$CAFCPtrArray@VCTCPSocket@@@@QAE_NPAVCTCPSocket@@@Z 10020520 f i AFCSocket.obj
 0001:0001f520       ?FreeItem@?$CAFCPtrArray@VCTCPSocketForWeb@@@@QAE_NPAVCTCPSocketForWeb@@@Z 10020520 f i AFCWebSocket.obj
 0001:0001f5e0       ??$?9DU?$char_traits@D@std@@V?$allocator@D@1@@std@@YA_NABV?$basic_string@DU?$char_traits@D@std@@V?$allocator@D@2@@0@PBD@Z 100205e0 f i AFCWebSocket.obj
 0001:0001f610       ??$?8DU?$char_traits@D@std@@V?$allocator@D@1@@std@@YA_NABV?$basic_string@DU?$char_traits@D@std@@V?$allocator@D@2@@0@PBD@Z 10020610 f i AFCWebSocket.obj
 0001:0001f640       ?compare@?$char_traits@D@std@@SAHPBD0I@Z 10020640 f i AFCWebSocket.obj
 0001:0001f670       ?find@?$char_traits@D@std@@SAPBDPBDIABD@Z 10020670 f i AFCWebSocket.obj
 0001:0001f6a0       ??0?$basic_string@DU?$char_traits@D@std@@V?$allocator@D@2@@std@@QAE@ABV01@@Z 100206a0 f i AFCWebSocket.obj
 0001:0001f730       ?compare@?$basic_string@DU?$char_traits@D@std@@V?$allocator@D@2@@std@@QBEHPBD@Z 10020730 f i AFCWebSocket.obj
 0001:0001f770       ?compare@?$basic_string@DU?$char_traits@D@std@@V?$allocator@D@2@@std@@QBEHIIPBDI@Z 10020770 f i AFCWebSocket.obj
 0001:0001f820       ??_ECDataLine@@UAEPAXI@Z   10020820 f i DataLine.obj
 0001:0001f8a0       ??0CDataLine@@QAE@XZ       100208a0 f   DataLine.obj
 0001:0001f910       ??1CDataLine@@UAE@XZ       10020910 f   DataLine.obj
 0001:0001f9e0       ?AddData@CDataLine@@UAEIPAUDataLineHead@@IIPAXI@Z 100209e0 f   DataLine.obj
 0001:0001fb60       ?GetData@CDataLine@@UAEIPAUDataLineHead@@I@Z 10020b60 f   DataLine.obj
 0001:0001fc70       ?CleanLineData@CDataLine@@QAE_NXZ 10020c70 f   DataLine.obj
 0001:0001fd40       ?GetDataCount@CDataLine@@QAEHXZ 10020d40 f   DataLine.obj
 0001:0001fdc0       ??0?$CList@PAUListItemData@@PAU1@@@QAE@H@Z 10020dc0 f i DataLine.obj
 0001:0001fe30       ?GetCount@?$CList@PAUListItemData@@PAU1@@@QBEHXZ 10020e30 f i DataLine.obj
 0001:0001fe50       ?GetHead@?$CList@PAUListItemData@@PAU1@@@QAEAAPAUListItemData@@XZ 10020e50 f i DataLine.obj
 0001:0001fe90       ?RemoveHead@?$CList@PAUListItemData@@PAU1@@@QAEPAUListItemData@@XZ 10020e90 f i DataLine.obj
 0001:0001ff10       ?AddTail@?$CList@PAUListItemData@@PAU1@@@QAEPAU__POSITION@@PAUListItemData@@@Z 10020f10 f i DataLine.obj
 0001:0001ff70       ??1?$CList@PAUListItemData@@PAU1@@@UAE@XZ 10020f70 f i DataLine.obj
 0001:0001ffe0       ?Serialize@?$CList@PAUListItemData@@PAU1@@@UAEXAAVCArchive@@@Z 10020fe0 f i DataLine.obj
 0001:00020090       ??_E?$CList@PAUListItemData@@PAU1@@@UAEPAXI@Z 10021090 f i DataLine.obj
 0001:00020090       ??_G?$CList@PAUListItemData@@PAU1@@@UAEPAXI@Z 10021090 f i DataLine.obj
 0001:000200d0       ?RemoveAll@?$CList@PAUListItemData@@PAU1@@@QAEXXZ 100210d0 f i DataLine.obj
 0001:00020140       ?NewNode@?$CList@PAUListItemData@@PAU1@@@IAEPAUCNode@1@PAU21@0@Z 10021140 f i DataLine.obj
 0001:00020240       ?FreeNode@?$CList@PAUListItemData@@PAU1@@@IAEXPAUCNode@1@@Z 10021240 f i DataLine.obj
 0001:00020290       ??$SerializeElements@PAUListItemData@@@@YGXAAVCArchive@@PAPAUListItemData@@H@Z 10021290 f i DataLine.obj
 0001:000203a0       ?IsStoring@CArchive@@QBEHXZ 100213a0 f i DataLine.obj
 0001:000203d0       ?EnsureRead@CArchive@@QAEXPAXI@Z 100213d0 f i DataLine.obj
 0001:00020410       ?data@CPlex@@QAEPAXXZ      10021410 f i DataLine.obj
 0001:00020430       _fastlz_compress           10021430 f   fastlz.obj
 0001:00021590       _fastlz_decompress         10022590 f   fastlz.obj
 0001:00021d80       ??1HNFilter@@QAE@XZ        10022d80 f i HNFilter.obj
 0001:00021da0       ??0HNFilter@@QAE@ABV0@@Z   10022da0 f i HNFilter.obj
 0001:00021dd0       ??4HNFilter@@QAEAAV0@ABV0@@Z 10022dd0 f i HNFilter.obj
 0001:00021e00       ??1HNTree@@QAE@XZ          10022e00 f i HNFilter.obj
 0001:00021e20       ??1HNTreeNode@@QAE@XZ      10022e20 f i HNFilter.obj
 0001:00021e80       ??1?$map@V?$basic_string@DU?$char_traits@D@std@@V?$allocator@D@2@@std@@VHNTreeNode@@U?$less@V?$basic_string@DU?$char_traits@D@std@@V?$allocator@D@2@@std@@@2@V?$allocator@U?$pair@$$CBV?$basic_string@DU?$char_traits@D@std@@V?$allocator@D@2@@std@@VHNTreeNode@@@std@@@2@@std@@QAE@XZ 10022e80 f i HNFilter.obj
 0001:00021ea0       ??0HNTree@@QAE@ABV0@@Z     10022ea0 f i HNFilter.obj
 0001:00021ee0       ??4HNTree@@QAEAAV0@ABV0@@Z 10022ee0 f i HNFilter.obj
 0001:00021f20       ??0HNTreeNode@@QAE@ABV0@@Z 10022f20 f i HNFilter.obj
 0001:00021fa0       ??4HNTreeNode@@QAEAAV0@ABV0@@Z 10022fa0 f i HNFilter.obj
 0001:00021ff0       ??0HNFilter@@QAE@XZ        10022ff0 f   HNFilter.obj
 0001:00022060       ??0HNTree@@QAE@XZ          10023060 f i HNFilter.obj
 0001:00022090       ??0HNTreeNode@@QAE@XZ      10023090 f i HNFilter.obj
 0001:00022110       ?load@HNFilter@@QAEXPBD@Z  10023110 f   HNFilter.obj
 0001:00022300       ??_D?$basic_ifstream@DU?$char_traits@D@std@@@std@@QAEXXZ 10023300 f i HNFilter.obj
 0001:00022330       ?censor@HNFilter@@QAE_NAAV?$basic_string@DU?$char_traits@D@std@@V?$allocator@D@2@@std@@_N@Z 10023330 f   HNFilter.obj
 0001:000226a0       ?OnUnInit@HNFilter@@QAEXXZ 100236a0 f   HNFilter.obj
 0001:000226c0       ?replace@?$basic_string@DU?$char_traits@D@std@@V?$allocator@D@2@@std@@QAEAAV12@IIPBD@Z 100236c0 f i HNFilter.obj
 0001:00022700       ??0?$map@V?$basic_string@DU?$char_traits@D@std@@V?$allocator@D@2@@std@@VHNTreeNode@@U?$less@V?$basic_string@DU?$char_traits@D@std@@V?$allocator@D@2@@std@@@2@V?$allocator@U?$pair@$$CBV?$basic_string@DU?$char_traits@D@std@@V?$allocator@D@2@@std@@VHNTreeNode@@@std@@@2@@std@@QAE@XZ 10023700 f i HNFilter.obj
 0001:00022730       ??0?$map@V?$basic_string@DU?$char_traits@D@std@@V?$allocator@D@2@@std@@VHNTreeNode@@U?$less@V?$basic_string@DU?$char_traits@D@std@@V?$allocator@D@2@@std@@@2@V?$allocator@U?$pair@$$CBV?$basic_string@DU?$char_traits@D@std@@V?$allocator@D@2@@std@@VHNTreeNode@@@std@@@2@@std@@QAE@ABV01@@Z 10023730 f i HNFilter.obj
 0001:00022760       ??4?$map@V?$basic_string@DU?$char_traits@D@std@@V?$allocator@D@2@@std@@VHNTreeNode@@U?$less@V?$basic_string@DU?$char_traits@D@std@@V?$allocator@D@2@@std@@@2@V?$allocator@U?$pair@$$CBV?$basic_string@DU?$char_traits@D@std@@V?$allocator@D@2@@std@@VHNTreeNode@@@std@@@2@@std@@QAEAAV01@ABV01@@Z 10023760 f i HNFilter.obj
 0001:00022790       ??1?$_Tree@V?$_Tmap_traits@V?$basic_string@DU?$char_traits@D@std@@V?$allocator@D@2@@std@@VHNTreeNode@@U?$less@V?$basic_string@DU?$char_traits@D@std@@V?$allocator@D@2@@std@@@2@V?$allocator@U?$pair@$$CBV?$basic_string@DU?$char_traits@D@std@@V?$allocator@D@2@@std@@VHNTreeNode@@@std@@@2@$0A@@std@@@std@@QAE@XZ 10023790 f i HNFilter.obj
 0001:000227f0       ??0?$basic_ifstream@DU?$char_traits@D@std@@@std@@QAE@PBDHH@Z 100237f0 f i HNFilter.obj
 0001:000228e0       ??1?$basic_ifstream@DU?$char_traits@D@std@@@std@@UAE@XZ 100238e0 f i HNFilter.obj
 0001:00022960       ?is_open@?$basic_ifstream@DU?$char_traits@D@std@@@std@@QBE_NXZ 10023960 f i HNFilter.obj
 0001:00022980       ?close@?$basic_ifstream@DU?$char_traits@D@std@@@std@@QAEXXZ 10023980 f i HNFilter.obj
 0001:000229c0       ??1?$basic_filebuf@DU?$char_traits@D@std@@@std@@UAE@XZ 100239c0 f i HNFilter.obj
 0001:00022a50       ?_Lock@?$basic_filebuf@DU?$char_traits@D@std@@@std@@UAEXXZ 10023a50 f i HNFilter.obj
 0001:00022a80       ?_Unlock@?$basic_filebuf@DU?$char_traits@D@std@@@std@@UAEXXZ 10023a80 f i HNFilter.obj
 0001:00022ab0       ?overflow@?$basic_filebuf@DU?$char_traits@D@std@@@std@@MAEHH@Z 10023ab0 f i HNFilter.obj
 0001:00022e30       ??$_Fputc@D@std@@YA_NDPAU_iobuf@@@Z 10023e30 f i HNFilter.obj
 0001:00022e60       ?pbackfail@?$basic_filebuf@DU?$char_traits@D@std@@@std@@MAEHH@Z 10023e60 f i HNFilter.obj
 0001:00022fb0       ??$_Ungetc@D@std@@YA_NABDPAU_iobuf@@@Z 10023fb0 f i HNFilter.obj
 0001:00022ff0       ?underflow@?$basic_filebuf@DU?$char_traits@D@std@@@std@@MAEHXZ 10023ff0 f i HNFilter.obj
 0001:00023090       ?uflow@?$basic_filebuf@DU?$char_traits@D@std@@@std@@MAEHXZ 10024090 f i HNFilter.obj
 0001:000233d0       ??$_Fgetc@D@std@@YA_NAADPAU_iobuf@@@Z 100243d0 f i HNFilter.obj
 0001:00023410       ?seekoff@?$basic_filebuf@DU?$char_traits@D@std@@@std@@MAE?AV?$fpos@H@2@_JHH@Z 10024410 f i HNFilter.obj
 0001:00023500       ?seekpos@?$basic_filebuf@DU?$char_traits@D@std@@@std@@MAE?AV?$fpos@H@2@V32@H@Z 10024500 f i HNFilter.obj
 0001:00023600       ?setbuf@?$basic_filebuf@DU?$char_traits@D@std@@@std@@MAEPAV?$basic_streambuf@DU?$char_traits@D@std@@@2@PAD_J@Z 10024600 f i HNFilter.obj
 0001:00023680       ?sync@?$basic_filebuf@DU?$char_traits@D@std@@@std@@MAEHXZ 10024680 f i HNFilter.obj
 0001:00023700       ?imbue@?$basic_filebuf@DU?$char_traits@D@std@@@std@@MAEXABVlocale@2@@Z 10024700 f i HNFilter.obj
 0001:00023730       ??_E?$basic_ifstream@DU?$char_traits@D@std@@@std@@UAEPAXI@Z 10024730 f i HNFilter.obj
 0001:00023730       ??_G?$basic_ifstream@DU?$char_traits@D@std@@@std@@UAEPAXI@Z 10024730 f i HNFilter.obj
 0001:00023770       ??_G?$basic_filebuf@DU?$char_traits@D@std@@@std@@UAEPAXI@Z 10024770 f i HNFilter.obj
 0001:00023770       ??_E?$basic_filebuf@DU?$char_traits@D@std@@@std@@UAEPAXI@Z 10024770 f i HNFilter.obj
 0001:000237b0       ?replace@?$basic_string@DU?$char_traits@D@std@@V?$allocator@D@2@@std@@QAEAAV12@IIPBDI@Z 100247b0 f i HNFilter.obj
 0001:00023920       ??0?$fpos@H@std@@QAE@H_J@Z 10024920 f i HNFilter.obj
 0001:00023960       ?seekpos@?$fpos@H@std@@QBE_JXZ 10024960 f i HNFilter.obj
 0001:00023980       ??B?$fpos@H@std@@QBE_JXZ   10024980 f i HNFilter.obj
 0001:000239b0       ??0?$_Tree@V?$_Tmap_traits@V?$basic_string@DU?$char_traits@D@std@@V?$allocator@D@2@@std@@VHNTreeNode@@U?$less@V?$basic_string@DU?$char_traits@D@std@@V?$allocator@D@2@@std@@@2@V?$allocator@U?$pair@$$CBV?$basic_string@DU?$char_traits@D@std@@V?$allocator@D@2@@std@@VHNTreeNode@@@std@@@2@$0A@@std@@@std@@QAE@ABU?$less@V?$basic_string@DU?$char_traits@D@std@@V?$allocator@D@2@@std@@@1@ABV?$allocator@U?$pair@$$CBV?$basic_string@DU?$char_traits@D@std@@V?$allocator@D@2@@std@@VHNTreeNode@@@std@@@1@@Z 100249b0 f i HNFilter.obj
 0001:000239f0       ??0?$_Tree@V?$_Tmap_traits@V?$basic_string@DU?$char_traits@D@std@@V?$allocator@D@2@@std@@VHNTreeNode@@U?$less@V?$basic_string@DU?$char_traits@D@std@@V?$allocator@D@2@@std@@@2@V?$allocator@U?$pair@$$CBV?$basic_string@DU?$char_traits@D@std@@V?$allocator@D@2@@std@@VHNTreeNode@@@std@@@2@$0A@@std@@@std@@QAE@ABV01@@Z 100249f0 f i HNFilter.obj
 0001:00023ab0       ??4?$_Tree@V?$_Tmap_traits@V?$basic_string@DU?$char_traits@D@std@@V?$allocator@D@2@@std@@VHNTreeNode@@U?$less@V?$basic_string@DU?$char_traits@D@std@@V?$allocator@D@2@@std@@@2@V?$allocator@U?$pair@$$CBV?$basic_string@DU?$char_traits@D@std@@V?$allocator@D@2@@std@@VHNTreeNode@@@std@@@2@$0A@@std@@@std@@QAEAAV01@ABV01@@Z 10024ab0 f i HNFilter.obj
 0001:00023b20       ?_Tidy@?$_Tree@V?$_Tmap_traits@V?$basic_string@DU?$char_traits@D@std@@V?$allocator@D@2@@std@@VHNTreeNode@@U?$less@V?$basic_string@DU?$char_traits@D@std@@V?$allocator@D@2@@std@@@2@V?$allocator@U?$pair@$$CBV?$basic_string@DU?$char_traits@D@std@@V?$allocator@D@2@@std@@VHNTreeNode@@@std@@@2@$0A@@std@@@std@@IAEXXZ 10024b20 f i HNFilter.obj
 0001:00023b70       ??0?$basic_filebuf@DU?$char_traits@D@std@@@std@@QAE@PAU_iobuf@@@Z 10024b70 f i HNFilter.obj
 0001:00023be0       ?is_open@?$basic_filebuf@DU?$char_traits@D@std@@@std@@QBE_NXZ 10024be0 f i HNFilter.obj
 0001:00023c10       ?open@?$basic_filebuf@DU?$char_traits@D@std@@@std@@QAEPAV12@PBDHH@Z 10024c10 f i HNFilter.obj
 0001:00023cd0       ?close@?$basic_filebuf@DU?$char_traits@D@std@@@std@@QAEPAV12@XZ 10024cd0 f i HNFilter.obj
 0001:00023d40       ?_Init@?$basic_filebuf@DU?$char_traits@D@std@@@std@@IAEXPAU_iobuf@@W4_Initfl@12@@Z 10024d40 f i HNFilter.obj
 0001:00023df0       ?_Endwrite@?$basic_filebuf@DU?$char_traits@D@std@@@std@@IAE_NXZ 10024df0 f i HNFilter.obj
 0001:00024030       ?_Initcvt@?$basic_filebuf@DU?$char_traits@D@std@@@std@@IAEXPBV?$codecvt@DDH@2@@Z 10025030 f i HNFilter.obj
 0001:00024080       ?_Reset_back@?$basic_filebuf@DU?$char_traits@D@std@@@std@@AAEXXZ 10025080 f i HNFilter.obj
 0001:000240d0       ?_Set_back@?$basic_filebuf@DU?$char_traits@D@std@@@std@@AAEXXZ 100250d0 f i HNFilter.obj
 0001:00024140       ??D?$_Vector_iterator@V?$_Vector_val@HV?$allocator@H@std@@@std@@@std@@QBEAAHXZ 10025140 f i AFCSocket.obj
 0001:00024140       ??D?$_String_iterator@DU?$char_traits@D@std@@V?$allocator@D@2@@std@@QBEAADXZ 10025140 f i HNFilter.obj
 0001:00024160       ?replace@?$basic_string@DU?$char_traits@D@std@@V?$allocator@D@2@@std@@QAEAAV12@IIABV12@II@Z 10025160 f i HNFilter.obj
 0001:00024420       ??D?$_Vector_const_iterator@V?$_Vector_val@HV?$allocator@H@std@@@std@@@std@@QBEABHXZ 10025420 f i AFCSocket.obj
 0001:00024420       ??D?$_String_const_iterator@DU?$char_traits@D@std@@V?$allocator@D@2@@std@@QBEABDXZ 10025420 f i HNFilter.obj
 0001:00024440       ?begin@?$_Tree@V?$_Tmap_traits@V?$CStringT@DV?$StrTraitMFC_DLL@DV?$ChTraitsCRT@D@ATL@@@@@ATL@@PAVCBcfFileNameItem@@U?$less@V?$CStringT@DV?$StrTraitMFC_DLL@DV?$ChTraitsCRT@D@ATL@@@@@ATL@@@std@@V?$allocator@U?$pair@$$CBV?$CStringT@DV?$StrTraitMFC_DLL@DV?$ChTraitsCRT@D@ATL@@@@@ATL@@PAVCBcfFileNameItem@@@std@@@5@$0A@@std@@@std@@QAE?AV?$_Tree_iterator@V?$_Tree_val@V?$_Tmap_traits@V?$CStringT@DV?$StrTraitMFC_DLL@DV?$ChTraitsCRT@D@ATL@@@@@ATL@@PAVCBcfFileNameItem@@U?$less@V?$CStringT@DV?$StrTraitMFC_DLL@DV?$ChTraitsCRT@D@ATL@@@@@ATL@@@std@@V?$allocator@U?$pair@$$CBV?$CStringT@DV?$StrTraitMFC_DLL@DV?$ChTraitsCRT@D@ATL@@@@@ATL@@PAVCBcfFileNameItem@@@std@@@5@$0A@@std@@@std@@@2@XZ 10025440 f i MainManage.obj
 0001:00024440       ?begin@?$_Tree@V?$_Tmap_traits@V?$CStringT@DV?$StrTraitMFC_DLL@DV?$ChTraitsCRT@D@ATL@@@@@ATL@@PAVCBcfListItem@@U?$less@V?$CStringT@DV?$StrTraitMFC_DLL@DV?$ChTraitsCRT@D@ATL@@@@@ATL@@@std@@V?$allocator@U?$pair@$$CBV?$CStringT@DV?$StrTraitMFC_DLL@DV?$ChTraitsCRT@D@ATL@@@@@ATL@@PAVCBcfListItem@@@std@@@5@$0A@@std@@@std@@QAE?AV?$_Tree_iterator@V?$_Tree_val@V?$_Tmap_traits@V?$CStringT@DV?$StrTraitMFC_DLL@DV?$ChTraitsCRT@D@ATL@@@@@ATL@@PAVCBcfListItem@@U?$less@V?$CStringT@DV?$StrTraitMFC_DLL@DV?$ChTraitsCRT@D@ATL@@@@@ATL@@@std@@V?$allocator@U?$pair@$$CBV?$CStringT@DV?$StrTraitMFC_DLL@DV?$ChTraitsCRT@D@ATL@@@@@ATL@@PAVCBcfListItem@@@std@@@5@$0A@@std@@@std@@@2@XZ 10025440 f i MainManage.obj
 0001:00024440       ?begin@?$_Tree@V?$_Tmap_traits@HV?$vector@HV?$allocator@H@std@@@std@@U?$less@H@2@V?$allocator@U?$pair@$$CBHV?$vector@HV?$allocator@H@std@@@std@@@std@@@2@$0A@@std@@@std@@QAE?AV?$_Tree_iterator@V?$_Tree_val@V?$_Tmap_traits@HV?$vector@HV?$allocator@H@std@@@std@@U?$less@H@2@V?$allocator@U?$pair@$$CBHV?$vector@HV?$allocator@H@std@@@std@@@std@@@2@$0A@@std@@@std@@@2@XZ 10025440 f i AFCSocket.obj
 0001:00024440       ?begin@?$_Tree@V?$_Tmap_traits@V?$basic_string@DU?$char_traits@D@std@@V?$allocator@D@2@@std@@VHNTreeNode@@U?$less@V?$basic_string@DU?$char_traits@D@std@@V?$allocator@D@2@@std@@@2@V?$allocator@U?$pair@$$CBV?$basic_string@DU?$char_traits@D@std@@V?$allocator@D@2@@std@@VHNTreeNode@@@std@@@2@$0A@@std@@@std@@QAE?AV?$_Tree_iterator@V?$_Tree_val@V?$_Tmap_traits@V?$basic_string@DU?$char_traits@D@std@@V?$allocator@D@2@@std@@VHNTreeNode@@U?$less@V?$basic_string@DU?$char_traits@D@std@@V?$allocator@D@2@@std@@@2@V?$allocator@U?$pair@$$CBV?$basic_string@DU?$char_traits@D@std@@V?$allocator@D@2@@std@@VHNTreeNode@@@std@@@2@$0A@@std@@@std@@@2@XZ 10025440 f i HNFilter.obj
 0001:00024470       ?key_comp@?$_Tree@V?$_Tmap_traits@V?$basic_string@DU?$char_traits@D@std@@V?$allocator@D@2@@std@@VHNTreeNode@@U?$less@V?$basic_string@DU?$char_traits@D@std@@V?$allocator@D@2@@std@@@2@V?$allocator@U?$pair@$$CBV?$basic_string@DU?$char_traits@D@std@@V?$allocator@D@2@@std@@VHNTreeNode@@@std@@@2@$0A@@std@@@std@@QBE?AU?$less@V?$basic_string@DU?$char_traits@D@std@@V?$allocator@D@2@@std@@@2@XZ 10025470 f i HNFilter.obj
 0001:00024490       ?erase@?$_Tree@V?$_Tmap_traits@V?$basic_string@DU?$char_traits@D@std@@V?$allocator@D@2@@std@@VHNTreeNode@@U?$less@V?$basic_string@DU?$char_traits@D@std@@V?$allocator@D@2@@std@@@2@V?$allocator@U?$pair@$$CBV?$basic_string@DU?$char_traits@D@std@@V?$allocator@D@2@@std@@VHNTreeNode@@@std@@@2@$0A@@std@@@std@@QAE?AV?$_Tree_iterator@V?$_Tree_val@V?$_Tmap_traits@V?$basic_string@DU?$char_traits@D@std@@V?$allocator@D@2@@std@@VHNTreeNode@@U?$less@V?$basic_string@DU?$char_traits@D@std@@V?$allocator@D@2@@std@@@2@V?$allocator@U?$pair@$$CBV?$basic_string@DU?$char_traits@D@std@@V?$allocator@D@2@@std@@VHNTreeNode@@@std@@@2@$0A@@std@@@std@@@2@V?$_Tree_const_iterator@V?$_Tree_val@V?$_Tmap_traits@V?$basic_string@DU?$char_traits@D@std@@V?$allocator@D@2@@std@@VHNTreeNode@@U?$less@V?$basic_string@DU?$char_traits@D@std@@V?$allocator@D@2@@std@@@2@V?$allocator@U?$pair@$$CBV?$basic_string@DU?$char_traits@D@std@@V?$allocator@D@2@@std@@VHNTreeNode@@@std@@@2@$0A@@std@@@std@@@2@0@Z 10025490 f i HNFilter.obj
 0001:00024540       ?_Copy@?$_Tree@V?$_Tmap_traits@V?$basic_string@DU?$char_traits@D@std@@V?$allocator@D@2@@std@@VHNTreeNode@@U?$less@V?$basic_string@DU?$char_traits@D@std@@V?$allocator@D@2@@std@@@2@V?$allocator@U?$pair@$$CBV?$basic_string@DU?$char_traits@D@std@@V?$allocator@D@2@@std@@VHNTreeNode@@@std@@@2@$0A@@std@@@std@@IAEXABV12@@Z 10025540 f i HNFilter.obj
 0001:00024610       ??0?$_Tree_val@V?$_Tmap_traits@V?$basic_string@DU?$char_traits@D@std@@V?$allocator@D@2@@std@@VHNTreeNode@@U?$less@V?$basic_string@DU?$char_traits@D@std@@V?$allocator@D@2@@std@@@2@V?$allocator@U?$pair@$$CBV?$basic_string@DU?$char_traits@D@std@@V?$allocator@D@2@@std@@VHNTreeNode@@@std@@@2@$0A@@std@@@std@@QAE@ABU?$less@V?$basic_string@DU?$char_traits@D@std@@V?$allocator@D@2@@std@@@1@V?$allocator@U?$pair@$$CBV?$basic_string@DU?$char_traits@D@std@@V?$allocator@D@2@@std@@VHNTreeNode@@@std@@@1@@Z 10025610 f i HNFilter.obj
 0001:000246d0       ?erase@?$_Tree@V?$_Tmap_traits@V?$basic_string@DU?$char_traits@D@std@@V?$allocator@D@2@@std@@VHNTreeNode@@U?$less@V?$basic_string@DU?$char_traits@D@std@@V?$allocator@D@2@@std@@@2@V?$allocator@U?$pair@$$CBV?$basic_string@DU?$char_traits@D@std@@V?$allocator@D@2@@std@@VHNTreeNode@@@std@@@2@$0A@@std@@@std@@QAE?AV?$_Tree_iterator@V?$_Tree_val@V?$_Tmap_traits@V?$basic_string@DU?$char_traits@D@std@@V?$allocator@D@2@@std@@VHNTreeNode@@U?$less@V?$basic_string@DU?$char_traits@D@std@@V?$allocator@D@2@@std@@@2@V?$allocator@U?$pair@$$CBV?$basic_string@DU?$char_traits@D@std@@V?$allocator@D@2@@std@@VHNTreeNode@@@std@@@2@$0A@@std@@@std@@@2@V?$_Tree_const_iterator@V?$_Tree_val@V?$_Tmap_traits@V?$basic_string@DU?$char_traits@D@std@@V?$allocator@D@2@@std@@VHNTreeNode@@U?$less@V?$basic_string@DU?$char_traits@D@std@@V?$allocator@D@2@@std@@@2@V?$allocator@U?$pair@$$CBV?$basic_string@DU?$char_traits@D@std@@V?$allocator@D@2@@std@@VHNTreeNode@@@std@@@2@$0A@@std@@@std@@@2@@Z 100256d0 f i HNFilter.obj
 0001:00024e60       ?clear@?$_Tree@V?$_Tmap_traits@V?$basic_string@DU?$char_traits@D@std@@V?$allocator@D@2@@std@@VHNTreeNode@@U?$less@V?$basic_string@DU?$char_traits@D@std@@V?$allocator@D@2@@std@@@2@V?$allocator@U?$pair@$$CBV?$basic_string@DU?$char_traits@D@std@@V?$allocator@D@2@@std@@VHNTreeNode@@@std@@@2@$0A@@std@@@std@@QAEXXZ 10025e60 f i HNFilter.obj
 0001:00024ec0       ?_Copy@?$_Tree@V?$_Tmap_traits@V?$basic_string@DU?$char_traits@D@std@@V?$allocator@D@2@@std@@VHNTreeNode@@U?$less@V?$basic_string@DU?$char_traits@D@std@@V?$allocator@D@2@@std@@@2@V?$allocator@U?$pair@$$CBV?$basic_string@DU?$char_traits@D@std@@V?$allocator@D@2@@std@@VHNTreeNode@@@std@@@2@$0A@@std@@@std@@IAEPAU_Node@?$_Tree_nod@V?$_Tmap_traits@V?$basic_string@DU?$char_traits@D@std@@V?$allocator@D@2@@std@@VHNTreeNode@@U?$less@V?$basic_string@DU?$char_traits@D@std@@V?$allocator@D@2@@std@@@2@V?$allocator@U?$pair@$$CBV?$basic_string@DU?$char_traits@D@std@@V?$allocator@D@2@@std@@VHNTreeNode@@@std@@@2@$0A@@std@@@2@PAU342@0@Z 10025ec0 f i HNFilter.obj
 0001:00025020       ?_Lmost@?$_Tree@V?$_Tmap_traits@V?$basic_string@DU?$char_traits@D@std@@V?$allocator@D@2@@std@@VHNTreeNode@@U?$less@V?$basic_string@DU?$char_traits@D@std@@V?$allocator@D@2@@std@@@2@V?$allocator@U?$pair@$$CBV?$basic_string@DU?$char_traits@D@std@@V?$allocator@D@2@@std@@VHNTreeNode@@@std@@@2@$0A@@std@@@std@@IBEAAPAU_Node@?$_Tree_nod@V?$_Tmap_traits@V?$basic_string@DU?$char_traits@D@std@@V?$allocator@D@2@@std@@VHNTreeNode@@U?$less@V?$basic_string@DU?$char_traits@D@std@@V?$allocator@D@2@@std@@@2@V?$allocator@U?$pair@$$CBV?$basic_string@DU?$char_traits@D@std@@V?$allocator@D@2@@std@@VHNTreeNode@@@std@@@2@$0A@@std@@@2@XZ 10026020 f i HNFilter.obj
 0001:00025020       ?_Lmost@?$_Tree@V?$_Tmap_traits@V?$CStringT@DV?$StrTraitMFC_DLL@DV?$ChTraitsCRT@D@ATL@@@@@ATL@@PAVCBcfFileNameItem@@U?$less@V?$CStringT@DV?$StrTraitMFC_DLL@DV?$ChTraitsCRT@D@ATL@@@@@ATL@@@std@@V?$allocator@U?$pair@$$CBV?$CStringT@DV?$StrTraitMFC_DLL@DV?$ChTraitsCRT@D@ATL@@@@@ATL@@PAVCBcfFileNameItem@@@std@@@5@$0A@@std@@@std@@IBEAAPAU_Node@?$_Tree_nod@V?$_Tmap_traits@V?$CStringT@DV?$StrTraitMFC_DLL@DV?$ChTraitsCRT@D@ATL@@@@@ATL@@PAVCBcfFileNameItem@@U?$less@V?$CStringT@DV?$StrTraitMFC_DLL@DV?$ChTraitsCRT@D@ATL@@@@@ATL@@@std@@V?$allocator@U?$pair@$$CBV?$CStringT@DV?$StrTraitMFC_DLL@DV?$ChTraitsCRT@D@ATL@@@@@ATL@@PAVCBcfFileNameItem@@@std@@@5@$0A@@std@@@2@XZ 10026020 f i MainManage.obj
 0001:00025020       ?_Lmost@?$_Tree@V?$_Tmap_traits@V?$CStringT@DV?$StrTraitMFC_DLL@DV?$ChTraitsCRT@D@ATL@@@@@ATL@@PAVCBcfListItem@@U?$less@V?$CStringT@DV?$StrTraitMFC_DLL@DV?$ChTraitsCRT@D@ATL@@@@@ATL@@@std@@V?$allocator@U?$pair@$$CBV?$CStringT@DV?$StrTraitMFC_DLL@DV?$ChTraitsCRT@D@ATL@@@@@ATL@@PAVCBcfListItem@@@std@@@5@$0A@@std@@@std@@IBEAAPAU_Node@?$_Tree_nod@V?$_Tmap_traits@V?$CStringT@DV?$StrTraitMFC_DLL@DV?$ChTraitsCRT@D@ATL@@@@@ATL@@PAVCBcfListItem@@U?$less@V?$CStringT@DV?$StrTraitMFC_DLL@DV?$ChTraitsCRT@D@ATL@@@@@ATL@@@std@@V?$allocator@U?$pair@$$CBV?$CStringT@DV?$StrTraitMFC_DLL@DV?$ChTraitsCRT@D@ATL@@@@@ATL@@PAVCBcfListItem@@@std@@@5@$0A@@std@@@2@XZ 10026020 f i MainManage.obj
 0001:00025020       ?_Lmost@?$_Tree@V?$_Tmap_traits@HV?$vector@HV?$allocator@H@std@@@std@@U?$less@H@2@V?$allocator@U?$pair@$$CBHV?$vector@HV?$allocator@H@std@@@std@@@std@@@2@$0A@@std@@@std@@IBEAAPAU_Node@?$_Tree_nod@V?$_Tmap_traits@HV?$vector@HV?$allocator@H@std@@@std@@U?$less@H@2@V?$allocator@U?$pair@$$CBHV?$vector@HV?$allocator@H@std@@@std@@@std@@@2@$0A@@std@@@2@XZ 10026020 f i AFCSocket.obj
 0001:00025050       ?_Rmost@?$_Tree@V?$_Tmap_traits@HV?$vector@HV?$allocator@H@std@@@std@@U?$less@H@2@V?$allocator@U?$pair@$$CBHV?$vector@HV?$allocator@H@std@@@std@@@std@@@2@$0A@@std@@@std@@IBEAAPAU_Node@?$_Tree_nod@V?$_Tmap_traits@HV?$vector@HV?$allocator@H@std@@@std@@U?$less@H@2@V?$allocator@U?$pair@$$CBHV?$vector@HV?$allocator@H@std@@@std@@@std@@@2@$0A@@std@@@2@XZ 10026050 f i AFCSocket.obj
 0001:00025050       ?_Rmost@?$_Tree@V?$_Tmap_traits@V?$basic_string@DU?$char_traits@D@std@@V?$allocator@D@2@@std@@VHNTreeNode@@U?$less@V?$basic_string@DU?$char_traits@D@std@@V?$allocator@D@2@@std@@@2@V?$allocator@U?$pair@$$CBV?$basic_string@DU?$char_traits@D@std@@V?$allocator@D@2@@std@@VHNTreeNode@@@std@@@2@$0A@@std@@@std@@IBEAAPAU_Node@?$_Tree_nod@V?$_Tmap_traits@V?$basic_string@DU?$char_traits@D@std@@V?$allocator@D@2@@std@@VHNTreeNode@@U?$less@V?$basic_string@DU?$char_traits@D@std@@V?$allocator@D@2@@std@@@2@V?$allocator@U?$pair@$$CBV?$basic_string@DU?$char_traits@D@std@@V?$allocator@D@2@@std@@VHNTreeNode@@@std@@@2@$0A@@std@@@2@XZ 10026050 f i HNFilter.obj
 0001:00025050       ?_Rmost@?$_Tree@V?$_Tmap_traits@V?$CStringT@DV?$StrTraitMFC_DLL@DV?$ChTraitsCRT@D@ATL@@@@@ATL@@PAVCBcfFileNameItem@@U?$less@V?$CStringT@DV?$StrTraitMFC_DLL@DV?$ChTraitsCRT@D@ATL@@@@@ATL@@@std@@V?$allocator@U?$pair@$$CBV?$CStringT@DV?$StrTraitMFC_DLL@DV?$ChTraitsCRT@D@ATL@@@@@ATL@@PAVCBcfFileNameItem@@@std@@@5@$0A@@std@@@std@@IBEAAPAU_Node@?$_Tree_nod@V?$_Tmap_traits@V?$CStringT@DV?$StrTraitMFC_DLL@DV?$ChTraitsCRT@D@ATL@@@@@ATL@@PAVCBcfFileNameItem@@U?$less@V?$CStringT@DV?$StrTraitMFC_DLL@DV?$ChTraitsCRT@D@ATL@@@@@ATL@@@std@@V?$allocator@U?$pair@$$CBV?$CStringT@DV?$StrTraitMFC_DLL@DV?$ChTraitsCRT@D@ATL@@@@@ATL@@PAVCBcfFileNameItem@@@std@@@5@$0A@@std@@@2@XZ 10026050 f i MainManage.obj
 0001:00025050       ?_Rmost@?$_Tree@V?$_Tmap_traits@V?$CStringT@DV?$StrTraitMFC_DLL@DV?$ChTraitsCRT@D@ATL@@@@@ATL@@PAVCBcfListItem@@U?$less@V?$CStringT@DV?$StrTraitMFC_DLL@DV?$ChTraitsCRT@D@ATL@@@@@ATL@@@std@@V?$allocator@U?$pair@$$CBV?$CStringT@DV?$StrTraitMFC_DLL@DV?$ChTraitsCRT@D@ATL@@@@@ATL@@PAVCBcfListItem@@@std@@@5@$0A@@std@@@std@@IBEAAPAU_Node@?$_Tree_nod@V?$_Tmap_traits@V?$CStringT@DV?$StrTraitMFC_DLL@DV?$ChTraitsCRT@D@ATL@@@@@ATL@@PAVCBcfListItem@@U?$less@V?$CStringT@DV?$StrTraitMFC_DLL@DV?$ChTraitsCRT@D@ATL@@@@@ATL@@@std@@V?$allocator@U?$pair@$$CBV?$CStringT@DV?$StrTraitMFC_DLL@DV?$ChTraitsCRT@D@ATL@@@@@ATL@@PAVCBcfListItem@@@std@@@5@$0A@@std@@@2@XZ 10026050 f i MainManage.obj
 0001:00025080       ?_Root@?$_Tree@V?$_Tmap_traits@V?$CStringT@DV?$StrTraitMFC_DLL@DV?$ChTraitsCRT@D@ATL@@@@@ATL@@PAVCBcfFileNameItem@@U?$less@V?$CStringT@DV?$StrTraitMFC_DLL@DV?$ChTraitsCRT@D@ATL@@@@@ATL@@@std@@V?$allocator@U?$pair@$$CBV?$CStringT@DV?$StrTraitMFC_DLL@DV?$ChTraitsCRT@D@ATL@@@@@ATL@@PAVCBcfFileNameItem@@@std@@@5@$0A@@std@@@std@@IBEAAPAU_Node@?$_Tree_nod@V?$_Tmap_traits@V?$CStringT@DV?$StrTraitMFC_DLL@DV?$ChTraitsCRT@D@ATL@@@@@ATL@@PAVCBcfFileNameItem@@U?$less@V?$CStringT@DV?$StrTraitMFC_DLL@DV?$ChTraitsCRT@D@ATL@@@@@ATL@@@std@@V?$allocator@U?$pair@$$CBV?$CStringT@DV?$StrTraitMFC_DLL@DV?$ChTraitsCRT@D@ATL@@@@@ATL@@PAVCBcfFileNameItem@@@std@@@5@$0A@@std@@@2@XZ 10026080 f i MainManage.obj
 0001:00025080       ?_Root@?$_Tree@V?$_Tmap_traits@V?$CStringT@DV?$StrTraitMFC_DLL@DV?$ChTraitsCRT@D@ATL@@@@@ATL@@PAVCBcfListItem@@U?$less@V?$CStringT@DV?$StrTraitMFC_DLL@DV?$ChTraitsCRT@D@ATL@@@@@ATL@@@std@@V?$allocator@U?$pair@$$CBV?$CStringT@DV?$StrTraitMFC_DLL@DV?$ChTraitsCRT@D@ATL@@@@@ATL@@PAVCBcfListItem@@@std@@@5@$0A@@std@@@std@@IBEAAPAU_Node@?$_Tree_nod@V?$_Tmap_traits@V?$CStringT@DV?$StrTraitMFC_DLL@DV?$ChTraitsCRT@D@ATL@@@@@ATL@@PAVCBcfListItem@@U?$less@V?$CStringT@DV?$StrTraitMFC_DLL@DV?$ChTraitsCRT@D@ATL@@@@@ATL@@@std@@V?$allocator@U?$pair@$$CBV?$CStringT@DV?$StrTraitMFC_DLL@DV?$ChTraitsCRT@D@ATL@@@@@ATL@@PAVCBcfListItem@@@std@@@5@$0A@@std@@@2@XZ 10026080 f i MainManage.obj
 0001:00025080       ?_Root@?$_Tree@V?$_Tmap_traits@HV?$vector@HV?$allocator@H@std@@@std@@U?$less@H@2@V?$allocator@U?$pair@$$CBHV?$vector@HV?$allocator@H@std@@@std@@@std@@@2@$0A@@std@@@std@@IBEAAPAU_Node@?$_Tree_nod@V?$_Tmap_traits@HV?$vector@HV?$allocator@H@std@@@std@@U?$less@H@2@V?$allocator@U?$pair@$$CBHV?$vector@HV?$allocator@H@std@@@std@@@std@@@2@$0A@@std@@@2@XZ 10026080 f i AFCSocket.obj
 0001:00025080       ?_Root@?$_Tree@V?$_Tmap_traits@V?$basic_string@DU?$char_traits@D@std@@V?$allocator@D@2@@std@@VHNTreeNode@@U?$less@V?$basic_string@DU?$char_traits@D@std@@V?$allocator@D@2@@std@@@2@V?$allocator@U?$pair@$$CBV?$basic_string@DU?$char_traits@D@std@@V?$allocator@D@2@@std@@VHNTreeNode@@@std@@@2@$0A@@std@@@std@@IBEAAPAU_Node@?$_Tree_nod@V?$_Tmap_traits@V?$basic_string@DU?$char_traits@D@std@@V?$allocator@D@2@@std@@VHNTreeNode@@U?$less@V?$basic_string@DU?$char_traits@D@std@@V?$allocator@D@2@@std@@@2@V?$allocator@U?$pair@$$CBV?$basic_string@DU?$char_traits@D@std@@V?$allocator@D@2@@std@@VHNTreeNode@@@std@@@2@$0A@@std@@@2@XZ 10026080 f i HNFilter.obj
 0001:000250b0       ?_Color@?$_Tree_val@V?$_Tmap_traits@V?$basic_string@DU?$char_traits@D@std@@V?$allocator@D@2@@std@@VHNTreeNode@@U?$less@V?$basic_string@DU?$char_traits@D@std@@V?$allocator@D@2@@std@@@2@V?$allocator@U?$pair@$$CBV?$basic_string@DU?$char_traits@D@std@@V?$allocator@D@2@@std@@VHNTreeNode@@@std@@@2@$0A@@std@@@std@@SAAADPAU_Node@?$_Tree_nod@V?$_Tmap_traits@V?$basic_string@DU?$char_traits@D@std@@V?$allocator@D@2@@std@@VHNTreeNode@@U?$less@V?$basic_string@DU?$char_traits@D@std@@V?$allocator@D@2@@std@@@2@V?$allocator@U?$pair@$$CBV?$basic_string@DU?$char_traits@D@std@@V?$allocator@D@2@@std@@VHNTreeNode@@@std@@@2@$0A@@std@@@2@@Z 100260b0 f i HNFilter.obj
 0001:000250d0       ?_Isnil@?$_Tree_val@V?$_Tmap_traits@V?$basic_string@DU?$char_traits@D@std@@V?$allocator@D@2@@std@@VHNTreeNode@@U?$less@V?$basic_string@DU?$char_traits@D@std@@V?$allocator@D@2@@std@@@2@V?$allocator@U?$pair@$$CBV?$basic_string@DU?$char_traits@D@std@@V?$allocator@D@2@@std@@VHNTreeNode@@@std@@@2@$0A@@std@@@std@@SAAADPAU_Node@?$_Tree_nod@V?$_Tmap_traits@V?$basic_string@DU?$char_traits@D@std@@V?$allocator@D@2@@std@@VHNTreeNode@@U?$less@V?$basic_string@DU?$char_traits@D@std@@V?$allocator@D@2@@std@@@2@V?$allocator@U?$pair@$$CBV?$basic_string@DU?$char_traits@D@std@@V?$allocator@D@2@@std@@VHNTreeNode@@@std@@@2@$0A@@std@@@2@@Z 100260d0 f i HNFilter.obj
 0001:000250f0       ?_Max@?$_Tree_val@V?$_Tmap_traits@V?$basic_string@DU?$char_traits@D@std@@V?$allocator@D@2@@std@@VHNTreeNode@@U?$less@V?$basic_string@DU?$char_traits@D@std@@V?$allocator@D@2@@std@@@2@V?$allocator@U?$pair@$$CBV?$basic_string@DU?$char_traits@D@std@@V?$allocator@D@2@@std@@VHNTreeNode@@@std@@@2@$0A@@std@@@std@@SAPAU_Node@?$_Tree_nod@V?$_Tmap_traits@V?$basic_string@DU?$char_traits@D@std@@V?$allocator@D@2@@std@@VHNTreeNode@@U?$less@V?$basic_string@DU?$char_traits@D@std@@V?$allocator@D@2@@std@@@2@V?$allocator@U?$pair@$$CBV?$basic_string@DU?$char_traits@D@std@@V?$allocator@D@2@@std@@VHNTreeNode@@@std@@@2@$0A@@std@@@2@PAU342@@Z 100260f0 f i HNFilter.obj
 0001:00025140       ?_Min@?$_Tree_val@V?$_Tmap_traits@V?$basic_string@DU?$char_traits@D@std@@V?$allocator@D@2@@std@@VHNTreeNode@@U?$less@V?$basic_string@DU?$char_traits@D@std@@V?$allocator@D@2@@std@@@2@V?$allocator@U?$pair@$$CBV?$basic_string@DU?$char_traits@D@std@@V?$allocator@D@2@@std@@VHNTreeNode@@@std@@@2@$0A@@std@@@std@@SAPAU_Node@?$_Tree_nod@V?$_Tmap_traits@V?$basic_string@DU?$char_traits@D@std@@V?$allocator@D@2@@std@@VHNTreeNode@@U?$less@V?$basic_string@DU?$char_traits@D@std@@V?$allocator@D@2@@std@@@2@V?$allocator@U?$pair@$$CBV?$basic_string@DU?$char_traits@D@std@@V?$allocator@D@2@@std@@VHNTreeNode@@@std@@@2@$0A@@std@@@2@PAU342@@Z 10026140 f i HNFilter.obj
 0001:00025190       ?allocate@?$allocator@U_Node@?$_Tree_nod@V?$_Tmap_traits@V?$basic_string@DU?$char_traits@D@std@@V?$allocator@D@2@@std@@VHNTreeNode@@U?$less@V?$basic_string@DU?$char_traits@D@std@@V?$allocator@D@2@@std@@@2@V?$allocator@U?$pair@$$CBV?$basic_string@DU?$char_traits@D@std@@V?$allocator@D@2@@std@@VHNTreeNode@@@std@@@2@$0A@@std@@@std@@@std@@QAEPAU_Node@?$_Tree_nod@V?$_Tmap_traits@V?$basic_string@DU?$char_traits@D@std@@V?$allocator@D@2@@std@@VHNTreeNode@@U?$less@V?$basic_string@DU?$char_traits@D@std@@V?$allocator@D@2@@std@@@2@V?$allocator@U?$pair@$$CBV?$basic_string@DU?$char_traits@D@std@@V?$allocator@D@2@@std@@VHNTreeNode@@@std@@@2@$0A@@std@@@2@I@Z 10026190 f i HNFilter.obj
 0001:000251c0       ??E?$_Tree_const_iterator@V?$_Tree_val@V?$_Tmap_traits@V?$basic_string@DU?$char_traits@D@std@@V?$allocator@D@2@@std@@VHNTreeNode@@U?$less@V?$basic_string@DU?$char_traits@D@std@@V?$allocator@D@2@@std@@@2@V?$allocator@U?$pair@$$CBV?$basic_string@DU?$char_traits@D@std@@V?$allocator@D@2@@std@@VHNTreeNode@@@std@@@2@$0A@@std@@@std@@@std@@QAE?AV01@H@Z 100261c0 f i HNFilter.obj
 0001:000251f0       ?_Erase@?$_Tree@V?$_Tmap_traits@V?$basic_string@DU?$char_traits@D@std@@V?$allocator@D@2@@std@@VHNTreeNode@@U?$less@V?$basic_string@DU?$char_traits@D@std@@V?$allocator@D@2@@std@@@2@V?$allocator@U?$pair@$$CBV?$basic_string@DU?$char_traits@D@std@@V?$allocator@D@2@@std@@VHNTreeNode@@@std@@@2@$0A@@std@@@std@@IAEXPAU_Node@?$_Tree_nod@V?$_Tmap_traits@V?$basic_string@DU?$char_traits@D@std@@V?$allocator@D@2@@std@@VHNTreeNode@@U?$less@V?$basic_string@DU?$char_traits@D@std@@V?$allocator@D@2@@std@@@2@V?$allocator@U?$pair@$$CBV?$basic_string@DU?$char_traits@D@std@@V?$allocator@D@2@@std@@VHNTreeNode@@@std@@@2@$0A@@std@@@2@@Z 100261f0 f i HNFilter.obj
 0001:00025290       ?_Lrotate@?$_Tree@V?$_Tmap_traits@V?$basic_string@DU?$char_traits@D@std@@V?$allocator@D@2@@std@@VHNTreeNode@@U?$less@V?$basic_string@DU?$char_traits@D@std@@V?$allocator@D@2@@std@@@2@V?$allocator@U?$pair@$$CBV?$basic_string@DU?$char_traits@D@std@@V?$allocator@D@2@@std@@VHNTreeNode@@@std@@@2@$0A@@std@@@std@@IAEXPAU_Node@?$_Tree_nod@V?$_Tmap_traits@V?$basic_string@DU?$char_traits@D@std@@V?$allocator@D@2@@std@@VHNTreeNode@@U?$less@V?$basic_string@DU?$char_traits@D@std@@V?$allocator@D@2@@std@@@2@V?$allocator@U?$pair@$$CBV?$basic_string@DU?$char_traits@D@std@@V?$allocator@D@2@@std@@VHNTreeNode@@@std@@@2@$0A@@std@@@2@@Z 10026290 f i HNFilter.obj
 0001:000253d0       ?_Rrotate@?$_Tree@V?$_Tmap_traits@V?$basic_string@DU?$char_traits@D@std@@V?$allocator@D@2@@std@@VHNTreeNode@@U?$less@V?$basic_string@DU?$char_traits@D@std@@V?$allocator@D@2@@std@@@2@V?$allocator@U?$pair@$$CBV?$basic_string@DU?$char_traits@D@std@@V?$allocator@D@2@@std@@VHNTreeNode@@@std@@@2@$0A@@std@@@std@@IAEXPAU_Node@?$_Tree_nod@V?$_Tmap_traits@V?$basic_string@DU?$char_traits@D@std@@V?$allocator@D@2@@std@@VHNTreeNode@@U?$less@V?$basic_string@DU?$char_traits@D@std@@V?$allocator@D@2@@std@@@2@V?$allocator@U?$pair@$$CBV?$basic_string@DU?$char_traits@D@std@@V?$allocator@D@2@@std@@VHNTreeNode@@@std@@@2@$0A@@std@@@2@@Z 100263d0 f i HNFilter.obj
 0001:00025510       ??E?$_Tree_const_iterator@V?$_Tree_val@V?$_Tmap_traits@V?$basic_string@DU?$char_traits@D@std@@V?$allocator@D@2@@std@@VHNTreeNode@@U?$less@V?$basic_string@DU?$char_traits@D@std@@V?$allocator@D@2@@std@@@2@V?$allocator@U?$pair@$$CBV?$basic_string@DU?$char_traits@D@std@@V?$allocator@D@2@@std@@VHNTreeNode@@@std@@@2@$0A@@std@@@std@@@std@@QAEAAV01@XZ 10026510 f i HNFilter.obj
 0001:00025530       ?_Mynode@?$_Tree_unchecked_const_iterator@V?$_Tree_val@V?$_Tmap_traits@HV?$vector@HV?$allocator@H@std@@@std@@U?$less@H@2@V?$allocator@U?$pair@$$CBHV?$vector@HV?$allocator@H@std@@@std@@@std@@@2@$0A@@std@@@std@@U_Iterator_base0@2@@std@@QBEPAU_Node@?$_Tree_nod@V?$_Tmap_traits@HV?$vector@HV?$allocator@H@std@@@std@@U?$less@H@2@V?$allocator@U?$pair@$$CBHV?$vector@HV?$allocator@H@std@@@std@@@std@@@2@$0A@@std@@@2@XZ 10026530 f i AFCSocket.obj
 0001:00025530       ?_Mynode@?$_List_unchecked_const_iterator@V?$_List_val@PAUFILEINFO@@V?$allocator@PAUFILEINFO@@@std@@@std@@U_Iterator_base0@2@@std@@QBEPAU_Node@?$_List_nod@PAUFILEINFO@@V?$allocator@PAUFILEINFO@@@std@@@2@XZ 10026530 f i HNSmtp.obj
 0001:00025530       ?_Mynode@?$_Tree_unchecked_const_iterator@V?$_Tree_val@V?$_Tmap_traits@V?$CStringT@DV?$StrTraitMFC_DLL@DV?$ChTraitsCRT@D@ATL@@@@@ATL@@PAVCBcfFileNameItem@@U?$less@V?$CStringT@DV?$StrTraitMFC_DLL@DV?$ChTraitsCRT@D@ATL@@@@@ATL@@@std@@V?$allocator@U?$pair@$$CBV?$CStringT@DV?$StrTraitMFC_DLL@DV?$ChTraitsCRT@D@ATL@@@@@ATL@@PAVCBcfFileNameItem@@@std@@@5@$0A@@std@@@std@@U_Iterator_base0@2@@std@@QBEPAU_Node@?$_Tree_nod@V?$_Tmap_traits@V?$CStringT@DV?$StrTraitMFC_DLL@DV?$ChTraitsCRT@D@ATL@@@@@ATL@@PAVCBcfFileNameItem@@U?$less@V?$CStringT@DV?$StrTraitMFC_DLL@DV?$ChTraitsCRT@D@ATL@@@@@ATL@@@std@@V?$allocator@U?$pair@$$CBV?$CStringT@DV?$StrTraitMFC_DLL@DV?$ChTraitsCRT@D@ATL@@@@@ATL@@PAVCBcfFileNameItem@@@std@@@5@$0A@@std@@@2@XZ 10026530 f i MainManage.obj
 0001:00025530       ?_Mynode@?$_Tree_unchecked_const_iterator@V?$_Tree_val@V?$_Tmap_traits@V?$CStringT@DV?$StrTraitMFC_DLL@DV?$ChTraitsCRT@D@ATL@@@@@ATL@@PAVCBcfListItem@@U?$less@V?$CStringT@DV?$StrTraitMFC_DLL@DV?$ChTraitsCRT@D@ATL@@@@@ATL@@@std@@V?$allocator@U?$pair@$$CBV?$CStringT@DV?$StrTraitMFC_DLL@DV?$ChTraitsCRT@D@ATL@@@@@ATL@@PAVCBcfListItem@@@std@@@5@$0A@@std@@@std@@U_Iterator_base0@2@@std@@QBEPAU_Node@?$_Tree_nod@V?$_Tmap_traits@V?$CStringT@DV?$StrTraitMFC_DLL@DV?$ChTraitsCRT@D@ATL@@@@@ATL@@PAVCBcfListItem@@U?$less@V?$CStringT@DV?$StrTraitMFC_DLL@DV?$ChTraitsCRT@D@ATL@@@@@ATL@@@std@@V?$allocator@U?$pair@$$CBV?$CStringT@DV?$StrTraitMFC_DLL@DV?$ChTraitsCRT@D@ATL@@@@@ATL@@PAVCBcfListItem@@@std@@@5@$0A@@std@@@2@XZ 10026530 f i MainManage.obj
 0001:00025530       ?GetHead@CSimpleList@@QBEPAXXZ 10026530 f i AFCComDllEx.obj
 0001:00025530       ?_Unchecked@?$_Vector_iterator@V?$_Vector_val@HV?$allocator@H@std@@@std@@@std@@QBEPAHXZ 10026530 f i AFCSocket.obj
 0001:00025530       ?_Mynode@?$_Tree_unchecked_const_iterator@V?$_Tree_val@V?$_Tmap_traits@V?$basic_string@DU?$char_traits@D@std@@V?$allocator@D@2@@std@@VHNTreeNode@@U?$less@V?$basic_string@DU?$char_traits@D@std@@V?$allocator@D@2@@std@@@2@V?$allocator@U?$pair@$$CBV?$basic_string@DU?$char_traits@D@std@@V?$allocator@D@2@@std@@VHNTreeNode@@@std@@@2@$0A@@std@@@std@@U_Iterator_base0@2@@std@@QBEPAU_Node@?$_Tree_nod@V?$_Tmap_traits@V?$basic_string@DU?$char_traits@D@std@@V?$allocator@D@2@@std@@VHNTreeNode@@U?$less@V?$basic_string@DU?$char_traits@D@std@@V?$allocator@D@2@@std@@@2@V?$allocator@U?$pair@$$CBV?$basic_string@DU?$char_traits@D@std@@V?$allocator@D@2@@std@@VHNTreeNode@@@std@@@2@$0A@@std@@@2@XZ 10026530 f i HNFilter.obj
 0001:00025550       ??E?$_Tree_unchecked_const_iterator@V?$_Tree_val@V?$_Tmap_traits@V?$basic_string@DU?$char_traits@D@std@@V?$allocator@D@2@@std@@VHNTreeNode@@U?$less@V?$basic_string@DU?$char_traits@D@std@@V?$allocator@D@2@@std@@@2@V?$allocator@U?$pair@$$CBV?$basic_string@DU?$char_traits@D@std@@V?$allocator@D@2@@std@@VHNTreeNode@@@std@@@2@$0A@@std@@@std@@U_Iterator_base0@2@@std@@QAEAAV01@XZ 10026550 f i HNFilter.obj
 0001:00025610       ??$use_facet@V?$codecvt@DDH@std@@@std@@YAABV?$codecvt@DDH@0@ABVlocale@0@@Z 10026610 f i HNFilter.obj
 0001:00025710       ??$_Dest_val@V?$allocator@U?$pair@$$CBV?$basic_string@DU?$char_traits@D@std@@V?$allocator@D@2@@std@@VHNTreeNode@@@std@@@std@@U?$pair@$$CBV?$basic_string@DU?$char_traits@D@std@@V?$allocator@D@2@@std@@VHNTreeNode@@@2@@std@@YAXAAV?$allocator@U?$pair@$$CBV?$basic_string@DU?$char_traits@D@std@@V?$allocator@D@2@@std@@VHNTreeNode@@@std@@@0@PAU?$pair@$$CBV?$basic_string@DU?$char_traits@D@std@@V?$allocator@D@2@@std@@VHNTreeNode@@@0@@Z 10026710 f i HNFilter.obj
 0001:00025730       ??$_Buynode@AAU?$pair@$$CBV?$basic_string@DU?$char_traits@D@std@@V?$allocator@D@2@@std@@VHNTreeNode@@@std@@@?$_Tree_val@V?$_Tmap_traits@V?$basic_string@DU?$char_traits@D@std@@V?$allocator@D@2@@std@@VHNTreeNode@@U?$less@V?$basic_string@DU?$char_traits@D@std@@V?$allocator@D@2@@std@@@2@V?$allocator@U?$pair@$$CBV?$basic_string@DU?$char_traits@D@std@@V?$allocator@D@2@@std@@VHNTreeNode@@@std@@@2@$0A@@std@@@std@@QAEPAU_Node@?$_Tree_nod@V?$_Tmap_traits@V?$basic_string@DU?$char_traits@D@std@@V?$allocator@D@2@@std@@VHNTreeNode@@U?$less@V?$basic_string@DU?$char_traits@D@std@@V?$allocator@D@2@@std@@@2@V?$allocator@U?$pair@$$CBV?$basic_string@DU?$char_traits@D@std@@V?$allocator@D@2@@std@@VHNTreeNode@@@std@@@2@$0A@@std@@@1@AAU?$pair@$$CBV?$basic_string@DU?$char_traits@D@std@@V?$allocator@D@2@@std@@VHNTreeNode@@@1@@Z 10026730 f i HNFilter.obj
 0001:00025800       ??$_Allocate@U_Node@?$_Tree_nod@V?$_Tmap_traits@V?$basic_string@DU?$char_traits@D@std@@V?$allocator@D@2@@std@@VHNTreeNode@@U?$less@V?$basic_string@DU?$char_traits@D@std@@V?$allocator@D@2@@std@@@2@V?$allocator@U?$pair@$$CBV?$basic_string@DU?$char_traits@D@std@@V?$allocator@D@2@@std@@VHNTreeNode@@@std@@@2@$0A@@std@@@std@@@std@@YAPAU_Node@?$_Tree_nod@V?$_Tmap_traits@V?$basic_string@DU?$char_traits@D@std@@V?$allocator@D@2@@std@@VHNTreeNode@@U?$less@V?$basic_string@DU?$char_traits@D@std@@V?$allocator@D@2@@std@@@2@V?$allocator@U?$pair@$$CBV?$basic_string@DU?$char_traits@D@std@@V?$allocator@D@2@@std@@VHNTreeNode@@@std@@@2@$0A@@std@@@0@IPAU120@@Z 10026800 f i HNFilter.obj
 0001:00025870       ?_Buynode@?$_Tree_val@V?$_Tmap_traits@V?$basic_string@DU?$char_traits@D@std@@V?$allocator@D@2@@std@@VHNTreeNode@@U?$less@V?$basic_string@DU?$char_traits@D@std@@V?$allocator@D@2@@std@@@2@V?$allocator@U?$pair@$$CBV?$basic_string@DU?$char_traits@D@std@@V?$allocator@D@2@@std@@VHNTreeNode@@@std@@@2@$0A@@std@@@std@@QAEPAU_Node@?$_Tree_nod@V?$_Tmap_traits@V?$basic_string@DU?$char_traits@D@std@@V?$allocator@D@2@@std@@VHNTreeNode@@U?$less@V?$basic_string@DU?$char_traits@D@std@@V?$allocator@D@2@@std@@@2@V?$allocator@U?$pair@$$CBV?$basic_string@DU?$char_traits@D@std@@V?$allocator@D@2@@std@@VHNTreeNode@@@std@@@2@$0A@@std@@@2@XZ 10026870 f i HNFilter.obj
 0001:000258f0       ?destroy@?$allocator@U?$pair@$$CBV?$basic_string@DU?$char_traits@D@std@@V?$allocator@D@2@@std@@VHNTreeNode@@@std@@@std@@QAEXPAU?$pair@$$CBV?$basic_string@DU?$char_traits@D@std@@V?$allocator@D@2@@std@@VHNTreeNode@@@2@@Z 100268f0 f i HNFilter.obj
 0001:00025920       ??$_Cons_val@V?$allocator@U?$pair@$$CBV?$basic_string@DU?$char_traits@D@std@@V?$allocator@D@2@@std@@VHNTreeNode@@@std@@@std@@U?$pair@$$CBV?$basic_string@DU?$char_traits@D@std@@V?$allocator@D@2@@std@@VHNTreeNode@@@2@AAU32@@std@@YAXAAV?$allocator@U?$pair@$$CBV?$basic_string@DU?$char_traits@D@std@@V?$allocator@D@2@@std@@VHNTreeNode@@@std@@@0@PAU?$pair@$$CBV?$basic_string@DU?$char_traits@D@std@@V?$allocator@D@2@@std@@VHNTreeNode@@@0@AAU20@@Z 10026920 f i HNFilter.obj
 0001:00025950       ??$_Destroy@U?$pair@$$CBV?$basic_string@DU?$char_traits@D@std@@V?$allocator@D@2@@std@@VHNTreeNode@@@std@@@std@@YAXPAU?$pair@$$CBV?$basic_string@DU?$char_traits@D@std@@V?$allocator@D@2@@std@@VHNTreeNode@@@0@@Z 10026950 f i HNFilter.obj
 0001:00025970       ??_G?$pair@$$CBV?$basic_string@DU?$char_traits@D@std@@V?$allocator@D@2@@std@@VHNTreeNode@@@std@@QAEPAXI@Z 10026970 f i HNFilter.obj
 0001:000259b0       ??1?$pair@V?$basic_string@DU?$char_traits@D@std@@V?$allocator@D@2@@std@@VHNTreeNode@@@std@@QAE@XZ 100269b0 f i HNTreeNode.obj
 0001:000259b0       ??1?$pair@$$CBV?$basic_string@DU?$char_traits@D@std@@V?$allocator@D@2@@std@@VHNTreeNode@@@std@@QAE@XZ 100269b0 f i HNFilter.obj
 0001:000259d0       ??1?$_Pair_base@V?$basic_string@DU?$char_traits@D@std@@V?$allocator@D@2@@std@@VHNTreeNode@@@std@@QAE@XZ 100269d0 f i HNTreeNode.obj
 0001:000259d0       ??1?$_Pair_base@$$CBV?$basic_string@DU?$char_traits@D@std@@V?$allocator@D@2@@std@@VHNTreeNode@@@std@@QAE@XZ 100269d0 f i HNFilter.obj
 0001:00025a30       ??$construct@AAU?$pair@$$CBV?$basic_string@DU?$char_traits@D@std@@V?$allocator@D@2@@std@@VHNTreeNode@@@std@@@?$allocator@U?$pair@$$CBV?$basic_string@DU?$char_traits@D@std@@V?$allocator@D@2@@std@@VHNTreeNode@@@std@@@std@@QAEXPAU?$pair@$$CBV?$basic_string@DU?$char_traits@D@std@@V?$allocator@D@2@@std@@VHNTreeNode@@@1@AAU21@@Z 10026a30 f i HNFilter.obj
 0001:00025ac0       ??$?0$$CBV?$basic_string@DU?$char_traits@D@std@@V?$allocator@D@2@@std@@VHNTreeNode@@@?$pair@$$CBV?$basic_string@DU?$char_traits@D@std@@V?$allocator@D@2@@std@@VHNTreeNode@@@std@@QAE@AAU01@@Z 10026ac0 f i HNFilter.obj
 0001:00025af0       ??$?0ABV?$basic_string@DU?$char_traits@D@std@@V?$allocator@D@2@@std@@AAVHNTreeNode@@@?$_Pair_base@$$CBV?$basic_string@DU?$char_traits@D@std@@V?$allocator@D@2@@std@@VHNTreeNode@@@std@@QAE@ABV?$basic_string@DU?$char_traits@D@std@@V?$allocator@D@2@@1@AAVHNTreeNode@@@Z 10026af0 f i HNFilter.obj
 0001:00025af0       ??$?0AAV?$basic_string@DU?$char_traits@D@std@@V?$allocator@D@2@@std@@VHNTreeNode@@@?$_Pair_base@V?$basic_string@DU?$char_traits@D@std@@V?$allocator@D@2@@std@@VHNTreeNode@@@std@@QAE@AAV?$basic_string@DU?$char_traits@D@std@@V?$allocator@D@2@@1@$$QAVHNTreeNode@@@Z 10026af0 f i HNTreeNode.obj
 0001:00025b70       ?to_char_type@?$char_traits@D@std@@SADABH@Z 10026b70 f i HNFilter.obj
 0001:00025b90       ?to_int_type@?$char_traits@D@std@@SAHABD@Z 10026b90 f i HNFilter.obj
 0001:00025bb0       ?eq_int_type@?$char_traits@D@std@@SA_NABH0@Z 10026bb0 f i HNFilter.obj
 0001:00025bd0       ?not_eof@?$char_traits@D@std@@SAHABH@Z 10026bd0 f i HNFilter.obj
 0001:00025c10       ?eof@?$char_traits@D@std@@SAHXZ 10026c10 f i HNFilter.obj
 0001:00025c30       ?_Register@facet@locale@std@@QAEXXZ 10026c30 f i HNFilter.obj
 0001:00025c50       ??1locale@std@@QAE@XZ      10026c50 f i HNFilter.obj
 0001:00025ca0       ?_Getfacet@locale@std@@QBEPBVfacet@12@I@Z 10026ca0 f i HNFilter.obj
 0001:00025d30       ??0?$basic_string@DU?$char_traits@D@std@@V?$allocator@D@2@@std@@QAE@ID@Z 10026d30 f i HNFilter.obj
 0001:00025db0       ??0?$fpos@H@std@@QAE@_J@Z  10026db0 f i HNFilter.obj
 0001:00025e00       ?assign@?$basic_string@DU?$char_traits@D@std@@V?$allocator@D@2@@std@@QAEAAV12@ID@Z 10026e00 f i HNFilter.obj
 0001:00025e60       ?GetAppPathEx@@YAPADXZ     10026e60 f   HNLog.obj
 0001:00025ee0       ?DebugPrintf@@YAXPBDH0ZZ   10026ee0 f   HNLog.obj
 0001:00026040       ?strrchr@@YAPADPADH@Z      10027040 f i HNLog.obj
 0001:00026070       ??0HNRC4@HN@@QAE@XZ        10027070 f   HNRC4.obj
 0001:000260c0       ??_GHNRC4@HN@@UAEPAXI@Z    100270c0 f i HNRC4.obj
 0001:000260c0       ??_EHNRC4@HN@@UAEPAXI@Z    100270c0 f i HNRC4.obj
 0001:00026100       ??1HNRC4@HN@@UAE@XZ        10027100 f   HNRC4.obj
 0001:00026120       ?decrypt@HNRC4@HN@@QAEXPAEH@Z 10027120 f   HNRC4.obj
 0001:00026120       ?encrpyt@HNRC4@HN@@QAEXPAEH@Z 10027120 f   HNRC4.obj
 0001:00026150       ?rc4@HNRC4@HN@@AAEXPAEH@Z  10027150 f   HNRC4.obj
 0001:000262f0       ?init@HNRC4@HN@@QAEXPAEH@Z 100272f0 f   HNRC4.obj
 0001:00026490       ?base64Encode@CSmtp@@QAEPADPBDI@Z 10027490 f   HNSmtp.obj
 0001:000266d0       ??0CSmtp@@QAE@XZ           100276d0 f   HNSmtp.obj
 0001:00026840       ??1CSmtp@@QAE@XZ           10027840 f   HNSmtp.obj
 0001:00026920       ??0CSmtp@@QAE@HV?$basic_string@DU?$char_traits@D@std@@V?$allocator@D@2@@std@@00000@Z 10027920 f   HNSmtp.obj
 0001:00026ad0       ?CreateConn@CSmtp@@QAE_NXZ 10027ad0 f   HNSmtp.obj
 0001:00026b80       ?Send@CSmtp@@QAE_NAAV?$basic_string@DU?$char_traits@D@std@@V?$allocator@D@2@@std@@@Z 10027b80 f   HNSmtp.obj
 0001:00026c50       ?Recv@CSmtp@@QAE_NXZ       10027c50 f   HNSmtp.obj
 0001:00026ce0       ?Login@CSmtp@@QAEHXZ       10027ce0 f   HNSmtp.obj
 0001:00027060       ?strstr@@YAPADPADPBD@Z     10028060 f i HNSmtp.obj
 0001:00027090       ?SendEmailHead@CSmtp@@QAE_NXZ 10028090 f   HNSmtp.obj
 0001:00027270       ?FormatEmailHead@CSmtp@@QAEXAAV?$basic_string@DU?$char_traits@D@std@@V?$allocator@D@2@@std@@@Z 10028270 f   HNSmtp.obj
 0001:00027350       ?SendTextBody@CSmtp@@QAE_NXZ 10028350 f   HNSmtp.obj
 0001:00027410       ?SendAttachment_Ex@CSmtp@@QAEHXZ 10028410 f   HNSmtp.obj
 0001:00027850       ?SendEnd@CSmtp@@QAE_NXZ    10028850 f   HNSmtp.obj
 0001:00027990       ?SendEmail_Ex@CSmtp@@QAEHXZ 10028990 f   HNSmtp.obj
 0001:00027a30       ?AddAttachment@CSmtp@@QAEXAAV?$basic_string@DU?$char_traits@D@std@@V?$allocator@D@2@@std@@@Z 10028a30 f   HNSmtp.obj
 0001:00027ac0       ?DeleteAttachment@CSmtp@@QAEXAAV?$basic_string@DU?$char_traits@D@std@@V?$allocator@D@2@@std@@@Z 10028ac0 f   HNSmtp.obj
 0001:00027b90       ?DeleteAllAttachment@CSmtp@@QAEXXZ 10028b90 f   HNSmtp.obj
 0001:00027c20       ?SetSrvDomain@CSmtp@@QAEXAAV?$basic_string@DU?$char_traits@D@std@@V?$allocator@D@2@@std@@@Z 10028c20 f   HNSmtp.obj
 0001:00027c50       ?SetUserName@CSmtp@@QAEXAAV?$basic_string@DU?$char_traits@D@std@@V?$allocator@D@2@@std@@@Z 10028c50 f   HNSmtp.obj
 0001:00027c80       ?SetPass@CSmtp@@QAEXAAV?$basic_string@DU?$char_traits@D@std@@V?$allocator@D@2@@std@@@Z 10028c80 f   HNSmtp.obj
 0001:00027cb0       ?SetTargetEmail@CSmtp@@QAEXAAV?$basic_string@DU?$char_traits@D@std@@V?$allocator@D@2@@std@@@Z 10028cb0 f   HNSmtp.obj
 0001:00027ce0       ?SetEmailTitle@CSmtp@@QAEXAAV?$basic_string@DU?$char_traits@D@std@@V?$allocator@D@2@@std@@@Z 10028ce0 f   HNSmtp.obj
 0001:00027d10       ?SetContent@CSmtp@@QAEXAAV?$basic_string@DU?$char_traits@D@std@@V?$allocator@D@2@@std@@@Z 10028d10 f   HNSmtp.obj
 0001:00027d40       ?SetPort@CSmtp@@QAEXH@Z    10028d40 f   HNSmtp.obj
 0001:00027d60       ?empty@?$basic_string@DU?$char_traits@D@std@@V?$allocator@D@2@@std@@QBE_NXZ 10028d60 f i HNSmtp.obj
 0001:00027d90       ?find@?$basic_string@DU?$char_traits@D@std@@V?$allocator@D@2@@std@@QBEIDI@Z 10028d90 f i HNSmtp.obj
 0001:00027dc0       ?find_last_of@?$basic_string@DU?$char_traits@D@std@@V?$allocator@D@2@@std@@QBEIPBDI@Z 10028dc0 f i HNSmtp.obj
 0001:00027e00       ??0?$list@PAUFILEINFO@@V?$allocator@PAUFILEINFO@@@std@@@std@@QAE@XZ 10028e00 f i HNSmtp.obj
 0001:00027e30       ?end@?$list@PAUFILEINFO@@V?$allocator@PAUFILEINFO@@@std@@@std@@QAE?AV?$_List_iterator@V?$_List_val@PAUFILEINFO@@V?$allocator@PAUFILEINFO@@@std@@@std@@@2@XZ 10028e30 f i HNSmtp.obj
 0001:00027e60       ?push_back@?$list@PAUFILEINFO@@V?$allocator@PAUFILEINFO@@@std@@@std@@QAEXABQAUFILEINFO@@@Z 10028e60 f i HNSmtp.obj
 0001:00027ea0       ?remove@?$list@PAUFILEINFO@@V?$allocator@PAUFILEINFO@@@std@@@std@@QAEXABQAUFILEINFO@@@Z 10028ea0 f i HNSmtp.obj
 0001:00027f50       ??D?$_List_iterator@V?$_List_val@PAUFILEINFO@@V?$allocator@PAUFILEINFO@@@std@@@std@@@std@@QBEAAPAUFILEINFO@@XZ 10028f50 f i HNSmtp.obj
 0001:00027f70       ??E?$_List_iterator@V?$_List_val@PAUFILEINFO@@V?$allocator@PAUFILEINFO@@@std@@@std@@@std@@QAE?AV01@H@Z 10028f70 f i HNSmtp.obj
 0001:00027fa0       ?find_last_of@?$basic_string@DU?$char_traits@D@std@@V?$allocator@D@2@@std@@QBEIPBDII@Z 10028fa0 f i HNSmtp.obj
 0001:00028040       ??E?$_List_iterator@V?$_List_val@PAUFILEINFO@@V?$allocator@PAUFILEINFO@@@std@@@std@@@std@@QAEAAV01@XZ 10029040 f i HNSmtp.obj
 0001:00028060       ??$?6U?$char_traits@D@std@@@std@@YAAAV?$basic_ostream@DU?$char_traits@D@std@@@0@AAV10@PBD@Z 10029060 f i HNSmtp.obj
 0001:00028440       ??$strcpy_s@$0BAA@@@YAHAAY0BAA@DPBD@Z 10029440 f i HNSmtp.obj
 0001:00028470       ??$strcpy_s@$0IA@@@YAHAAY0IA@DPBD@Z 10029470 f i HNSmtp.obj
 0001:000284a0       ??1?$list@PAUFILEINFO@@V?$allocator@PAUFILEINFO@@@std@@@std@@QAE@XZ 100294a0 f i HNSmtp.obj
 0001:00028500       ?begin@?$list@PAUFILEINFO@@V?$allocator@PAUFILEINFO@@@std@@@std@@QAE?AV?$_List_iterator@V?$_List_val@PAUFILEINFO@@V?$allocator@PAUFILEINFO@@@std@@@std@@@2@XZ 10029500 f i HNSmtp.obj
 0001:00028540       ?_Tidy@?$list@PAUFILEINFO@@V?$allocator@PAUFILEINFO@@@std@@@std@@QAEXXZ 10029540 f i HNSmtp.obj
 0001:00028560       ??0?$_List_val@PAUFILEINFO@@V?$allocator@PAUFILEINFO@@@std@@@std@@QAE@V?$allocator@PAUFILEINFO@@@1@@Z 10029560 f i HNSmtp.obj
 0001:000285e0       ??1?$_List_val@PAUFILEINFO@@V?$allocator@PAUFILEINFO@@@std@@@std@@QAE@XZ 100295e0 f i HNSmtp.obj
 0001:00028610       ??0sentry@?$basic_ostream@DU?$char_traits@D@std@@@std@@QAE@AAV12@@Z 10029610 f i HNSmtp.obj
 0001:000286e0       ??1sentry@?$basic_ostream@DU?$char_traits@D@std@@@std@@QAE@XZ 100296e0 f i HNSmtp.obj
 0001:00028750       ??Bsentry@?$basic_ostream@DU?$char_traits@D@std@@@std@@QBEPQ_Bool_struct@2@HXZ 10029750 f i HNSmtp.obj
 0001:00028780       ?clear@?$list@PAUFILEINFO@@V?$allocator@PAUFILEINFO@@@std@@@std@@QAEXXZ 10029780 f i HNSmtp.obj
 0001:00028830       ??$addressof@H@std@@YAPAHAAH@Z 10029830 f i AFCSocket.obj
 0001:00028830       ??$forward@AAH@std@@YAAAHAAH@Z 10029830 f i AFCSocket.obj
 0001:00028830       ??$addressof@U?$pair@$$CBHV?$vector@HV?$allocator@H@std@@@std@@@std@@@std@@YAPAU?$pair@$$CBHV?$vector@HV?$allocator@H@std@@@std@@@0@AAU10@@Z 10029830 f i AFCSocket.obj
 0001:00028830       ?_Left@?$_Tree_val@V?$_Tmap_traits@V?$CStringT@DV?$StrTraitMFC_DLL@DV?$ChTraitsCRT@D@ATL@@@@@ATL@@PAVCBcfListItem@@U?$less@V?$CStringT@DV?$StrTraitMFC_DLL@DV?$ChTraitsCRT@D@ATL@@@@@ATL@@@std@@V?$allocator@U?$pair@$$CBV?$CStringT@DV?$StrTraitMFC_DLL@DV?$ChTraitsCRT@D@ATL@@@@@ATL@@PAVCBcfListItem@@@std@@@5@$0A@@std@@@std@@SAAAPAU_Node@?$_Tree_nod@V?$_Tmap_traits@V?$CStringT@DV?$StrTraitMFC_DLL@DV?$ChTraitsCRT@D@ATL@@@@@ATL@@PAVCBcfListItem@@U?$less@V?$CStringT@DV?$StrTraitMFC_DLL@DV?$ChTraitsCRT@D@ATL@@@@@ATL@@@std@@V?$allocator@U?$pair@$$CBV?$CStringT@DV?$StrTraitMFC_DLL@DV?$ChTraitsCRT@D@ATL@@@@@ATL@@PAVCBcfListItem@@@std@@@5@$0A@@std@@@2@PAU342@@Z 10029830 f i MainManage.obj
 0001:00028830       ??$forward@ABD@std@@YAABDABD@Z 10029830 f i WebSocketAssitInterface.obj
 0001:00028830       ??$forward@U?$pair@HV?$vector@HV?$allocator@H@std@@@std@@@std@@@std@@YA$$QAU?$pair@HV?$vector@HV?$allocator@H@std@@@std@@@0@AAU10@@Z 10029830 f i AFCSocket.obj
 0001:00028830       ??$_Kfn@$$CBV?$basic_string@DU?$char_traits@D@std@@V?$allocator@D@2@@std@@VHNTreeNode@@@?$_Tmap_traits@V?$basic_string@DU?$char_traits@D@std@@V?$allocator@D@2@@std@@VHNTreeNode@@U?$less@V?$basic_string@DU?$char_traits@D@std@@V?$allocator@D@2@@std@@@2@V?$allocator@U?$pair@$$CBV?$basic_string@DU?$char_traits@D@std@@V?$allocator@D@2@@std@@VHNTreeNode@@@std@@@2@$0A@@std@@SAABV?$basic_string@DU?$char_traits@D@std@@V?$allocator@D@2@@1@ABU?$pair@$$CBV?$basic_string@DU?$char_traits@D@std@@V?$allocator@D@2@@std@@VHNTreeNode@@@1@@Z 10029830 f i HNTreeNode.obj
 0001:00028830       ??$move@AAPAVCBcfListItem@@@std@@YA$$QAPAVCBcfListItem@@AAPAV1@@Z 10029830 f i MainManage.obj
 0001:00028830       ??$_Move@AAD@std@@YA$$QADAAD@Z 10029830 f i AFCSocket.obj
 0001:00028830       ?_Left@?$_Tree_val@V?$_Tmap_traits@V?$basic_string@DU?$char_traits@D@std@@V?$allocator@D@2@@std@@VHNTreeNode@@U?$less@V?$basic_string@DU?$char_traits@D@std@@V?$allocator@D@2@@std@@@2@V?$allocator@U?$pair@$$CBV?$basic_string@DU?$char_traits@D@std@@V?$allocator@D@2@@std@@VHNTreeNode@@@std@@@2@$0A@@std@@@std@@SAAAPAU_Node@?$_Tree_nod@V?$_Tmap_traits@V?$basic_string@DU?$char_traits@D@std@@V?$allocator@D@2@@std@@VHNTreeNode@@U?$less@V?$basic_string@DU?$char_traits@D@std@@V?$allocator@D@2@@std@@@2@V?$allocator@U?$pair@$$CBV?$basic_string@DU?$char_traits@D@std@@V?$allocator@D@2@@std@@VHNTreeNode@@@std@@@2@$0A@@std@@@2@PAU342@@Z 10029830 f i HNFilter.obj
 0001:00028830       ??$move@AAV?$_Tree_iterator@V?$_Tree_val@V?$_Tmap_traits@HV?$vector@HV?$allocator@H@std@@@std@@U?$less@H@2@V?$allocator@U?$pair@$$CBHV?$vector@HV?$allocator@H@std@@@std@@@std@@@2@$0A@@std@@@std@@@std@@@std@@YA$$QAV?$_Tree_iterator@V?$_Tree_val@V?$_Tmap_traits@HV?$vector@HV?$allocator@H@std@@@std@@U?$less@H@2@V?$allocator@U?$pair@$$CBHV?$vector@HV?$allocator@H@std@@@std@@@std@@@2@$0A@@std@@@std@@@0@AAV10@@Z 10029830 f i AFCSocket.obj
 0001:00028830       ??$move@AAV?$_Tree_iterator@V?$_Tree_val@V?$_Tmap_traits@V?$CStringT@DV?$StrTraitMFC_DLL@DV?$ChTraitsCRT@D@ATL@@@@@ATL@@PAVCBcfFileNameItem@@U?$less@V?$CStringT@DV?$StrTraitMFC_DLL@DV?$ChTraitsCRT@D@ATL@@@@@ATL@@@std@@V?$allocator@U?$pair@$$CBV?$CStringT@DV?$StrTraitMFC_DLL@DV?$ChTraitsCRT@D@ATL@@@@@ATL@@PAVCBcfFileNameItem@@@std@@@5@$0A@@std@@@std@@@std@@@std@@YA$$QAV?$_Tree_iterator@V?$_Tree_val@V?$_Tmap_traits@V?$CStringT@DV?$StrTraitMFC_DLL@DV?$ChTraitsCRT@D@ATL@@@@@ATL@@PAVCBcfFileNameItem@@U?$less@V?$CStringT@DV?$StrTraitMFC_DLL@DV?$ChTraitsCRT@D@ATL@@@@@ATL@@@std@@V?$allocator@U?$pair@$$CBV?$CStringT@DV?$StrTraitMFC_DLL@DV?$ChTraitsCRT@D@ATL@@@@@ATL@@PAVCBcfFileNameItem@@@std@@@5@$0A@@std@@@std@@@0@AAV10@@Z 10029830 f i MainManage.obj
 0001:00028830       ??$forward@V?$vector@HV?$allocator@H@std@@@std@@@std@@YA$$QAV?$vector@HV?$allocator@H@std@@@0@AAV10@@Z 10029830 f i AFCSocket.obj
 0001:00028830       ??$forward@V?$allocator@D@std@@@std@@YA$$QAV?$allocator@D@0@AAV10@@Z 10029830 f i Base64.obj
 0001:00028830       ??$forward@AAV?$basic_string@DU?$char_traits@D@std@@V?$allocator@D@2@@std@@@std@@YAAAV?$basic_string@DU?$char_traits@D@std@@V?$allocator@D@2@@0@AAV10@@Z 10029830 f i HNTreeNode.obj
 0001:00028830       ??$forward@_N@std@@YA$$QA_NAA_N@Z 10029830 f i AFCSocket.obj
 0001:00028830       ??$forward@D@std@@YA$$QADAAD@Z 10029830 f i WebSocketAssitInterface.obj
 0001:00028830       ??$forward@$$CBV?$CStringT@DV?$StrTraitMFC_DLL@DV?$ChTraitsCRT@D@ATL@@@@@ATL@@@std@@YA$$QBV?$CStringT@DV?$StrTraitMFC_DLL@DV?$ChTraitsCRT@D@ATL@@@@@ATL@@ABV12@@Z 10029830 f i MainManage.obj
 0001:00028830       ??$forward@AAI@std@@YAAAIAAI@Z 10029830 f i AFCSocket.obj
 0001:00028830       ??$forward@AAV?$_Tree_iterator@V?$_Tree_val@V?$_Tmap_traits@V?$CStringT@DV?$StrTraitMFC_DLL@DV?$ChTraitsCRT@D@ATL@@@@@ATL@@PAVCBcfListItem@@U?$less@V?$CStringT@DV?$StrTraitMFC_DLL@DV?$ChTraitsCRT@D@ATL@@@@@ATL@@@std@@V?$allocator@U?$pair@$$CBV?$CStringT@DV?$StrTraitMFC_DLL@DV?$ChTraitsCRT@D@ATL@@@@@ATL@@PAVCBcfListItem@@@std@@@5@$0A@@std@@@std@@@std@@@std@@YAAAV?$_Tree_iterator@V?$_Tree_val@V?$_Tmap_traits@V?$CStringT@DV?$StrTraitMFC_DLL@DV?$ChTraitsCRT@D@ATL@@@@@ATL@@PAVCBcfListItem@@U?$less@V?$CStringT@DV?$StrTraitMFC_DLL@DV?$ChTraitsCRT@D@ATL@@@@@ATL@@@std@@V?$allocator@U?$pair@$$CBV?$CStringT@DV?$StrTraitMFC_DLL@DV?$ChTraitsCRT@D@ATL@@@@@ATL@@PAVCBcfListItem@@@std@@@5@$0A@@std@@@std@@@0@AAV10@@Z 10029830 f i MainManage.obj
 0001:00028830       ??$addressof@$$CBH@std@@YAPBHABH@Z 10029830 f i AFCSocket.obj
 0001:00028830       ??$forward@AAU?$pair@$$CBV?$basic_string@DU?$char_traits@D@std@@V?$allocator@D@2@@std@@VHNTreeNode@@@std@@@std@@YAAAU?$pair@$$CBV?$basic_string@DU?$char_traits@D@std@@V?$allocator@D@2@@std@@VHNTreeNode@@@0@AAU10@@Z 10029830 f i HNFilter.obj
 0001:00028830       ??$move@AA_N@std@@YA$$QA_NAA_N@Z 10029830 f i AFCSocket.obj
 0001:00028830       ??$forward@U?$pair@$$CBV?$CStringT@DV?$StrTraitMFC_DLL@DV?$ChTraitsCRT@D@ATL@@@@@ATL@@PAVCBcfFileNameItem@@@std@@@std@@YA$$QAU?$pair@$$CBV?$CStringT@DV?$StrTraitMFC_DLL@DV?$ChTraitsCRT@D@ATL@@@@@ATL@@PAVCBcfFileNameItem@@@0@AAU10@@Z 10029830 f i MainManage.obj
 0001:00028830       ??$forward@ABH@std@@YAABHABH@Z 10029830 f i AFCSocket.obj
 0001:00028830       ??$move@AAV?$_Tree_iterator@V?$_Tree_val@V?$_Tmap_traits@V?$basic_string@DU?$char_traits@D@std@@V?$allocator@D@2@@std@@VHNTreeNode@@U?$less@V?$basic_string@DU?$char_traits@D@std@@V?$allocator@D@2@@std@@@2@V?$allocator@U?$pair@$$CBV?$basic_string@DU?$char_traits@D@std@@V?$allocator@D@2@@std@@VHNTreeNode@@@std@@@2@$0A@@std@@@std@@@std@@@std@@YA$$QAV?$_Tree_iterator@V?$_Tree_val@V?$_Tmap_traits@V?$basic_string@DU?$char_traits@D@std@@V?$allocator@D@2@@std@@VHNTreeNode@@U?$less@V?$basic_string@DU?$char_traits@D@std@@V?$allocator@D@2@@std@@@2@V?$allocator@U?$pair@$$CBV?$basic_string@DU?$char_traits@D@std@@V?$allocator@D@2@@std@@VHNTreeNode@@@std@@@2@$0A@@std@@@std@@@0@AAV10@@Z 10029830 f i HNTreeNode.obj
 0001:00028830       ??$forward@V?$basic_string@DU?$char_traits@D@std@@V?$allocator@D@2@@std@@@std@@YA$$QAV?$basic_string@DU?$char_traits@D@std@@V?$allocator@D@2@@0@AAV10@@Z 10029830 f i Base64.obj
 0001:00028830       ??$move@AAV?$_Tree_iterator@V?$_Tree_val@V?$_Tmap_traits@V?$CStringT@DV?$StrTraitMFC_DLL@DV?$ChTraitsCRT@D@ATL@@@@@ATL@@PAVCBcfListItem@@U?$less@V?$CStringT@DV?$StrTraitMFC_DLL@DV?$ChTraitsCRT@D@ATL@@@@@ATL@@@std@@V?$allocator@U?$pair@$$CBV?$CStringT@DV?$StrTraitMFC_DLL@DV?$ChTraitsCRT@D@ATL@@@@@ATL@@PAVCBcfListItem@@@std@@@5@$0A@@std@@@std@@@std@@@std@@YA$$QAV?$_Tree_iterator@V?$_Tree_val@V?$_Tmap_traits@V?$CStringT@DV?$StrTraitMFC_DLL@DV?$ChTraitsCRT@D@ATL@@@@@ATL@@PAVCBcfListItem@@U?$less@V?$CStringT@DV?$StrTraitMFC_DLL@DV?$ChTraitsCRT@D@ATL@@@@@ATL@@@std@@V?$allocator@U?$pair@$$CBV?$CStringT@DV?$StrTraitMFC_DLL@DV?$ChTraitsCRT@D@ATL@@@@@ATL@@PAVCBcfListItem@@@std@@@5@$0A@@std@@@std@@@0@AAV10@@Z 10029830 f i MainManage.obj
 0001:00028830       ??$forward@AAD@std@@YAAADAAD@Z 10029830 f i WebSocketAssitInterface.obj
 0001:00028830       ?_Left@?$_Tree_val@V?$_Tmap_traits@V?$CStringT@DV?$StrTraitMFC_DLL@DV?$ChTraitsCRT@D@ATL@@@@@ATL@@PAVCBcfFileNameItem@@U?$less@V?$CStringT@DV?$StrTraitMFC_DLL@DV?$ChTraitsCRT@D@ATL@@@@@ATL@@@std@@V?$allocator@U?$pair@$$CBV?$CStringT@DV?$StrTraitMFC_DLL@DV?$ChTraitsCRT@D@ATL@@@@@ATL@@PAVCBcfFileNameItem@@@std@@@5@$0A@@std@@@std@@SAAAPAU_Node@?$_Tree_nod@V?$_Tmap_traits@V?$CStringT@DV?$StrTraitMFC_DLL@DV?$ChTraitsCRT@D@ATL@@@@@ATL@@PAVCBcfFileNameItem@@U?$less@V?$CStringT@DV?$StrTraitMFC_DLL@DV?$ChTraitsCRT@D@ATL@@@@@ATL@@@std@@V?$allocator@U?$pair@$$CBV?$CStringT@DV?$StrTraitMFC_DLL@DV?$ChTraitsCRT@D@ATL@@@@@ATL@@PAVCBcfFileNameItem@@@std@@@5@$0A@@std@@@2@PAU342@@Z 10029830 f i MainManage.obj
 0001:00028830       ??$forward@AAV?$_Tree_iterator@V?$_Tree_val@V?$_Tmap_traits@HV?$vector@HV?$allocator@H@std@@@std@@U?$less@H@2@V?$allocator@U?$pair@$$CBHV?$vector@HV?$allocator@H@std@@@std@@@std@@@2@$0A@@std@@@std@@@std@@@std@@YAAAV?$_Tree_iterator@V?$_Tree_val@V?$_Tmap_traits@HV?$vector@HV?$allocator@H@std@@@std@@U?$less@H@2@V?$allocator@U?$pair@$$CBHV?$vector@HV?$allocator@H@std@@@std@@@std@@@2@$0A@@std@@@std@@@0@AAV10@@Z 10029830 f i AFCSocket.obj
 0001:00028830       ??$addressof@U?$pair@$$CBV?$basic_string@DU?$char_traits@D@std@@V?$allocator@D@2@@std@@VHNTreeNode@@@std@@@std@@YAPAU?$pair@$$CBV?$basic_string@DU?$char_traits@D@std@@V?$allocator@D@2@@std@@VHNTreeNode@@@0@AAU10@@Z 10029830 f i HNFilter.obj
 0001:00028830       ??$forward@U?$pair@$$CBV?$CStringT@DV?$StrTraitMFC_DLL@DV?$ChTraitsCRT@D@ATL@@@@@ATL@@PAVCBcfListItem@@@std@@@std@@YA$$QAU?$pair@$$CBV?$CStringT@DV?$StrTraitMFC_DLL@DV?$ChTraitsCRT@D@ATL@@@@@ATL@@PAVCBcfListItem@@@0@AAU10@@Z 10029830 f i MainManage.obj
 0001:00028830       ??$forward@PAVCBcfFileNameItem@@@std@@YA$$QAPAVCBcfFileNameItem@@AAPAV1@@Z 10029830 f i MainManage.obj
 0001:00028830       ??$move@AAPAVCBcfFileNameItem@@@std@@YA$$QAPAVCBcfFileNameItem@@AAPAV1@@Z 10029830 f i MainManage.obj
 0001:00028830       ??$forward@AAV?$_Tree_iterator@V?$_Tree_val@V?$_Tmap_traits@V?$CStringT@DV?$StrTraitMFC_DLL@DV?$ChTraitsCRT@D@ATL@@@@@ATL@@PAVCBcfFileNameItem@@U?$less@V?$CStringT@DV?$StrTraitMFC_DLL@DV?$ChTraitsCRT@D@ATL@@@@@ATL@@@std@@V?$allocator@U?$pair@$$CBV?$CStringT@DV?$StrTraitMFC_DLL@DV?$ChTraitsCRT@D@ATL@@@@@ATL@@PAVCBcfFileNameItem@@@std@@@5@$0A@@std@@@std@@@std@@@std@@YAAAV?$_Tree_iterator@V?$_Tree_val@V?$_Tmap_traits@V?$CStringT@DV?$StrTraitMFC_DLL@DV?$ChTraitsCRT@D@ATL@@@@@ATL@@PAVCBcfFileNameItem@@U?$less@V?$CStringT@DV?$StrTraitMFC_DLL@DV?$ChTraitsCRT@D@ATL@@@@@ATL@@@std@@V?$allocator@U?$pair@$$CBV?$CStringT@DV?$StrTraitMFC_DLL@DV?$ChTraitsCRT@D@ATL@@@@@ATL@@PAVCBcfFileNameItem@@@std@@@5@$0A@@std@@@std@@@0@AAV10@@Z 10029830 f i MainManage.obj
 0001:00028830       ??$forward@AAV?$vector@HV?$allocator@H@std@@@std@@@std@@YAAAV?$vector@HV?$allocator@H@std@@@0@AAV10@@Z 10029830 f i AFCSocket.obj
 0001:00028830       ??$addressof@D@std@@YAPADAAD@Z 10029830 f i WebSocketAssitInterface.obj
 0001:00028830       ??$forward@AAVHNTreeNode@@@std@@YAAAVHNTreeNode@@AAV1@@Z 10029830 f i HNFilter.obj
 0001:00028830       ??$_Kfn@$$CBHV?$vector@HV?$allocator@H@std@@@std@@@?$_Tmap_traits@HV?$vector@HV?$allocator@H@std@@@std@@U?$less@H@2@V?$allocator@U?$pair@$$CBHV?$vector@HV?$allocator@H@std@@@std@@@std@@@2@$0A@@std@@SAABHABU?$pair@$$CBHV?$vector@HV?$allocator@H@std@@@std@@@1@@Z 10029830 f i AFCSocket.obj
 0001:00028830       ?_Nextnode@?$_List_val@PAUFILEINFO@@V?$allocator@PAUFILEINFO@@@std@@@std@@SAAAPAU_Node@?$_List_nod@PAUFILEINFO@@V?$allocator@PAUFILEINFO@@@std@@@2@PAU342@@Z 10029830 f i HNSmtp.obj
 0001:00028830       ??$forward@ABV?$basic_string@DU?$char_traits@D@std@@V?$allocator@D@2@@std@@@std@@YAABV?$basic_string@DU?$char_traits@D@std@@V?$allocator@D@2@@0@ABV10@@Z 10029830 f i HNFilter.obj
 0001:00028830       ?_Left@?$_Tree_val@V?$_Tmap_traits@HV?$vector@HV?$allocator@H@std@@@std@@U?$less@H@2@V?$allocator@U?$pair@$$CBHV?$vector@HV?$allocator@H@std@@@std@@@std@@@2@$0A@@std@@@std@@SAAAPAU_Node@?$_Tree_nod@V?$_Tmap_traits@HV?$vector@HV?$allocator@H@std@@@std@@U?$less@H@2@V?$allocator@U?$pair@$$CBHV?$vector@HV?$allocator@H@std@@@std@@@std@@@2@$0A@@std@@@2@PAU342@@Z 10029830 f i AFCSocket.obj
 0001:00028830       ??$addressof@$$CBD@std@@YAPBDABD@Z 10029830 f i WebSocketAssitInterface.obj
 0001:00028830       ??$forward@ABQAUFILEINFO@@@std@@YAABQAUFILEINFO@@ABQAU1@@Z 10029830 f i HNSmtp.obj
 0001:00028830       ??$forward@PAVCBcfListItem@@@std@@YA$$QAPAVCBcfListItem@@AAPAV1@@Z 10029830 f i MainManage.obj
 0001:00028830       ??$addressof@U?$pair@$$CBV?$CStringT@DV?$StrTraitMFC_DLL@DV?$ChTraitsCRT@D@ATL@@@@@ATL@@PAVCBcfFileNameItem@@@std@@@std@@YAPAU?$pair@$$CBV?$CStringT@DV?$StrTraitMFC_DLL@DV?$ChTraitsCRT@D@ATL@@@@@ATL@@PAVCBcfFileNameItem@@@0@AAU10@@Z 10029830 f i MainManage.obj
 0001:00028830       ??$addressof@PAUFILEINFO@@@std@@YAPAPAUFILEINFO@@AAPAU1@@Z 10029830 f i HNSmtp.obj
 0001:00028830       ??$forward@AAV?$_Tree_iterator@V?$_Tree_val@V?$_Tmap_traits@V?$basic_string@DU?$char_traits@D@std@@V?$allocator@D@2@@std@@VHNTreeNode@@U?$less@V?$basic_string@DU?$char_traits@D@std@@V?$allocator@D@2@@std@@@2@V?$allocator@U?$pair@$$CBV?$basic_string@DU?$char_traits@D@std@@V?$allocator@D@2@@std@@VHNTreeNode@@@std@@@2@$0A@@std@@@std@@@std@@@std@@YAAAV?$_Tree_iterator@V?$_Tree_val@V?$_Tmap_traits@V?$basic_string@DU?$char_traits@D@std@@V?$allocator@D@2@@std@@VHNTreeNode@@U?$less@V?$basic_string@DU?$char_traits@D@std@@V?$allocator@D@2@@std@@@2@V?$allocator@U?$pair@$$CBV?$basic_string@DU?$char_traits@D@std@@V?$allocator@D@2@@std@@VHNTreeNode@@@std@@@2@$0A@@std@@@std@@@0@AAV10@@Z 10029830 f i HNTreeNode.obj
 0001:00028830       ??$move@AAV?$basic_string@DU?$char_traits@D@std@@V?$allocator@D@2@@std@@@std@@YA$$QAV?$basic_string@DU?$char_traits@D@std@@V?$allocator@D@2@@0@AAV10@@Z 10029830 f i WebSocketAssitInterface.obj
 0001:00028830       ??$_Kfn@$$CBV?$CStringT@DV?$StrTraitMFC_DLL@DV?$ChTraitsCRT@D@ATL@@@@@ATL@@PAVCBcfListItem@@@?$_Tmap_traits@V?$CStringT@DV?$StrTraitMFC_DLL@DV?$ChTraitsCRT@D@ATL@@@@@ATL@@PAVCBcfListItem@@U?$less@V?$CStringT@DV?$StrTraitMFC_DLL@DV?$ChTraitsCRT@D@ATL@@@@@ATL@@@std@@V?$allocator@U?$pair@$$CBV?$CStringT@DV?$StrTraitMFC_DLL@DV?$ChTraitsCRT@D@ATL@@@@@ATL@@PAVCBcfListItem@@@std@@@5@$0A@@std@@SAABV?$CStringT@DV?$StrTraitMFC_DLL@DV?$ChTraitsCRT@D@ATL@@@@@ATL@@ABU?$pair@$$CBV?$CStringT@DV?$StrTraitMFC_DLL@DV?$ChTraitsCRT@D@ATL@@@@@ATL@@PAVCBcfListItem@@@1@@Z 10029830 f i MainManage.obj
 0001:00028830       ??$forward@U?$pair@V?$basic_string@DU?$char_traits@D@std@@V?$allocator@D@2@@std@@VHNTreeNode@@@std@@@std@@YA$$QAU?$pair@V?$basic_string@DU?$char_traits@D@std@@V?$allocator@D@2@@std@@VHNTreeNode@@@0@AAU10@@Z 10029830 f i HNTreeNode.obj
 0001:00028830       ??$forward@VHNTreeNode@@@std@@YA$$QAVHNTreeNode@@AAV1@@Z 10029830 f i HNTreeNode.obj
 0001:00028830       ??$addressof@U?$pair@$$CBV?$CStringT@DV?$StrTraitMFC_DLL@DV?$ChTraitsCRT@D@ATL@@@@@ATL@@PAVCBcfListItem@@@std@@@std@@YAPAU?$pair@$$CBV?$CStringT@DV?$StrTraitMFC_DLL@DV?$ChTraitsCRT@D@ATL@@@@@ATL@@PAVCBcfListItem@@@0@AAU10@@Z 10029830 f i MainManage.obj
 0001:00028830       ??$move@ABV?$CStringT@DV?$StrTraitMFC_DLL@DV?$ChTraitsCRT@D@ATL@@@@@ATL@@@std@@YA$$QBV?$CStringT@DV?$StrTraitMFC_DLL@DV?$ChTraitsCRT@D@ATL@@@@@ATL@@ABV12@@Z 10029830 f i MainManage.obj
 0001:00028830       ??$forward@H@std@@YA$$QAHAAH@Z 10029830 f i AFCSocket.obj
 0001:00028830       ??$_Kfn@$$CBV?$CStringT@DV?$StrTraitMFC_DLL@DV?$ChTraitsCRT@D@ATL@@@@@ATL@@PAVCBcfFileNameItem@@@?$_Tmap_traits@V?$CStringT@DV?$StrTraitMFC_DLL@DV?$ChTraitsCRT@D@ATL@@@@@ATL@@PAVCBcfFileNameItem@@U?$less@V?$CStringT@DV?$StrTraitMFC_DLL@DV?$ChTraitsCRT@D@ATL@@@@@ATL@@@std@@V?$allocator@U?$pair@$$CBV?$CStringT@DV?$StrTraitMFC_DLL@DV?$ChTraitsCRT@D@ATL@@@@@ATL@@PAVCBcfFileNameItem@@@std@@@5@$0A@@std@@SAABV?$CStringT@DV?$StrTraitMFC_DLL@DV?$ChTraitsCRT@D@ATL@@@@@ATL@@ABU?$pair@$$CBV?$CStringT@DV?$StrTraitMFC_DLL@DV?$ChTraitsCRT@D@ATL@@@@@ATL@@PAVCBcfFileNameItem@@@1@@Z 10029830 f i MainManage.obj
 0001:00028850       ??0?$_List_nod@PAUFILEINFO@@V?$allocator@PAUFILEINFO@@@std@@@std@@QAE@V?$allocator@PAUFILEINFO@@@1@@Z 10029850 f i HNSmtp.obj
 0001:00028890       ?allocate@?$allocator@U_Node@?$_List_nod@PAUFILEINFO@@V?$allocator@PAUFILEINFO@@@std@@@std@@@std@@QAEPAU_Node@?$_List_nod@PAUFILEINFO@@V?$allocator@PAUFILEINFO@@@std@@@2@I@Z 10029890 f i HNSmtp.obj
 0001:000288c0       ??0_Sentry_base@?$basic_ostream@DU?$char_traits@D@std@@@std@@QAE@AAV12@@Z 100298c0 f i HNSmtp.obj
 0001:00028920       ??1_Sentry_base@?$basic_ostream@DU?$char_traits@D@std@@@std@@QAE@XZ 10029920 f i HNSmtp.obj
 0001:00028980       ??0?$_List_iterator@V?$_List_val@PAUFILEINFO@@V?$allocator@PAUFILEINFO@@@std@@@std@@@std@@QAE@PAU_Node@?$_List_nod@PAUFILEINFO@@V?$allocator@PAUFILEINFO@@@std@@@1@PBV?$_List_val@PAUFILEINFO@@V?$allocator@PAUFILEINFO@@@std@@@1@@Z 10029980 f i HNSmtp.obj
 0001:00028980       ??0?$_Tree_iterator@V?$_Tree_val@V?$_Tmap_traits@V?$CStringT@DV?$StrTraitMFC_DLL@DV?$ChTraitsCRT@D@ATL@@@@@ATL@@PAVCBcfFileNameItem@@U?$less@V?$CStringT@DV?$StrTraitMFC_DLL@DV?$ChTraitsCRT@D@ATL@@@@@ATL@@@std@@V?$allocator@U?$pair@$$CBV?$CStringT@DV?$StrTraitMFC_DLL@DV?$ChTraitsCRT@D@ATL@@@@@ATL@@PAVCBcfFileNameItem@@@std@@@5@$0A@@std@@@std@@@std@@QAE@PAU_Node@?$_Tree_nod@V?$_Tmap_traits@V?$CStringT@DV?$StrTraitMFC_DLL@DV?$ChTraitsCRT@D@ATL@@@@@ATL@@PAVCBcfFileNameItem@@U?$less@V?$CStringT@DV?$StrTraitMFC_DLL@DV?$ChTraitsCRT@D@ATL@@@@@ATL@@@std@@V?$allocator@U?$pair@$$CBV?$CStringT@DV?$StrTraitMFC_DLL@DV?$ChTraitsCRT@D@ATL@@@@@ATL@@PAVCBcfFileNameItem@@@std@@@5@$0A@@std@@@1@PBV?$_Tree_val@V?$_Tmap_traits@V?$CStringT@DV?$StrTraitMFC_DLL@DV?$ChTraitsCRT@D@ATL@@@@@ATL@@PAVCBcfFileNameItem@@U?$less@V?$CStringT@DV?$StrTraitMFC_DLL@DV?$ChTraitsCRT@D@ATL@@@@@ATL@@@std@@V?$allocator@U?$pair@$$CBV?$CStringT@DV?$StrTraitMFC_DLL@DV?$ChTraitsCRT@D@ATL@@@@@ATL@@PAVCBcfFileNameItem@@@std@@@5@$0A@@std@@@1@@Z 10029980 f i MainManage.obj
 0001:00028980       ??0?$_Tree_iterator@V?$_Tree_val@V?$_Tmap_traits@V?$basic_string@DU?$char_traits@D@std@@V?$allocator@D@2@@std@@VHNTreeNode@@U?$less@V?$basic_string@DU?$char_traits@D@std@@V?$allocator@D@2@@std@@@2@V?$allocator@U?$pair@$$CBV?$basic_string@DU?$char_traits@D@std@@V?$allocator@D@2@@std@@VHNTreeNode@@@std@@@2@$0A@@std@@@std@@@std@@QAE@PAU_Node@?$_Tree_nod@V?$_Tmap_traits@V?$basic_string@DU?$char_traits@D@std@@V?$allocator@D@2@@std@@VHNTreeNode@@U?$less@V?$basic_string@DU?$char_traits@D@std@@V?$allocator@D@2@@std@@@2@V?$allocator@U?$pair@$$CBV?$basic_string@DU?$char_traits@D@std@@V?$allocator@D@2@@std@@VHNTreeNode@@@std@@@2@$0A@@std@@@1@PBV?$_Tree_val@V?$_Tmap_traits@V?$basic_string@DU?$char_traits@D@std@@V?$allocator@D@2@@std@@VHNTreeNode@@U?$less@V?$basic_string@DU?$char_traits@D@std@@V?$allocator@D@2@@std@@@2@V?$allocator@U?$pair@$$CBV?$basic_string@DU?$char_traits@D@std@@V?$allocator@D@2@@std@@VHNTreeNode@@@std@@@2@$0A@@std@@@1@@Z 10029980 f i HNFilter.obj
 0001:00028980       ??0?$_Tree_iterator@V?$_Tree_val@V?$_Tmap_traits@HV?$vector@HV?$allocator@H@std@@@std@@U?$less@H@2@V?$allocator@U?$pair@$$CBHV?$vector@HV?$allocator@H@std@@@std@@@std@@@2@$0A@@std@@@std@@@std@@QAE@PAU_Node@?$_Tree_nod@V?$_Tmap_traits@HV?$vector@HV?$allocator@H@std@@@std@@U?$less@H@2@V?$allocator@U?$pair@$$CBHV?$vector@HV?$allocator@H@std@@@std@@@std@@@2@$0A@@std@@@1@PBV?$_Tree_val@V?$_Tmap_traits@HV?$vector@HV?$allocator@H@std@@@std@@U?$less@H@2@V?$allocator@U?$pair@$$CBHV?$vector@HV?$allocator@H@std@@@std@@@std@@@2@$0A@@std@@@1@@Z 10029980 f i AFCSocket.obj
 0001:00028980       ??0?$_Tree_iterator@V?$_Tree_val@V?$_Tmap_traits@V?$CStringT@DV?$StrTraitMFC_DLL@DV?$ChTraitsCRT@D@ATL@@@@@ATL@@PAVCBcfListItem@@U?$less@V?$CStringT@DV?$StrTraitMFC_DLL@DV?$ChTraitsCRT@D@ATL@@@@@ATL@@@std@@V?$allocator@U?$pair@$$CBV?$CStringT@DV?$StrTraitMFC_DLL@DV?$ChTraitsCRT@D@ATL@@@@@ATL@@PAVCBcfListItem@@@std@@@5@$0A@@std@@@std@@@std@@QAE@PAU_Node@?$_Tree_nod@V?$_Tmap_traits@V?$CStringT@DV?$StrTraitMFC_DLL@DV?$ChTraitsCRT@D@ATL@@@@@ATL@@PAVCBcfListItem@@U?$less@V?$CStringT@DV?$StrTraitMFC_DLL@DV?$ChTraitsCRT@D@ATL@@@@@ATL@@@std@@V?$allocator@U?$pair@$$CBV?$CStringT@DV?$StrTraitMFC_DLL@DV?$ChTraitsCRT@D@ATL@@@@@ATL@@PAVCBcfListItem@@@std@@@5@$0A@@std@@@1@PBV?$_Tree_val@V?$_Tmap_traits@V?$CStringT@DV?$StrTraitMFC_DLL@DV?$ChTraitsCRT@D@ATL@@@@@ATL@@PAVCBcfListItem@@U?$less@V?$CStringT@DV?$StrTraitMFC_DLL@DV?$ChTraitsCRT@D@ATL@@@@@ATL@@@std@@V?$allocator@U?$pair@$$CBV?$CStringT@DV?$StrTraitMFC_DLL@DV?$ChTraitsCRT@D@ATL@@@@@ATL@@PAVCBcfListItem@@@std@@@5@$0A@@std@@@1@@Z 10029980 f i MainManage.obj
 0001:000289b0       ??$_Dest_val@V?$allocator@H@std@@H@std@@YAXAAV?$allocator@H@0@PAH@Z 100299b0 f i AFCSocket.obj
 0001:000289b0       ??$_Dest_val@V?$allocator@U_Node@?$_List_nod@PAUFILEINFO@@V?$allocator@PAUFILEINFO@@@std@@@std@@@std@@U_Node@?$_List_nod@PAUFILEINFO@@V?$allocator@PAUFILEINFO@@@std@@@2@@std@@YAXAAV?$allocator@U_Node@?$_List_nod@PAUFILEINFO@@V?$allocator@PAUFILEINFO@@@std@@@std@@@0@PAU_Node@?$_List_nod@PAUFILEINFO@@V?$allocator@PAUFILEINFO@@@std@@@0@@Z 100299b0 f i HNSmtp.obj
 0001:000289b0       ??$_Dest_val@V?$allocator@D@std@@D@std@@YAXAAV?$allocator@D@0@PAD@Z 100299b0 f i WebSocketAssitInterface.obj
 0001:000289d0       ??$_Allocate@U_Node@?$_List_nod@PAUFILEINFO@@V?$allocator@PAUFILEINFO@@@std@@@std@@@std@@YAPAU_Node@?$_List_nod@PAUFILEINFO@@V?$allocator@PAUFILEINFO@@@std@@@0@IPAU120@@Z 100299d0 f i HNSmtp.obj
 0001:00028a40       ?destroy@?$allocator@H@std@@QAEXPAH@Z 10029a40 f i AFCSocket.obj
 0001:00028a40       ?destroy@?$allocator@D@std@@QAEXPAD@Z 10029a40 f i WebSocketAssitInterface.obj
 0001:00028a40       ?destroy@?$allocator@U_Node@?$_List_nod@PAUFILEINFO@@V?$allocator@PAUFILEINFO@@@std@@@std@@@std@@QAEXPAU_Node@?$_List_nod@PAUFILEINFO@@V?$allocator@PAUFILEINFO@@@std@@@2@@Z 10029a40 f i HNSmtp.obj
 0001:00028a70       ?_Insert@?$list@PAUFILEINFO@@V?$allocator@PAUFILEINFO@@@std@@@std@@QAEXV?$_List_const_iterator@V?$_List_val@PAUFILEINFO@@V?$allocator@PAUFILEINFO@@@std@@@std@@@2@ABQAUFILEINFO@@@Z 10029a70 f i HNSmtp.obj
 0001:00028af0       ?erase@?$list@PAUFILEINFO@@V?$allocator@PAUFILEINFO@@@std@@@std@@QAE?AV?$_List_iterator@V?$_List_val@PAUFILEINFO@@V?$allocator@PAUFILEINFO@@@std@@@std@@@2@V?$_List_const_iterator@V?$_List_val@PAUFILEINFO@@V?$allocator@PAUFILEINFO@@@std@@@std@@@2@@Z 10029af0 f i HNSmtp.obj
 0001:00028bd0       ??D?$_List_const_iterator@V?$_List_val@PAUFILEINFO@@V?$allocator@PAUFILEINFO@@@std@@@std@@@std@@QBEABQAUFILEINFO@@XZ 10029bd0 f i HNSmtp.obj
 0001:00028c00       ??E?$_List_const_iterator@V?$_List_val@PAUFILEINFO@@V?$allocator@PAUFILEINFO@@@std@@@std@@@std@@QAEAAV01@XZ 10029c00 f i HNSmtp.obj
 0001:00028c30       ??9?$_Tree_const_iterator@V?$_Tree_val@V?$_Tmap_traits@HV?$vector@HV?$allocator@H@std@@@std@@U?$less@H@2@V?$allocator@U?$pair@$$CBHV?$vector@HV?$allocator@H@std@@@std@@@std@@@2@$0A@@std@@@std@@@std@@QBE_NABV01@@Z 10029c30 f i AFCSocket.obj
 0001:00028c30       ??9?$_Tree_const_iterator@V?$_Tree_val@V?$_Tmap_traits@V?$CStringT@DV?$StrTraitMFC_DLL@DV?$ChTraitsCRT@D@ATL@@@@@ATL@@PAVCBcfListItem@@U?$less@V?$CStringT@DV?$StrTraitMFC_DLL@DV?$ChTraitsCRT@D@ATL@@@@@ATL@@@std@@V?$allocator@U?$pair@$$CBV?$CStringT@DV?$StrTraitMFC_DLL@DV?$ChTraitsCRT@D@ATL@@@@@ATL@@PAVCBcfListItem@@@std@@@5@$0A@@std@@@std@@@std@@QBE_NABV01@@Z 10029c30 f i MainManage.obj
 0001:00028c30       ??9?$_Tree_const_iterator@V?$_Tree_val@V?$_Tmap_traits@V?$CStringT@DV?$StrTraitMFC_DLL@DV?$ChTraitsCRT@D@ATL@@@@@ATL@@PAVCBcfFileNameItem@@U?$less@V?$CStringT@DV?$StrTraitMFC_DLL@DV?$ChTraitsCRT@D@ATL@@@@@ATL@@@std@@V?$allocator@U?$pair@$$CBV?$CStringT@DV?$StrTraitMFC_DLL@DV?$ChTraitsCRT@D@ATL@@@@@ATL@@PAVCBcfFileNameItem@@@std@@@5@$0A@@std@@@std@@@std@@QBE_NABV01@@Z 10029c30 f i MainManage.obj
 0001:00028c30       ??9?$_List_const_iterator@V?$_List_val@PAUFILEINFO@@V?$allocator@PAUFILEINFO@@@std@@@std@@@std@@QBE_NABV01@@Z 10029c30 f i HNSmtp.obj
 0001:00028c30       ??9?$_Tree_const_iterator@V?$_Tree_val@V?$_Tmap_traits@V?$basic_string@DU?$char_traits@D@std@@V?$allocator@D@2@@std@@VHNTreeNode@@U?$less@V?$basic_string@DU?$char_traits@D@std@@V?$allocator@D@2@@std@@@2@V?$allocator@U?$pair@$$CBV?$basic_string@DU?$char_traits@D@std@@V?$allocator@D@2@@std@@VHNTreeNode@@@std@@@2@$0A@@std@@@std@@@std@@QBE_NABV01@@Z 10029c30 f i HNFilter.obj
 0001:00028c60       ?_Make_iter@?$list@PAUFILEINFO@@V?$allocator@PAUFILEINFO@@@std@@@std@@QBE?AV?$_List_iterator@V?$_List_val@PAUFILEINFO@@V?$allocator@PAUFILEINFO@@@std@@@std@@@2@V?$_List_const_iterator@V?$_List_val@PAUFILEINFO@@V?$allocator@PAUFILEINFO@@@std@@@std@@@2@@Z 10029c60 f i HNSmtp.obj
 0001:00028c90       ?_Incsize@?$list@PAUFILEINFO@@V?$allocator@PAUFILEINFO@@@std@@@std@@QAEXI@Z 10029c90 f i HNSmtp.obj
 0001:00028ce0       ?_Buynode@?$_List_val@PAUFILEINFO@@V?$allocator@PAUFILEINFO@@@std@@@std@@QAEPAU_Node@?$_List_nod@PAUFILEINFO@@V?$allocator@PAUFILEINFO@@@std@@@2@PAU342@0ABQAUFILEINFO@@@Z 10029ce0 f i HNSmtp.obj
 0001:00028dd0       ??E?$_List_const_iterator@V?$_List_val@PAUFILEINFO@@V?$allocator@PAUFILEINFO@@@std@@@std@@@std@@QAE?AV01@H@Z 10029dd0 f i HNSmtp.obj
 0001:00028e00       ?max_size@?$list@PAUFILEINFO@@V?$allocator@PAUFILEINFO@@@std@@@std@@QBEIXZ 10029e00 f i HNSmtp.obj
 0001:00028e20       ??$_Cons_val@V?$allocator@PAUFILEINFO@@@std@@PAUFILEINFO@@ABQAU3@@std@@YAXAAV?$allocator@PAUFILEINFO@@@0@PAPAUFILEINFO@@ABQAU2@@Z 10029e20 f i HNSmtp.obj
 0001:00028e20       ??$_Cons_val@V?$allocator@H@std@@HABH@std@@YAXAAV?$allocator@H@0@PAHABH@Z 10029e20 f i AFCSocket.obj
 0001:00028e50       ?construct@?$allocator@PAUFILEINFO@@@std@@QAEXPAPAUFILEINFO@@ABQAU3@@Z 10029e50 f i HNSmtp.obj
 0001:00028e50       ?construct@?$allocator@H@std@@QAEXPAHABH@Z 10029e50 f i AFCSocket.obj
 0001:00028e80       ??$_Construct@PAUFILEINFO@@ABQAU1@@std@@YAXPAPAUFILEINFO@@ABQAU1@@Z 10029e80 f i HNSmtp.obj
 0001:00028e80       ??$_Construct@HABH@std@@YAXPAHABH@Z 10029e80 f i AFCSocket.obj
 0001:00028f10       ??_ECBaseMainManage@@UAEPAXI@Z 10029f10 f i MainManage.obj
 0001:00028f90       ?IsFileExist@CBcfFile@@QAE_NXZ 10029f90 f i MainManage.obj
 0001:00028fb0       ?my_atoi@CBcfFile@@SA_JPBD@Z 10029fb0 f i MainManage.obj
 0001:000290a0       ?ClearMap@CBcfFile@@SAXXZ  1002a0a0 f i MainManage.obj
 0001:00029130       ?GetWinSysPath@CBcfFile@@SA?AV?$CStringT@DV?$StrTraitMFC_DLL@DV?$ChTraitsCRT@D@ATL@@@@@ATL@@XZ 1002a130 f i MainManage.obj
 0001:00029200       ?IsFileExist@CBcfFile@@SA_NV?$CStringT@DV?$StrTraitMFC_DLL@DV?$ChTraitsCRT@D@ATL@@@@@ATL@@@Z 1002a200 f i MainManage.obj
 0001:00029280       ?GetAppPath@CBcfFile@@SA?AV?$CStringT@DV?$StrTraitMFC_DLL@DV?$ChTraitsCRT@D@ATL@@@@@ATL@@_N@Z 1002a280 f i MainManage.obj
 0001:000295b0       ??0CBcfFile@@QAE@V?$CStringT@DV?$StrTraitMFC_DLL@DV?$ChTraitsCRT@D@ATL@@@@@ATL@@@Z 1002a5b0 f i MainManage.obj
 0001:000296b0       ??1CBcfFile@@QAE@XZ        1002a6b0 f i MainManage.obj
 0001:000296d0       ?SetKeyValString@CBcfFile@@QAEXV?$CStringT@DV?$StrTraitMFC_DLL@DV?$ChTraitsCRT@D@ATL@@@@@ATL@@00@Z 1002a6d0 f i MainManage.obj
 0001:00029700       ??1SHA1@HN@@QAE@XZ         1002a700 f i sha1.obj
 0001:00029700       ??1yxyDES@@QAE@XZ          1002a700 f i yxyDES.obj
 0001:00029700       ?CloseFile@CBcfFile@@QAEXXZ 1002a700 f i MainManage.obj
 0001:00029700       ??1?$_Vector_val@HV?$allocator@H@std@@@std@@QAE@XZ 1002a700 f i AFCSocket.obj
 0001:00029700       ??1?$_String_val@DV?$allocator@D@std@@@std@@QAE@XZ 1002a700 f i Base64.obj
 0001:00029700       ?AssertValid@CObject@@UBEXXZ 1002a700 f i AFCSocket.obj
 0001:00029700       ??1?$_Vector_val@DV?$allocator@D@std@@@std@@QAE@XZ 1002a700 f i AFCWebSocket.obj
 0001:00029700       ?OnUnInit@HNTree@@QAEXXZ   1002a700 f i HNTree.obj
 0001:00029700       ??1CObject@@UAE@XZ         1002a700 f i DataLine.obj
 0001:00029720       ?GetKeyVal@CBcfFile@@QAEHV?$CStringT@DV?$StrTraitMFC_DLL@DV?$ChTraitsCRT@D@ATL@@@@@ATL@@0H@Z 1002a720 f i MainManage.obj
 0001:00029920       ?GetValue@CBcfKeyItem@@QAE?AV?$CStringT@DV?$StrTraitMFC_DLL@DV?$ChTraitsCRT@D@ATL@@@@@ATL@@XZ 1002a920 f i MainManage.obj
 0001:00029960       ?GetKeyVal@CBcfFile@@QAE_JV?$CStringT@DV?$StrTraitMFC_DLL@DV?$ChTraitsCRT@D@ATL@@@@@ATL@@0_J@Z 1002a960 f i MainManage.obj
 0001:00029aa0       ?GetKeyVal@CBcfFile@@QAE?AV?$CStringT@DV?$StrTraitMFC_DLL@DV?$ChTraitsCRT@D@ATL@@@@@ATL@@V23@0PBD@Z 1002aaa0 f i MainManage.obj
 0001:00029ca0       ?GetKeyMemo@CBcfFile@@QAE?AV?$CStringT@DV?$StrTraitMFC_DLL@DV?$ChTraitsCRT@D@ATL@@@@@ATL@@V23@0PBD@Z 1002aca0 f i MainManage.obj
 0001:00029ea0       ?GetMemo@CBcfKeyItem@@QAE?AV?$CStringT@DV?$StrTraitMFC_DLL@DV?$ChTraitsCRT@D@ATL@@@@@ATL@@XZ 1002aea0 f i MainManage.obj
 0001:00029ee0       ?UpperString@CBcfFile@@AAEPADPADPBD@Z 1002aee0 f i MainManage.obj
 0001:00029f80       ?ReadBcfFile@CBcfFile@@AAE_NV?$CStringT@DV?$StrTraitMFC_DLL@DV?$ChTraitsCRT@D@ATL@@@@@ATL@@@Z 1002af80 f i MainManage.obj
 0001:0002a390       ??0CBcfKeyItem@@QAE@V?$CStringT@DV?$StrTraitMFC_DLL@DV?$ChTraitsCRT@D@ATL@@@@@ATL@@00@Z 1002b390 f i MainManage.obj
 0001:0002a450       ??0CBcfListItem@@QAE@XZ    1002b450 f i MainManage.obj
 0001:0002a4c0       ??1CBcfListItem@@UAE@XZ    1002b4c0 f i MainManage.obj
 0001:0002a5b0       ??_GCBcfListItem@@UAEPAXI@Z 1002b5b0 f i MainManage.obj
 0001:0002a5b0       ??_ECBcfListItem@@UAEPAXI@Z 1002b5b0 f i MainManage.obj
 0001:0002a5f0       ??_GCBcfKeyItem@@UAEPAXI@Z 1002b5f0 f i MainManage.obj
 0001:0002a5f0       ??_ECBcfKeyItem@@UAEPAXI@Z 1002b5f0 f i MainManage.obj
 0001:0002a630       ??1CBcfKeyItem@@UAE@XZ     1002b630 f i MainManage.obj
 0001:0002a670       ??0CBcfSectionItem@@QAE@V?$CStringT@DV?$StrTraitMFC_DLL@DV?$ChTraitsCRT@D@ATL@@@@@ATL@@@Z 1002b670 f i MainManage.obj
 0001:0002a6f0       ??_ECBcfSectionItem@@UAEPAXI@Z 1002b6f0 f i MainManage.obj
 0001:0002a6f0       ??_ECBcfFileNameItem@@UAEPAXI@Z 1002b6f0 f i MainManage.obj
 0001:0002a6f0       ??_GCBcfFileNameItem@@UAEPAXI@Z 1002b6f0 f i MainManage.obj
 0001:0002a6f0       ??_GCBcfSectionItem@@UAEPAXI@Z 1002b6f0 f i MainManage.obj
 0001:0002a730       ??0CBcfFileNameItem@@QAE@V?$CStringT@DV?$StrTraitMFC_DLL@DV?$ChTraitsCRT@D@ATL@@@@@ATL@@@Z 1002b730 f i MainManage.obj
 0001:0002a7b0       ??1CBcfSectionItem@@UAE@XZ 1002b7b0 f i MainManage.obj
 0001:0002a7b0       ??1CBcfFileNameItem@@UAE@XZ 1002b7b0 f i MainManage.obj
 0001:0002a7e0       ??0FileItem@@QAE@XZ        1002b7e0 f i MainManage.obj
 0001:0002a820       ??1FileItem@@QAE@XZ        1002b820 f i MainManage.obj
 0001:0002a860       ??4FileItem@@QAEAAU0@ABU0@@Z 1002b860 f i MainManage.obj
 0001:0002a890       ??0CBaseMainManage@@QAE@XZ 1002b890 f   MainManage.obj
 0001:0002a9d0       ??0IServerSocketService@@QAE@XZ 1002b9d0 f i MainManage.obj
 0001:0002a9f0       ??0IDataBaseResultService@@QAE@XZ 1002b9f0 f i MainManage.obj
 0001:0002aa10       ??1CBaseMainManage@@UAE@XZ 1002ba10 f   MainManage.obj
 0001:0002aab0       ?Init@CBaseMainManage@@UAE_NPAUManageInfoStruct@@PAUIDataBaseHandleService@@@Z 1002bab0 f   MainManage.obj
 0001:0002ad50       ?UnInit@CBaseMainManage@@UAE_NXZ 1002bd50 f   MainManage.obj
 0001:0002ae10       ?Start@CBaseMainManage@@UAE_NXZ 1002be10 f   MainManage.obj
 0001:0002b170       ?Stop@CBaseMainManage@@UAE_NXZ 1002c170 f   MainManage.obj
 0001:0002b2d0       ?OnSocketCloseEvent@CBaseMainManageForZ@@UAE_NKIJ@Z 1002c2d0 f   MainManageForZ.obj
 0001:0002b2d0       ?OnSocketCloseEvent@CBaseMainManage@@UAE_NKIJ@Z 1002c2d0 f   MainManage.obj
 0001:0002b2d0       ?OnSocketCloseEvent@CBaseMainManageForWeb@@UAE_NKIJ@Z 1002c2d0 f   MainManageForWeb.obj
 0001:0002b330       ?OnSocketReadEvent@CBaseMainManage@@UAE_NPAVCTCPSocket@@PAUNetMessageHead@@PAXIIK@Z 1002c330 f   MainManage.obj
 0001:0002b3d0       ?WindowTimerMessage@CBaseMainManage@@AAE_NI@Z 1002c3d0 f   MainManage.obj
 0001:0002b3d0       ?WindowTimerMessage@CBaseMainManageForWeb@@AAE_NI@Z 1002c3d0 f   MainManageForWeb.obj
 0001:0002b3d0       ?WindowTimerMessage@CBaseMainManageForZ@@AAE_NI@Z 1002c3d0 f   MainManageForZ.obj
 0001:0002b430       ?AFCKernelStart@CBaseMainManage@@AAE_NXZ 1002c430 f   MainManage.obj
 0001:0002b670       ?LineDataHandleThread@CBaseMainManage@@CGIPAX@Z 1002c670 f   MainManage.obj
 0001:0002b970       ??A?$map@V?$CStringT@DV?$StrTraitMFC_DLL@DV?$ChTraitsCRT@D@ATL@@@@@ATL@@PAVCBcfListItem@@U?$less@V?$CStringT@DV?$StrTraitMFC_DLL@DV?$ChTraitsCRT@D@ATL@@@@@ATL@@@std@@V?$allocator@U?$pair@$$CBV?$CStringT@DV?$StrTraitMFC_DLL@DV?$ChTraitsCRT@D@ATL@@@@@ATL@@PAVCBcfListItem@@@std@@@5@@std@@QAEAAPAVCBcfListItem@@ABV?$CStringT@DV?$StrTraitMFC_DLL@DV?$ChTraitsCRT@D@ATL@@@@@ATL@@@Z 1002c970 f i MainManage.obj
 0001:0002ba60       ?end@?$_Tree@V?$_Tmap_traits@V?$CStringT@DV?$StrTraitMFC_DLL@DV?$ChTraitsCRT@D@ATL@@@@@ATL@@PAVCBcfFileNameItem@@U?$less@V?$CStringT@DV?$StrTraitMFC_DLL@DV?$ChTraitsCRT@D@ATL@@@@@ATL@@@std@@V?$allocator@U?$pair@$$CBV?$CStringT@DV?$StrTraitMFC_DLL@DV?$ChTraitsCRT@D@ATL@@@@@ATL@@PAVCBcfFileNameItem@@@std@@@5@$0A@@std@@@std@@QAE?AV?$_Tree_iterator@V?$_Tree_val@V?$_Tmap_traits@V?$CStringT@DV?$StrTraitMFC_DLL@DV?$ChTraitsCRT@D@ATL@@@@@ATL@@PAVCBcfFileNameItem@@U?$less@V?$CStringT@DV?$StrTraitMFC_DLL@DV?$ChTraitsCRT@D@ATL@@@@@ATL@@@std@@V?$allocator@U?$pair@$$CBV?$CStringT@DV?$StrTraitMFC_DLL@DV?$ChTraitsCRT@D@ATL@@@@@ATL@@PAVCBcfFileNameItem@@@std@@@5@$0A@@std@@@std@@@2@XZ 1002ca60 f i MainManage.obj
 0001:0002ba60       ?end@?$_Tree@V?$_Tmap_traits@HV?$vector@HV?$allocator@H@std@@@std@@U?$less@H@2@V?$allocator@U?$pair@$$CBHV?$vector@HV?$allocator@H@std@@@std@@@std@@@2@$0A@@std@@@std@@QAE?AV?$_Tree_iterator@V?$_Tree_val@V?$_Tmap_traits@HV?$vector@HV?$allocator@H@std@@@std@@U?$less@H@2@V?$allocator@U?$pair@$$CBHV?$vector@HV?$allocator@H@std@@@std@@@std@@@2@$0A@@std@@@std@@@2@XZ 1002ca60 f i AFCSocket.obj
 0001:0002ba60       ?end@?$_Tree@V?$_Tmap_traits@V?$CStringT@DV?$StrTraitMFC_DLL@DV?$ChTraitsCRT@D@ATL@@@@@ATL@@PAVCBcfListItem@@U?$less@V?$CStringT@DV?$StrTraitMFC_DLL@DV?$ChTraitsCRT@D@ATL@@@@@ATL@@@std@@V?$allocator@U?$pair@$$CBV?$CStringT@DV?$StrTraitMFC_DLL@DV?$ChTraitsCRT@D@ATL@@@@@ATL@@PAVCBcfListItem@@@std@@@5@$0A@@std@@@std@@QAE?AV?$_Tree_iterator@V?$_Tree_val@V?$_Tmap_traits@V?$CStringT@DV?$StrTraitMFC_DLL@DV?$ChTraitsCRT@D@ATL@@@@@ATL@@PAVCBcfListItem@@U?$less@V?$CStringT@DV?$StrTraitMFC_DLL@DV?$ChTraitsCRT@D@ATL@@@@@ATL@@@std@@V?$allocator@U?$pair@$$CBV?$CStringT@DV?$StrTraitMFC_DLL@DV?$ChTraitsCRT@D@ATL@@@@@ATL@@PAVCBcfListItem@@@std@@@5@$0A@@std@@@std@@@2@XZ 1002ca60 f i MainManage.obj
 0001:0002ba60       ?end@?$_Tree@V?$_Tmap_traits@V?$basic_string@DU?$char_traits@D@std@@V?$allocator@D@2@@std@@VHNTreeNode@@U?$less@V?$basic_string@DU?$char_traits@D@std@@V?$allocator@D@2@@std@@@2@V?$allocator@U?$pair@$$CBV?$basic_string@DU?$char_traits@D@std@@V?$allocator@D@2@@std@@VHNTreeNode@@@std@@@2@$0A@@std@@@std@@QAE?AV?$_Tree_iterator@V?$_Tree_val@V?$_Tmap_traits@V?$basic_string@DU?$char_traits@D@std@@V?$allocator@D@2@@std@@VHNTreeNode@@U?$less@V?$basic_string@DU?$char_traits@D@std@@V?$allocator@D@2@@std@@@2@V?$allocator@U?$pair@$$CBV?$basic_string@DU?$char_traits@D@std@@V?$allocator@D@2@@std@@VHNTreeNode@@@std@@@2@$0A@@std@@@std@@@2@XZ 1002ca60 f i HNFilter.obj
 0001:0002ba90       ??C?$_Tree_iterator@V?$_Tree_val@V?$_Tmap_traits@V?$CStringT@DV?$StrTraitMFC_DLL@DV?$ChTraitsCRT@D@ATL@@@@@ATL@@PAVCBcfFileNameItem@@U?$less@V?$CStringT@DV?$StrTraitMFC_DLL@DV?$ChTraitsCRT@D@ATL@@@@@ATL@@@std@@V?$allocator@U?$pair@$$CBV?$CStringT@DV?$StrTraitMFC_DLL@DV?$ChTraitsCRT@D@ATL@@@@@ATL@@PAVCBcfFileNameItem@@@std@@@5@$0A@@std@@@std@@@std@@QBEPAU?$pair@$$CBV?$CStringT@DV?$StrTraitMFC_DLL@DV?$ChTraitsCRT@D@ATL@@@@@ATL@@PAVCBcfFileNameItem@@@1@XZ 1002ca90 f i MainManage.obj
 0001:0002ba90       ??C?$_Tree_iterator@V?$_Tree_val@V?$_Tmap_traits@V?$basic_string@DU?$char_traits@D@std@@V?$allocator@D@2@@std@@VHNTreeNode@@U?$less@V?$basic_string@DU?$char_traits@D@std@@V?$allocator@D@2@@std@@@2@V?$allocator@U?$pair@$$CBV?$basic_string@DU?$char_traits@D@std@@V?$allocator@D@2@@std@@VHNTreeNode@@@std@@@2@$0A@@std@@@std@@@std@@QBEPAU?$pair@$$CBV?$basic_string@DU?$char_traits@D@std@@V?$allocator@D@2@@std@@VHNTreeNode@@@1@XZ 1002ca90 f i HNTreeNode.obj
 0001:0002ba90       ??C?$_Tree_iterator@V?$_Tree_val@V?$_Tmap_traits@V?$CStringT@DV?$StrTraitMFC_DLL@DV?$ChTraitsCRT@D@ATL@@@@@ATL@@PAVCBcfListItem@@U?$less@V?$CStringT@DV?$StrTraitMFC_DLL@DV?$ChTraitsCRT@D@ATL@@@@@ATL@@@std@@V?$allocator@U?$pair@$$CBV?$CStringT@DV?$StrTraitMFC_DLL@DV?$ChTraitsCRT@D@ATL@@@@@ATL@@PAVCBcfListItem@@@std@@@5@$0A@@std@@@std@@@std@@QBEPAU?$pair@$$CBV?$CStringT@DV?$StrTraitMFC_DLL@DV?$ChTraitsCRT@D@ATL@@@@@ATL@@PAVCBcfListItem@@@1@XZ 1002ca90 f i MainManage.obj
 0001:0002ba90       ??C?$_Tree_iterator@V?$_Tree_val@V?$_Tmap_traits@HV?$vector@HV?$allocator@H@std@@@std@@U?$less@H@2@V?$allocator@U?$pair@$$CBHV?$vector@HV?$allocator@H@std@@@std@@@std@@@2@$0A@@std@@@std@@@std@@QBEPAU?$pair@$$CBHV?$vector@HV?$allocator@H@std@@@std@@@1@XZ 1002ca90 f i AFCSocket.obj
 0001:0002bab0       ??A?$map@V?$CStringT@DV?$StrTraitMFC_DLL@DV?$ChTraitsCRT@D@ATL@@@@@ATL@@PAVCBcfFileNameItem@@U?$less@V?$CStringT@DV?$StrTraitMFC_DLL@DV?$ChTraitsCRT@D@ATL@@@@@ATL@@@std@@V?$allocator@U?$pair@$$CBV?$CStringT@DV?$StrTraitMFC_DLL@DV?$ChTraitsCRT@D@ATL@@@@@ATL@@PAVCBcfFileNameItem@@@std@@@5@@std@@QAEAAPAVCBcfFileNameItem@@ABV?$CStringT@DV?$StrTraitMFC_DLL@DV?$ChTraitsCRT@D@ATL@@@@@ATL@@@Z 1002cab0 f i MainManage.obj
 0001:0002bba0       ?clear@?$_Tree@V?$_Tmap_traits@V?$CStringT@DV?$StrTraitMFC_DLL@DV?$ChTraitsCRT@D@ATL@@@@@ATL@@PAVCBcfListItem@@U?$less@V?$CStringT@DV?$StrTraitMFC_DLL@DV?$ChTraitsCRT@D@ATL@@@@@ATL@@@std@@V?$allocator@U?$pair@$$CBV?$CStringT@DV?$StrTraitMFC_DLL@DV?$ChTraitsCRT@D@ATL@@@@@ATL@@PAVCBcfListItem@@@std@@@5@$0A@@std@@@std@@QAEXXZ 1002cba0 f i MainManage.obj
 0001:0002bba0       ?clear@?$_Tree@V?$_Tmap_traits@V?$CStringT@DV?$StrTraitMFC_DLL@DV?$ChTraitsCRT@D@ATL@@@@@ATL@@PAVCBcfFileNameItem@@U?$less@V?$CStringT@DV?$StrTraitMFC_DLL@DV?$ChTraitsCRT@D@ATL@@@@@ATL@@@std@@V?$allocator@U?$pair@$$CBV?$CStringT@DV?$StrTraitMFC_DLL@DV?$ChTraitsCRT@D@ATL@@@@@ATL@@PAVCBcfFileNameItem@@@std@@@5@$0A@@std@@@std@@QAEXXZ 1002cba0 f i MainManage.obj
 0001:0002bc00       ??E?$_Tree_iterator@V?$_Tree_val@V?$_Tmap_traits@V?$CStringT@DV?$StrTraitMFC_DLL@DV?$ChTraitsCRT@D@ATL@@@@@ATL@@PAVCBcfFileNameItem@@U?$less@V?$CStringT@DV?$StrTraitMFC_DLL@DV?$ChTraitsCRT@D@ATL@@@@@ATL@@@std@@V?$allocator@U?$pair@$$CBV?$CStringT@DV?$StrTraitMFC_DLL@DV?$ChTraitsCRT@D@ATL@@@@@ATL@@PAVCBcfFileNameItem@@@std@@@5@$0A@@std@@@std@@@std@@QAEAAV01@XZ 1002cc00 f i MainManage.obj
 0001:0002bc00       ??E?$_Tree_iterator@V?$_Tree_val@V?$_Tmap_traits@V?$CStringT@DV?$StrTraitMFC_DLL@DV?$ChTraitsCRT@D@ATL@@@@@ATL@@PAVCBcfListItem@@U?$less@V?$CStringT@DV?$StrTraitMFC_DLL@DV?$ChTraitsCRT@D@ATL@@@@@ATL@@@std@@V?$allocator@U?$pair@$$CBV?$CStringT@DV?$StrTraitMFC_DLL@DV?$ChTraitsCRT@D@ATL@@@@@ATL@@PAVCBcfListItem@@@std@@@5@$0A@@std@@@std@@@std@@QAEAAV01@XZ 1002cc00 f i MainManage.obj
 0001:0002bc20       ??1?$pair@$$CBV?$CStringT@DV?$StrTraitMFC_DLL@DV?$ChTraitsCRT@D@ATL@@@@@ATL@@PAVCBcfListItem@@@std@@QAE@XZ 1002cc20 f i MainManage.obj
 0001:0002bc20       ??1?$pair@$$CBV?$CStringT@DV?$StrTraitMFC_DLL@DV?$ChTraitsCRT@D@ATL@@@@@ATL@@PAVCBcfFileNameItem@@@std@@QAE@XZ 1002cc20 f i MainManage.obj
 0001:0002bc40       ??1?$_Pair_base@$$CBV?$CStringT@DV?$StrTraitMFC_DLL@DV?$ChTraitsCRT@D@ATL@@@@@ATL@@PAVCBcfListItem@@@std@@QAE@XZ 1002cc40 f i MainManage.obj
 0001:0002bc40       ??1?$_Pair_base@$$CBV?$CStringT@DV?$StrTraitMFC_DLL@DV?$ChTraitsCRT@D@ATL@@@@@ATL@@PAVCBcfFileNameItem@@@std@@QAE@XZ 1002cc40 f i MainManage.obj
 0001:0002bc60       ?lower_bound@?$_Tree@V?$_Tmap_traits@V?$CStringT@DV?$StrTraitMFC_DLL@DV?$ChTraitsCRT@D@ATL@@@@@ATL@@PAVCBcfFileNameItem@@U?$less@V?$CStringT@DV?$StrTraitMFC_DLL@DV?$ChTraitsCRT@D@ATL@@@@@ATL@@@std@@V?$allocator@U?$pair@$$CBV?$CStringT@DV?$StrTraitMFC_DLL@DV?$ChTraitsCRT@D@ATL@@@@@ATL@@PAVCBcfFileNameItem@@@std@@@5@$0A@@std@@@std@@QAE?AV?$_Tree_iterator@V?$_Tree_val@V?$_Tmap_traits@V?$CStringT@DV?$StrTraitMFC_DLL@DV?$ChTraitsCRT@D@ATL@@@@@ATL@@PAVCBcfFileNameItem@@U?$less@V?$CStringT@DV?$StrTraitMFC_DLL@DV?$ChTraitsCRT@D@ATL@@@@@ATL@@@std@@V?$allocator@U?$pair@$$CBV?$CStringT@DV?$StrTraitMFC_DLL@DV?$ChTraitsCRT@D@ATL@@@@@ATL@@PAVCBcfFileNameItem@@@std@@@5@$0A@@std@@@std@@@2@ABV?$CStringT@DV?$StrTraitMFC_DLL@DV?$ChTraitsCRT@D@ATL@@@@@ATL@@@Z 1002cc60 f i MainManage.obj
 0001:0002bc60       ?lower_bound@?$_Tree@V?$_Tmap_traits@V?$CStringT@DV?$StrTraitMFC_DLL@DV?$ChTraitsCRT@D@ATL@@@@@ATL@@PAVCBcfListItem@@U?$less@V?$CStringT@DV?$StrTraitMFC_DLL@DV?$ChTraitsCRT@D@ATL@@@@@ATL@@@std@@V?$allocator@U?$pair@$$CBV?$CStringT@DV?$StrTraitMFC_DLL@DV?$ChTraitsCRT@D@ATL@@@@@ATL@@PAVCBcfListItem@@@std@@@5@$0A@@std@@@std@@QAE?AV?$_Tree_iterator@V?$_Tree_val@V?$_Tmap_traits@V?$CStringT@DV?$StrTraitMFC_DLL@DV?$ChTraitsCRT@D@ATL@@@@@ATL@@PAVCBcfListItem@@U?$less@V?$CStringT@DV?$StrTraitMFC_DLL@DV?$ChTraitsCRT@D@ATL@@@@@ATL@@@std@@V?$allocator@U?$pair@$$CBV?$CStringT@DV?$StrTraitMFC_DLL@DV?$ChTraitsCRT@D@ATL@@@@@ATL@@PAVCBcfListItem@@@std@@@5@$0A@@std@@@std@@@2@ABV?$CStringT@DV?$StrTraitMFC_DLL@DV?$ChTraitsCRT@D@ATL@@@@@ATL@@@Z 1002cc60 f i MainManage.obj
 0001:0002bca0       ??R?$less@V?$CStringT@DV?$StrTraitMFC_DLL@DV?$ChTraitsCRT@D@ATL@@@@@ATL@@@std@@QBE_NABV?$CStringT@DV?$StrTraitMFC_DLL@DV?$ChTraitsCRT@D@ATL@@@@@ATL@@0@Z 1002cca0 f i MainManage.obj
 0001:0002bcd0       ?_Erase@?$_Tree@V?$_Tmap_traits@V?$CStringT@DV?$StrTraitMFC_DLL@DV?$ChTraitsCRT@D@ATL@@@@@ATL@@PAVCBcfListItem@@U?$less@V?$CStringT@DV?$StrTraitMFC_DLL@DV?$ChTraitsCRT@D@ATL@@@@@ATL@@@std@@V?$allocator@U?$pair@$$CBV?$CStringT@DV?$StrTraitMFC_DLL@DV?$ChTraitsCRT@D@ATL@@@@@ATL@@PAVCBcfListItem@@@std@@@5@$0A@@std@@@std@@IAEXPAU_Node@?$_Tree_nod@V?$_Tmap_traits@V?$CStringT@DV?$StrTraitMFC_DLL@DV?$ChTraitsCRT@D@ATL@@@@@ATL@@PAVCBcfListItem@@U?$less@V?$CStringT@DV?$StrTraitMFC_DLL@DV?$ChTraitsCRT@D@ATL@@@@@ATL@@@std@@V?$allocator@U?$pair@$$CBV?$CStringT@DV?$StrTraitMFC_DLL@DV?$ChTraitsCRT@D@ATL@@@@@ATL@@PAVCBcfListItem@@@std@@@5@$0A@@std@@@2@@Z 1002ccd0 f i MainManage.obj
 0001:0002bcd0       ?_Erase@?$_Tree@V?$_Tmap_traits@V?$CStringT@DV?$StrTraitMFC_DLL@DV?$ChTraitsCRT@D@ATL@@@@@ATL@@PAVCBcfFileNameItem@@U?$less@V?$CStringT@DV?$StrTraitMFC_DLL@DV?$ChTraitsCRT@D@ATL@@@@@ATL@@@std@@V?$allocator@U?$pair@$$CBV?$CStringT@DV?$StrTraitMFC_DLL@DV?$ChTraitsCRT@D@ATL@@@@@ATL@@PAVCBcfFileNameItem@@@std@@@5@$0A@@std@@@std@@IAEXPAU_Node@?$_Tree_nod@V?$_Tmap_traits@V?$CStringT@DV?$StrTraitMFC_DLL@DV?$ChTraitsCRT@D@ATL@@@@@ATL@@PAVCBcfFileNameItem@@U?$less@V?$CStringT@DV?$StrTraitMFC_DLL@DV?$ChTraitsCRT@D@ATL@@@@@ATL@@@std@@V?$allocator@U?$pair@$$CBV?$CStringT@DV?$StrTraitMFC_DLL@DV?$ChTraitsCRT@D@ATL@@@@@ATL@@PAVCBcfFileNameItem@@@std@@@5@$0A@@std@@@2@@Z 1002ccd0 f i MainManage.obj
 0001:0002bd70       ??E?$_Tree_const_iterator@V?$_Tree_val@V?$_Tmap_traits@V?$CStringT@DV?$StrTraitMFC_DLL@DV?$ChTraitsCRT@D@ATL@@@@@ATL@@PAVCBcfFileNameItem@@U?$less@V?$CStringT@DV?$StrTraitMFC_DLL@DV?$ChTraitsCRT@D@ATL@@@@@ATL@@@std@@V?$allocator@U?$pair@$$CBV?$CStringT@DV?$StrTraitMFC_DLL@DV?$ChTraitsCRT@D@ATL@@@@@ATL@@PAVCBcfFileNameItem@@@std@@@5@$0A@@std@@@std@@@std@@QAEAAV01@XZ 1002cd70 f i MainManage.obj
 0001:0002bd70       ??E?$_Tree_const_iterator@V?$_Tree_val@V?$_Tmap_traits@V?$CStringT@DV?$StrTraitMFC_DLL@DV?$ChTraitsCRT@D@ATL@@@@@ATL@@PAVCBcfListItem@@U?$less@V?$CStringT@DV?$StrTraitMFC_DLL@DV?$ChTraitsCRT@D@ATL@@@@@ATL@@@std@@V?$allocator@U?$pair@$$CBV?$CStringT@DV?$StrTraitMFC_DLL@DV?$ChTraitsCRT@D@ATL@@@@@ATL@@PAVCBcfListItem@@@std@@@5@$0A@@std@@@std@@@std@@QAEAAV01@XZ 1002cd70 f i MainManage.obj
 0001:0002bd90       ??0?$pair@$$CBV?$CStringT@DV?$StrTraitMFC_DLL@DV?$ChTraitsCRT@D@ATL@@@@@ATL@@PAVCBcfListItem@@@std@@QAE@ABV?$CStringT@DV?$StrTraitMFC_DLL@DV?$ChTraitsCRT@D@ATL@@@@@ATL@@$$QAPAVCBcfListItem@@@Z 1002cd90 f i MainManage.obj
 0001:0002bd90       ??0?$pair@$$CBV?$CStringT@DV?$StrTraitMFC_DLL@DV?$ChTraitsCRT@D@ATL@@@@@ATL@@PAVCBcfFileNameItem@@@std@@QAE@ABV?$CStringT@DV?$StrTraitMFC_DLL@DV?$ChTraitsCRT@D@ATL@@@@@ATL@@$$QAPAVCBcfFileNameItem@@@Z 1002cd90 f i MainManage.obj
 0001:0002bdd0       ??MATL@@YA_NABV?$CStringT@DV?$StrTraitMFC_DLL@DV?$ChTraitsCRT@D@ATL@@@@@0@0@Z 1002cdd0 f i MainManage.obj
 0001:0002be00       ?_Lbound@?$_Tree@V?$_Tmap_traits@V?$CStringT@DV?$StrTraitMFC_DLL@DV?$ChTraitsCRT@D@ATL@@@@@ATL@@PAVCBcfListItem@@U?$less@V?$CStringT@DV?$StrTraitMFC_DLL@DV?$ChTraitsCRT@D@ATL@@@@@ATL@@@std@@V?$allocator@U?$pair@$$CBV?$CStringT@DV?$StrTraitMFC_DLL@DV?$ChTraitsCRT@D@ATL@@@@@ATL@@PAVCBcfListItem@@@std@@@5@$0A@@std@@@std@@IAEPAU_Node@?$_Tree_nod@V?$_Tmap_traits@V?$CStringT@DV?$StrTraitMFC_DLL@DV?$ChTraitsCRT@D@ATL@@@@@ATL@@PAVCBcfListItem@@U?$less@V?$CStringT@DV?$StrTraitMFC_DLL@DV?$ChTraitsCRT@D@ATL@@@@@ATL@@@std@@V?$allocator@U?$pair@$$CBV?$CStringT@DV?$StrTraitMFC_DLL@DV?$ChTraitsCRT@D@ATL@@@@@ATL@@PAVCBcfListItem@@@std@@@5@$0A@@std@@@2@ABV?$CStringT@DV?$StrTraitMFC_DLL@DV?$ChTraitsCRT@D@ATL@@@@@ATL@@@Z 1002ce00 f i MainManage.obj
 0001:0002be00       ?_Lbound@?$_Tree@V?$_Tmap_traits@V?$CStringT@DV?$StrTraitMFC_DLL@DV?$ChTraitsCRT@D@ATL@@@@@ATL@@PAVCBcfFileNameItem@@U?$less@V?$CStringT@DV?$StrTraitMFC_DLL@DV?$ChTraitsCRT@D@ATL@@@@@ATL@@@std@@V?$allocator@U?$pair@$$CBV?$CStringT@DV?$StrTraitMFC_DLL@DV?$ChTraitsCRT@D@ATL@@@@@ATL@@PAVCBcfFileNameItem@@@std@@@5@$0A@@std@@@std@@IAEPAU_Node@?$_Tree_nod@V?$_Tmap_traits@V?$CStringT@DV?$StrTraitMFC_DLL@DV?$ChTraitsCRT@D@ATL@@@@@ATL@@PAVCBcfFileNameItem@@U?$less@V?$CStringT@DV?$StrTraitMFC_DLL@DV?$ChTraitsCRT@D@ATL@@@@@ATL@@@std@@V?$allocator@U?$pair@$$CBV?$CStringT@DV?$StrTraitMFC_DLL@DV?$ChTraitsCRT@D@ATL@@@@@ATL@@PAVCBcfFileNameItem@@@std@@@5@$0A@@std@@@2@ABV?$CStringT@DV?$StrTraitMFC_DLL@DV?$ChTraitsCRT@D@ATL@@@@@ATL@@@Z 1002ce00 f i MainManage.obj
 0001:0002be90       ?_Isnil@?$_Tree_val@V?$_Tmap_traits@V?$CStringT@DV?$StrTraitMFC_DLL@DV?$ChTraitsCRT@D@ATL@@@@@ATL@@PAVCBcfFileNameItem@@U?$less@V?$CStringT@DV?$StrTraitMFC_DLL@DV?$ChTraitsCRT@D@ATL@@@@@ATL@@@std@@V?$allocator@U?$pair@$$CBV?$CStringT@DV?$StrTraitMFC_DLL@DV?$ChTraitsCRT@D@ATL@@@@@ATL@@PAVCBcfFileNameItem@@@std@@@5@$0A@@std@@@std@@SAAADPAU_Node@?$_Tree_nod@V?$_Tmap_traits@V?$CStringT@DV?$StrTraitMFC_DLL@DV?$ChTraitsCRT@D@ATL@@@@@ATL@@PAVCBcfFileNameItem@@U?$less@V?$CStringT@DV?$StrTraitMFC_DLL@DV?$ChTraitsCRT@D@ATL@@@@@ATL@@@std@@V?$allocator@U?$pair@$$CBV?$CStringT@DV?$StrTraitMFC_DLL@DV?$ChTraitsCRT@D@ATL@@@@@ATL@@PAVCBcfFileNameItem@@@std@@@5@$0A@@std@@@2@@Z 1002ce90 f i MainManage.obj
 0001:0002be90       ?_Isnil@?$_Tree_val@V?$_Tmap_traits@V?$CStringT@DV?$StrTraitMFC_DLL@DV?$ChTraitsCRT@D@ATL@@@@@ATL@@PAVCBcfListItem@@U?$less@V?$CStringT@DV?$StrTraitMFC_DLL@DV?$ChTraitsCRT@D@ATL@@@@@ATL@@@std@@V?$allocator@U?$pair@$$CBV?$CStringT@DV?$StrTraitMFC_DLL@DV?$ChTraitsCRT@D@ATL@@@@@ATL@@PAVCBcfListItem@@@std@@@5@$0A@@std@@@std@@SAAADPAU_Node@?$_Tree_nod@V?$_Tmap_traits@V?$CStringT@DV?$StrTraitMFC_DLL@DV?$ChTraitsCRT@D@ATL@@@@@ATL@@PAVCBcfListItem@@U?$less@V?$CStringT@DV?$StrTraitMFC_DLL@DV?$ChTraitsCRT@D@ATL@@@@@ATL@@@std@@V?$allocator@U?$pair@$$CBV?$CStringT@DV?$StrTraitMFC_DLL@DV?$ChTraitsCRT@D@ATL@@@@@ATL@@PAVCBcfListItem@@@std@@@5@$0A@@std@@@2@@Z 1002ce90 f i MainManage.obj
 0001:0002beb0       ?_Myval@?$_Tree_val@V?$_Tmap_traits@HV?$vector@HV?$allocator@H@std@@@std@@U?$less@H@2@V?$allocator@U?$pair@$$CBHV?$vector@HV?$allocator@H@std@@@std@@@std@@@2@$0A@@std@@@std@@SAAAU?$pair@$$CBHV?$vector@HV?$allocator@H@std@@@std@@@2@PAU_Node@?$_Tree_nod@V?$_Tmap_traits@HV?$vector@HV?$allocator@H@std@@@std@@U?$less@H@2@V?$allocator@U?$pair@$$CBHV?$vector@HV?$allocator@H@std@@@std@@@std@@@2@$0A@@std@@@2@@Z 1002ceb0 f i AFCSocket.obj
 0001:0002beb0       ?_Myval@?$_Tree_val@V?$_Tmap_traits@V?$basic_string@DU?$char_traits@D@std@@V?$allocator@D@2@@std@@VHNTreeNode@@U?$less@V?$basic_string@DU?$char_traits@D@std@@V?$allocator@D@2@@std@@@2@V?$allocator@U?$pair@$$CBV?$basic_string@DU?$char_traits@D@std@@V?$allocator@D@2@@std@@VHNTreeNode@@@std@@@2@$0A@@std@@@std@@SAAAU?$pair@$$CBV?$basic_string@DU?$char_traits@D@std@@V?$allocator@D@2@@std@@VHNTreeNode@@@2@PAU_Node@?$_Tree_nod@V?$_Tmap_traits@V?$basic_string@DU?$char_traits@D@std@@V?$allocator@D@2@@std@@VHNTreeNode@@U?$less@V?$basic_string@DU?$char_traits@D@std@@V?$allocator@D@2@@std@@@2@V?$allocator@U?$pair@$$CBV?$basic_string@DU?$char_traits@D@std@@V?$allocator@D@2@@std@@VHNTreeNode@@@std@@@2@$0A@@std@@@2@@Z 1002ceb0 f i HNFilter.obj
 0001:0002beb0       ?_Myval@?$_Tree_val@V?$_Tmap_traits@V?$CStringT@DV?$StrTraitMFC_DLL@DV?$ChTraitsCRT@D@ATL@@@@@ATL@@PAVCBcfFileNameItem@@U?$less@V?$CStringT@DV?$StrTraitMFC_DLL@DV?$ChTraitsCRT@D@ATL@@@@@ATL@@@std@@V?$allocator@U?$pair@$$CBV?$CStringT@DV?$StrTraitMFC_DLL@DV?$ChTraitsCRT@D@ATL@@@@@ATL@@PAVCBcfFileNameItem@@@std@@@5@$0A@@std@@@std@@SAAAU?$pair@$$CBV?$CStringT@DV?$StrTraitMFC_DLL@DV?$ChTraitsCRT@D@ATL@@@@@ATL@@PAVCBcfFileNameItem@@@2@PAU_Node@?$_Tree_nod@V?$_Tmap_traits@V?$CStringT@DV?$StrTraitMFC_DLL@DV?$ChTraitsCRT@D@ATL@@@@@ATL@@PAVCBcfFileNameItem@@U?$less@V?$CStringT@DV?$StrTraitMFC_DLL@DV?$ChTraitsCRT@D@ATL@@@@@ATL@@@std@@V?$allocator@U?$pair@$$CBV?$CStringT@DV?$StrTraitMFC_DLL@DV?$ChTraitsCRT@D@ATL@@@@@ATL@@PAVCBcfFileNameItem@@@std@@@5@$0A@@std@@@2@@Z 1002ceb0 f i MainManage.obj
 0001:0002beb0       ?_Myval@?$_Tree_val@V?$_Tmap_traits@V?$CStringT@DV?$StrTraitMFC_DLL@DV?$ChTraitsCRT@D@ATL@@@@@ATL@@PAVCBcfListItem@@U?$less@V?$CStringT@DV?$StrTraitMFC_DLL@DV?$ChTraitsCRT@D@ATL@@@@@ATL@@@std@@V?$allocator@U?$pair@$$CBV?$CStringT@DV?$StrTraitMFC_DLL@DV?$ChTraitsCRT@D@ATL@@@@@ATL@@PAVCBcfListItem@@@std@@@5@$0A@@std@@@std@@SAAAU?$pair@$$CBV?$CStringT@DV?$StrTraitMFC_DLL@DV?$ChTraitsCRT@D@ATL@@@@@ATL@@PAVCBcfListItem@@@2@PAU_Node@?$_Tree_nod@V?$_Tmap_traits@V?$CStringT@DV?$StrTraitMFC_DLL@DV?$ChTraitsCRT@D@ATL@@@@@ATL@@PAVCBcfListItem@@U?$less@V?$CStringT@DV?$StrTraitMFC_DLL@DV?$ChTraitsCRT@D@ATL@@@@@ATL@@@std@@V?$allocator@U?$pair@$$CBV?$CStringT@DV?$StrTraitMFC_DLL@DV?$ChTraitsCRT@D@ATL@@@@@ATL@@PAVCBcfListItem@@@std@@@5@$0A@@std@@@2@@Z 1002ceb0 f i MainManage.obj
 0001:0002bed0       ?_Parent@?$_Tree_val@V?$_Tmap_traits@V?$basic_string@DU?$char_traits@D@std@@V?$allocator@D@2@@std@@VHNTreeNode@@U?$less@V?$basic_string@DU?$char_traits@D@std@@V?$allocator@D@2@@std@@@2@V?$allocator@U?$pair@$$CBV?$basic_string@DU?$char_traits@D@std@@V?$allocator@D@2@@std@@VHNTreeNode@@@std@@@2@$0A@@std@@@std@@SAAAPAU_Node@?$_Tree_nod@V?$_Tmap_traits@V?$basic_string@DU?$char_traits@D@std@@V?$allocator@D@2@@std@@VHNTreeNode@@U?$less@V?$basic_string@DU?$char_traits@D@std@@V?$allocator@D@2@@std@@@2@V?$allocator@U?$pair@$$CBV?$basic_string@DU?$char_traits@D@std@@V?$allocator@D@2@@std@@VHNTreeNode@@@std@@@2@$0A@@std@@@2@PAU342@@Z 1002ced0 f i HNFilter.obj
 0001:0002bed0       ?_Parent@?$_Tree_val@V?$_Tmap_traits@HV?$vector@HV?$allocator@H@std@@@std@@U?$less@H@2@V?$allocator@U?$pair@$$CBHV?$vector@HV?$allocator@H@std@@@std@@@std@@@2@$0A@@std@@@std@@SAAAPAU_Node@?$_Tree_nod@V?$_Tmap_traits@HV?$vector@HV?$allocator@H@std@@@std@@U?$less@H@2@V?$allocator@U?$pair@$$CBHV?$vector@HV?$allocator@H@std@@@std@@@std@@@2@$0A@@std@@@2@PAU342@@Z 1002ced0 f i AFCSocket.obj
 0001:0002bed0       ?_Parent@?$_Tree_val@V?$_Tmap_traits@V?$CStringT@DV?$StrTraitMFC_DLL@DV?$ChTraitsCRT@D@ATL@@@@@ATL@@PAVCBcfFileNameItem@@U?$less@V?$CStringT@DV?$StrTraitMFC_DLL@DV?$ChTraitsCRT@D@ATL@@@@@ATL@@@std@@V?$allocator@U?$pair@$$CBV?$CStringT@DV?$StrTraitMFC_DLL@DV?$ChTraitsCRT@D@ATL@@@@@ATL@@PAVCBcfFileNameItem@@@std@@@5@$0A@@std@@@std@@SAAAPAU_Node@?$_Tree_nod@V?$_Tmap_traits@V?$CStringT@DV?$StrTraitMFC_DLL@DV?$ChTraitsCRT@D@ATL@@@@@ATL@@PAVCBcfFileNameItem@@U?$less@V?$CStringT@DV?$StrTraitMFC_DLL@DV?$ChTraitsCRT@D@ATL@@@@@ATL@@@std@@V?$allocator@U?$pair@$$CBV?$CStringT@DV?$StrTraitMFC_DLL@DV?$ChTraitsCRT@D@ATL@@@@@ATL@@PAVCBcfFileNameItem@@@std@@@5@$0A@@std@@@2@PAU342@@Z 1002ced0 f i MainManage.obj
 0001:0002bed0       ?_Prevnode@?$_List_val@PAUFILEINFO@@V?$allocator@PAUFILEINFO@@@std@@@std@@SAAAPAU_Node@?$_List_nod@PAUFILEINFO@@V?$allocator@PAUFILEINFO@@@std@@@2@PAU342@@Z 1002ced0 f i HNSmtp.obj
 0001:0002bed0       ?_Parent@?$_Tree_val@V?$_Tmap_traits@V?$CStringT@DV?$StrTraitMFC_DLL@DV?$ChTraitsCRT@D@ATL@@@@@ATL@@PAVCBcfListItem@@U?$less@V?$CStringT@DV?$StrTraitMFC_DLL@DV?$ChTraitsCRT@D@ATL@@@@@ATL@@@std@@V?$allocator@U?$pair@$$CBV?$CStringT@DV?$StrTraitMFC_DLL@DV?$ChTraitsCRT@D@ATL@@@@@ATL@@PAVCBcfListItem@@@std@@@5@$0A@@std@@@std@@SAAAPAU_Node@?$_Tree_nod@V?$_Tmap_traits@V?$CStringT@DV?$StrTraitMFC_DLL@DV?$ChTraitsCRT@D@ATL@@@@@ATL@@PAVCBcfListItem@@U?$less@V?$CStringT@DV?$StrTraitMFC_DLL@DV?$ChTraitsCRT@D@ATL@@@@@ATL@@@std@@V?$allocator@U?$pair@$$CBV?$CStringT@DV?$StrTraitMFC_DLL@DV?$ChTraitsCRT@D@ATL@@@@@ATL@@PAVCBcfListItem@@@std@@@5@$0A@@std@@@2@PAU342@@Z 1002ced0 f i MainManage.obj
 0001:0002bef0       ?_Right@?$_Tree_val@V?$_Tmap_traits@V?$CStringT@DV?$StrTraitMFC_DLL@DV?$ChTraitsCRT@D@ATL@@@@@ATL@@PAVCBcfListItem@@U?$less@V?$CStringT@DV?$StrTraitMFC_DLL@DV?$ChTraitsCRT@D@ATL@@@@@ATL@@@std@@V?$allocator@U?$pair@$$CBV?$CStringT@DV?$StrTraitMFC_DLL@DV?$ChTraitsCRT@D@ATL@@@@@ATL@@PAVCBcfListItem@@@std@@@5@$0A@@std@@@std@@SAAAPAU_Node@?$_Tree_nod@V?$_Tmap_traits@V?$CStringT@DV?$StrTraitMFC_DLL@DV?$ChTraitsCRT@D@ATL@@@@@ATL@@PAVCBcfListItem@@U?$less@V?$CStringT@DV?$StrTraitMFC_DLL@DV?$ChTraitsCRT@D@ATL@@@@@ATL@@@std@@V?$allocator@U?$pair@$$CBV?$CStringT@DV?$StrTraitMFC_DLL@DV?$ChTraitsCRT@D@ATL@@@@@ATL@@PAVCBcfListItem@@@std@@@5@$0A@@std@@@2@PAU342@@Z 1002cef0 f i MainManage.obj
 0001:0002bef0       ?_Myval@?$_List_val@PAUFILEINFO@@V?$allocator@PAUFILEINFO@@@std@@@std@@SAAAPAUFILEINFO@@PAU_Node@?$_List_nod@PAUFILEINFO@@V?$allocator@PAUFILEINFO@@@std@@@2@@Z 1002cef0 f i HNSmtp.obj
 0001:0002bef0       ?_Right@?$_Tree_val@V?$_Tmap_traits@V?$basic_string@DU?$char_traits@D@std@@V?$allocator@D@2@@std@@VHNTreeNode@@U?$less@V?$basic_string@DU?$char_traits@D@std@@V?$allocator@D@2@@std@@@2@V?$allocator@U?$pair@$$CBV?$basic_string@DU?$char_traits@D@std@@V?$allocator@D@2@@std@@VHNTreeNode@@@std@@@2@$0A@@std@@@std@@SAAAPAU_Node@?$_Tree_nod@V?$_Tmap_traits@V?$basic_string@DU?$char_traits@D@std@@V?$allocator@D@2@@std@@VHNTreeNode@@U?$less@V?$basic_string@DU?$char_traits@D@std@@V?$allocator@D@2@@std@@@2@V?$allocator@U?$pair@$$CBV?$basic_string@DU?$char_traits@D@std@@V?$allocator@D@2@@std@@VHNTreeNode@@@std@@@2@$0A@@std@@@2@PAU342@@Z 1002cef0 f i HNFilter.obj
 0001:0002bef0       ?_Right@?$_Tree_val@V?$_Tmap_traits@V?$CStringT@DV?$StrTraitMFC_DLL@DV?$ChTraitsCRT@D@ATL@@@@@ATL@@PAVCBcfFileNameItem@@U?$less@V?$CStringT@DV?$StrTraitMFC_DLL@DV?$ChTraitsCRT@D@ATL@@@@@ATL@@@std@@V?$allocator@U?$pair@$$CBV?$CStringT@DV?$StrTraitMFC_DLL@DV?$ChTraitsCRT@D@ATL@@@@@ATL@@PAVCBcfFileNameItem@@@std@@@5@$0A@@std@@@std@@SAAAPAU_Node@?$_Tree_nod@V?$_Tmap_traits@V?$CStringT@DV?$StrTraitMFC_DLL@DV?$ChTraitsCRT@D@ATL@@@@@ATL@@PAVCBcfFileNameItem@@U?$less@V?$CStringT@DV?$StrTraitMFC_DLL@DV?$ChTraitsCRT@D@ATL@@@@@ATL@@@std@@V?$allocator@U?$pair@$$CBV?$CStringT@DV?$StrTraitMFC_DLL@DV?$ChTraitsCRT@D@ATL@@@@@ATL@@PAVCBcfFileNameItem@@@std@@@5@$0A@@std@@@2@PAU342@@Z 1002cef0 f i MainManage.obj
 0001:0002bef0       ?_Right@?$_Tree_val@V?$_Tmap_traits@HV?$vector@HV?$allocator@H@std@@@std@@U?$less@H@2@V?$allocator@U?$pair@$$CBHV?$vector@HV?$allocator@H@std@@@std@@@std@@@2@$0A@@std@@@std@@SAAAPAU_Node@?$_Tree_nod@V?$_Tmap_traits@HV?$vector@HV?$allocator@H@std@@@std@@U?$less@H@2@V?$allocator@U?$pair@$$CBHV?$vector@HV?$allocator@H@std@@@std@@@std@@@2@$0A@@std@@@2@PAU342@@Z 1002cef0 f i AFCSocket.obj
 0001:0002bf10       ??E?$_Tree_unchecked_const_iterator@V?$_Tree_val@V?$_Tmap_traits@V?$CStringT@DV?$StrTraitMFC_DLL@DV?$ChTraitsCRT@D@ATL@@@@@ATL@@PAVCBcfFileNameItem@@U?$less@V?$CStringT@DV?$StrTraitMFC_DLL@DV?$ChTraitsCRT@D@ATL@@@@@ATL@@@std@@V?$allocator@U?$pair@$$CBV?$CStringT@DV?$StrTraitMFC_DLL@DV?$ChTraitsCRT@D@ATL@@@@@ATL@@PAVCBcfFileNameItem@@@std@@@5@$0A@@std@@@std@@U_Iterator_base0@2@@std@@QAEAAV01@XZ 1002cf10 f i MainManage.obj
 0001:0002bf10       ??E?$_Tree_unchecked_const_iterator@V?$_Tree_val@V?$_Tmap_traits@V?$CStringT@DV?$StrTraitMFC_DLL@DV?$ChTraitsCRT@D@ATL@@@@@ATL@@PAVCBcfListItem@@U?$less@V?$CStringT@DV?$StrTraitMFC_DLL@DV?$ChTraitsCRT@D@ATL@@@@@ATL@@@std@@V?$allocator@U?$pair@$$CBV?$CStringT@DV?$StrTraitMFC_DLL@DV?$ChTraitsCRT@D@ATL@@@@@ATL@@PAVCBcfListItem@@@std@@@5@$0A@@std@@@std@@U_Iterator_base0@2@@std@@QAEAAV01@XZ 1002cf10 f i MainManage.obj
 0001:0002bfd0       ??0?$_Pair_base@$$CBV?$CStringT@DV?$StrTraitMFC_DLL@DV?$ChTraitsCRT@D@ATL@@@@@ATL@@PAVCBcfListItem@@@std@@QAE@ABV?$CStringT@DV?$StrTraitMFC_DLL@DV?$ChTraitsCRT@D@ATL@@@@@ATL@@$$QAPAVCBcfListItem@@@Z 1002cfd0 f i MainManage.obj
 0001:0002bfd0       ??0?$_Pair_base@$$CBV?$CStringT@DV?$StrTraitMFC_DLL@DV?$ChTraitsCRT@D@ATL@@@@@ATL@@PAVCBcfFileNameItem@@@std@@QAE@ABV?$CStringT@DV?$StrTraitMFC_DLL@DV?$ChTraitsCRT@D@ATL@@@@@ATL@@$$QAPAVCBcfFileNameItem@@@Z 1002cfd0 f i MainManage.obj
 0001:0002c050       ?erase@?$_Tree@V?$_Tmap_traits@V?$CStringT@DV?$StrTraitMFC_DLL@DV?$ChTraitsCRT@D@ATL@@@@@ATL@@PAVCBcfListItem@@U?$less@V?$CStringT@DV?$StrTraitMFC_DLL@DV?$ChTraitsCRT@D@ATL@@@@@ATL@@@std@@V?$allocator@U?$pair@$$CBV?$CStringT@DV?$StrTraitMFC_DLL@DV?$ChTraitsCRT@D@ATL@@@@@ATL@@PAVCBcfListItem@@@std@@@5@$0A@@std@@@std@@QAE?AV?$_Tree_iterator@V?$_Tree_val@V?$_Tmap_traits@V?$CStringT@DV?$StrTraitMFC_DLL@DV?$ChTraitsCRT@D@ATL@@@@@ATL@@PAVCBcfListItem@@U?$less@V?$CStringT@DV?$StrTraitMFC_DLL@DV?$ChTraitsCRT@D@ATL@@@@@ATL@@@std@@V?$allocator@U?$pair@$$CBV?$CStringT@DV?$StrTraitMFC_DLL@DV?$ChTraitsCRT@D@ATL@@@@@ATL@@PAVCBcfListItem@@@std@@@5@$0A@@std@@@std@@@2@V?$_Tree_const_iterator@V?$_Tree_val@V?$_Tmap_traits@V?$CStringT@DV?$StrTraitMFC_DLL@DV?$ChTraitsCRT@D@ATL@@@@@ATL@@PAVCBcfListItem@@U?$less@V?$CStringT@DV?$StrTraitMFC_DLL@DV?$ChTraitsCRT@D@ATL@@@@@ATL@@@std@@V?$allocator@U?$pair@$$CBV?$CStringT@DV?$StrTraitMFC_DLL@DV?$ChTraitsCRT@D@ATL@@@@@ATL@@PAVCBcfListItem@@@std@@@5@$0A@@std@@@std@@@2@@Z 1002d050 f i MainManage.obj
 0001:0002c050       ?erase@?$_Tree@V?$_Tmap_traits@V?$CStringT@DV?$StrTraitMFC_DLL@DV?$ChTraitsCRT@D@ATL@@@@@ATL@@PAVCBcfFileNameItem@@U?$less@V?$CStringT@DV?$StrTraitMFC_DLL@DV?$ChTraitsCRT@D@ATL@@@@@ATL@@@std@@V?$allocator@U?$pair@$$CBV?$CStringT@DV?$StrTraitMFC_DLL@DV?$ChTraitsCRT@D@ATL@@@@@ATL@@PAVCBcfFileNameItem@@@std@@@5@$0A@@std@@@std@@QAE?AV?$_Tree_iterator@V?$_Tree_val@V?$_Tmap_traits@V?$CStringT@DV?$StrTraitMFC_DLL@DV?$ChTraitsCRT@D@ATL@@@@@ATL@@PAVCBcfFileNameItem@@U?$less@V?$CStringT@DV?$StrTraitMFC_DLL@DV?$ChTraitsCRT@D@ATL@@@@@ATL@@@std@@V?$allocator@U?$pair@$$CBV?$CStringT@DV?$StrTraitMFC_DLL@DV?$ChTraitsCRT@D@ATL@@@@@ATL@@PAVCBcfFileNameItem@@@std@@@5@$0A@@std@@@std@@@2@V?$_Tree_const_iterator@V?$_Tree_val@V?$_Tmap_traits@V?$CStringT@DV?$StrTraitMFC_DLL@DV?$ChTraitsCRT@D@ATL@@@@@ATL@@PAVCBcfFileNameItem@@U?$less@V?$CStringT@DV?$StrTraitMFC_DLL@DV?$ChTraitsCRT@D@ATL@@@@@ATL@@@std@@V?$allocator@U?$pair@$$CBV?$CStringT@DV?$StrTraitMFC_DLL@DV?$ChTraitsCRT@D@ATL@@@@@ATL@@PAVCBcfFileNameItem@@@std@@@5@$0A@@std@@@std@@@2@@Z 1002d050 f i MainManage.obj
 0001:0002c7e0       ?_Color@?$_Tree_val@V?$_Tmap_traits@V?$CStringT@DV?$StrTraitMFC_DLL@DV?$ChTraitsCRT@D@ATL@@@@@ATL@@PAVCBcfFileNameItem@@U?$less@V?$CStringT@DV?$StrTraitMFC_DLL@DV?$ChTraitsCRT@D@ATL@@@@@ATL@@@std@@V?$allocator@U?$pair@$$CBV?$CStringT@DV?$StrTraitMFC_DLL@DV?$ChTraitsCRT@D@ATL@@@@@ATL@@PAVCBcfFileNameItem@@@std@@@5@$0A@@std@@@std@@SAAADPAU_Node@?$_Tree_nod@V?$_Tmap_traits@V?$CStringT@DV?$StrTraitMFC_DLL@DV?$ChTraitsCRT@D@ATL@@@@@ATL@@PAVCBcfFileNameItem@@U?$less@V?$CStringT@DV?$StrTraitMFC_DLL@DV?$ChTraitsCRT@D@ATL@@@@@ATL@@@std@@V?$allocator@U?$pair@$$CBV?$CStringT@DV?$StrTraitMFC_DLL@DV?$ChTraitsCRT@D@ATL@@@@@ATL@@PAVCBcfFileNameItem@@@std@@@5@$0A@@std@@@2@@Z 1002d7e0 f i MainManage.obj
 0001:0002c7e0       ?_Color@?$_Tree_val@V?$_Tmap_traits@V?$CStringT@DV?$StrTraitMFC_DLL@DV?$ChTraitsCRT@D@ATL@@@@@ATL@@PAVCBcfListItem@@U?$less@V?$CStringT@DV?$StrTraitMFC_DLL@DV?$ChTraitsCRT@D@ATL@@@@@ATL@@@std@@V?$allocator@U?$pair@$$CBV?$CStringT@DV?$StrTraitMFC_DLL@DV?$ChTraitsCRT@D@ATL@@@@@ATL@@PAVCBcfListItem@@@std@@@5@$0A@@std@@@std@@SAAADPAU_Node@?$_Tree_nod@V?$_Tmap_traits@V?$CStringT@DV?$StrTraitMFC_DLL@DV?$ChTraitsCRT@D@ATL@@@@@ATL@@PAVCBcfListItem@@U?$less@V?$CStringT@DV?$StrTraitMFC_DLL@DV?$ChTraitsCRT@D@ATL@@@@@ATL@@@std@@V?$allocator@U?$pair@$$CBV?$CStringT@DV?$StrTraitMFC_DLL@DV?$ChTraitsCRT@D@ATL@@@@@ATL@@PAVCBcfListItem@@@std@@@5@$0A@@std@@@2@@Z 1002d7e0 f i MainManage.obj
 0001:0002c800       ??0?$_Tree_nod@V?$_Tmap_traits@V?$CStringT@DV?$StrTraitMFC_DLL@DV?$ChTraitsCRT@D@ATL@@@@@ATL@@PAVCBcfListItem@@U?$less@V?$CStringT@DV?$StrTraitMFC_DLL@DV?$ChTraitsCRT@D@ATL@@@@@ATL@@@std@@V?$allocator@U?$pair@$$CBV?$CStringT@DV?$StrTraitMFC_DLL@DV?$ChTraitsCRT@D@ATL@@@@@ATL@@PAVCBcfListItem@@@std@@@5@$0A@@std@@@std@@QAE@ABU?$less@V?$CStringT@DV?$StrTraitMFC_DLL@DV?$ChTraitsCRT@D@ATL@@@@@ATL@@@1@V?$allocator@U?$pair@$$CBV?$CStringT@DV?$StrTraitMFC_DLL@DV?$ChTraitsCRT@D@ATL@@@@@ATL@@PAVCBcfListItem@@@std@@@1@@Z 1002d800 f i MainManage.obj
 0001:0002c800       ??0?$_Tree_nod@V?$_Tmap_traits@V?$CStringT@DV?$StrTraitMFC_DLL@DV?$ChTraitsCRT@D@ATL@@@@@ATL@@PAVCBcfFileNameItem@@U?$less@V?$CStringT@DV?$StrTraitMFC_DLL@DV?$ChTraitsCRT@D@ATL@@@@@ATL@@@std@@V?$allocator@U?$pair@$$CBV?$CStringT@DV?$StrTraitMFC_DLL@DV?$ChTraitsCRT@D@ATL@@@@@ATL@@PAVCBcfFileNameItem@@@std@@@5@$0A@@std@@@std@@QAE@ABU?$less@V?$CStringT@DV?$StrTraitMFC_DLL@DV?$ChTraitsCRT@D@ATL@@@@@ATL@@@1@V?$allocator@U?$pair@$$CBV?$CStringT@DV?$StrTraitMFC_DLL@DV?$ChTraitsCRT@D@ATL@@@@@ATL@@PAVCBcfFileNameItem@@@std@@@1@@Z 1002d800 f i MainManage.obj
 0001:0002c800       ??0?$_Tree_nod@V?$_Tmap_traits@HV?$vector@HV?$allocator@H@std@@@std@@U?$less@H@2@V?$allocator@U?$pair@$$CBHV?$vector@HV?$allocator@H@std@@@std@@@std@@@2@$0A@@std@@@std@@QAE@ABU?$less@H@1@V?$allocator@U?$pair@$$CBHV?$vector@HV?$allocator@H@std@@@std@@@std@@@1@@Z 1002d800 f i AFCSocket.obj
 0001:0002c800       ??0?$_Tree_nod@V?$_Tmap_traits@V?$basic_string@DU?$char_traits@D@std@@V?$allocator@D@2@@std@@VHNTreeNode@@U?$less@V?$basic_string@DU?$char_traits@D@std@@V?$allocator@D@2@@std@@@2@V?$allocator@U?$pair@$$CBV?$basic_string@DU?$char_traits@D@std@@V?$allocator@D@2@@std@@VHNTreeNode@@@std@@@2@$0A@@std@@@std@@QAE@ABU?$less@V?$basic_string@DU?$char_traits@D@std@@V?$allocator@D@2@@std@@@1@V?$allocator@U?$pair@$$CBV?$basic_string@DU?$char_traits@D@std@@V?$allocator@D@2@@std@@VHNTreeNode@@@std@@@1@@Z 1002d800 f i HNFilter.obj
 0001:0002c850       ?allocate@?$allocator@U_Node@?$_Tree_nod@V?$_Tmap_traits@V?$CStringT@DV?$StrTraitMFC_DLL@DV?$ChTraitsCRT@D@ATL@@@@@ATL@@PAVCBcfFileNameItem@@U?$less@V?$CStringT@DV?$StrTraitMFC_DLL@DV?$ChTraitsCRT@D@ATL@@@@@ATL@@@std@@V?$allocator@U?$pair@$$CBV?$CStringT@DV?$StrTraitMFC_DLL@DV?$ChTraitsCRT@D@ATL@@@@@ATL@@PAVCBcfFileNameItem@@@std@@@5@$0A@@std@@@std@@@std@@QAEPAU_Node@?$_Tree_nod@V?$_Tmap_traits@V?$CStringT@DV?$StrTraitMFC_DLL@DV?$ChTraitsCRT@D@ATL@@@@@ATL@@PAVCBcfFileNameItem@@U?$less@V?$CStringT@DV?$StrTraitMFC_DLL@DV?$ChTraitsCRT@D@ATL@@@@@ATL@@@std@@V?$allocator@U?$pair@$$CBV?$CStringT@DV?$StrTraitMFC_DLL@DV?$ChTraitsCRT@D@ATL@@@@@ATL@@PAVCBcfFileNameItem@@@std@@@5@$0A@@std@@@2@I@Z 1002d850 f i MainManage.obj
 0001:0002c850       ?allocate@?$allocator@U_Node@?$_Tree_nod@V?$_Tmap_traits@V?$CStringT@DV?$StrTraitMFC_DLL@DV?$ChTraitsCRT@D@ATL@@@@@ATL@@PAVCBcfListItem@@U?$less@V?$CStringT@DV?$StrTraitMFC_DLL@DV?$ChTraitsCRT@D@ATL@@@@@ATL@@@std@@V?$allocator@U?$pair@$$CBV?$CStringT@DV?$StrTraitMFC_DLL@DV?$ChTraitsCRT@D@ATL@@@@@ATL@@PAVCBcfListItem@@@std@@@5@$0A@@std@@@std@@@std@@QAEPAU_Node@?$_Tree_nod@V?$_Tmap_traits@V?$CStringT@DV?$StrTraitMFC_DLL@DV?$ChTraitsCRT@D@ATL@@@@@ATL@@PAVCBcfListItem@@U?$less@V?$CStringT@DV?$StrTraitMFC_DLL@DV?$ChTraitsCRT@D@ATL@@@@@ATL@@@std@@V?$allocator@U?$pair@$$CBV?$CStringT@DV?$StrTraitMFC_DLL@DV?$ChTraitsCRT@D@ATL@@@@@ATL@@PAVCBcfListItem@@@std@@@5@$0A@@std@@@2@I@Z 1002d850 f i MainManage.obj
 0001:0002c880       ??E?$_Tree_const_iterator@V?$_Tree_val@V?$_Tmap_traits@V?$CStringT@DV?$StrTraitMFC_DLL@DV?$ChTraitsCRT@D@ATL@@@@@ATL@@PAVCBcfListItem@@U?$less@V?$CStringT@DV?$StrTraitMFC_DLL@DV?$ChTraitsCRT@D@ATL@@@@@ATL@@@std@@V?$allocator@U?$pair@$$CBV?$CStringT@DV?$StrTraitMFC_DLL@DV?$ChTraitsCRT@D@ATL@@@@@ATL@@PAVCBcfListItem@@@std@@@5@$0A@@std@@@std@@@std@@QAE?AV01@H@Z 1002d880 f i MainManage.obj
 0001:0002c880       ??E?$_Tree_const_iterator@V?$_Tree_val@V?$_Tmap_traits@V?$CStringT@DV?$StrTraitMFC_DLL@DV?$ChTraitsCRT@D@ATL@@@@@ATL@@PAVCBcfFileNameItem@@U?$less@V?$CStringT@DV?$StrTraitMFC_DLL@DV?$ChTraitsCRT@D@ATL@@@@@ATL@@@std@@V?$allocator@U?$pair@$$CBV?$CStringT@DV?$StrTraitMFC_DLL@DV?$ChTraitsCRT@D@ATL@@@@@ATL@@PAVCBcfFileNameItem@@@std@@@5@$0A@@std@@@std@@@std@@QAE?AV01@H@Z 1002d880 f i MainManage.obj
 0001:0002c8b0       ?_Min@?$_Tree_val@V?$_Tmap_traits@V?$CStringT@DV?$StrTraitMFC_DLL@DV?$ChTraitsCRT@D@ATL@@@@@ATL@@PAVCBcfListItem@@U?$less@V?$CStringT@DV?$StrTraitMFC_DLL@DV?$ChTraitsCRT@D@ATL@@@@@ATL@@@std@@V?$allocator@U?$pair@$$CBV?$CStringT@DV?$StrTraitMFC_DLL@DV?$ChTraitsCRT@D@ATL@@@@@ATL@@PAVCBcfListItem@@@std@@@5@$0A@@std@@@std@@SAPAU_Node@?$_Tree_nod@V?$_Tmap_traits@V?$CStringT@DV?$StrTraitMFC_DLL@DV?$ChTraitsCRT@D@ATL@@@@@ATL@@PAVCBcfListItem@@U?$less@V?$CStringT@DV?$StrTraitMFC_DLL@DV?$ChTraitsCRT@D@ATL@@@@@ATL@@@std@@V?$allocator@U?$pair@$$CBV?$CStringT@DV?$StrTraitMFC_DLL@DV?$ChTraitsCRT@D@ATL@@@@@ATL@@PAVCBcfListItem@@@std@@@5@$0A@@std@@@2@PAU342@@Z 1002d8b0 f i MainManage.obj
 0001:0002c8b0       ?_Min@?$_Tree_val@V?$_Tmap_traits@V?$CStringT@DV?$StrTraitMFC_DLL@DV?$ChTraitsCRT@D@ATL@@@@@ATL@@PAVCBcfFileNameItem@@U?$less@V?$CStringT@DV?$StrTraitMFC_DLL@DV?$ChTraitsCRT@D@ATL@@@@@ATL@@@std@@V?$allocator@U?$pair@$$CBV?$CStringT@DV?$StrTraitMFC_DLL@DV?$ChTraitsCRT@D@ATL@@@@@ATL@@PAVCBcfFileNameItem@@@std@@@5@$0A@@std@@@std@@SAPAU_Node@?$_Tree_nod@V?$_Tmap_traits@V?$CStringT@DV?$StrTraitMFC_DLL@DV?$ChTraitsCRT@D@ATL@@@@@ATL@@PAVCBcfFileNameItem@@U?$less@V?$CStringT@DV?$StrTraitMFC_DLL@DV?$ChTraitsCRT@D@ATL@@@@@ATL@@@std@@V?$allocator@U?$pair@$$CBV?$CStringT@DV?$StrTraitMFC_DLL@DV?$ChTraitsCRT@D@ATL@@@@@ATL@@PAVCBcfFileNameItem@@@std@@@5@$0A@@std@@@2@PAU342@@Z 1002d8b0 f i MainManage.obj
 0001:0002c900       ?_Rrotate@?$_Tree@V?$_Tmap_traits@V?$CStringT@DV?$StrTraitMFC_DLL@DV?$ChTraitsCRT@D@ATL@@@@@ATL@@PAVCBcfFileNameItem@@U?$less@V?$CStringT@DV?$StrTraitMFC_DLL@DV?$ChTraitsCRT@D@ATL@@@@@ATL@@@std@@V?$allocator@U?$pair@$$CBV?$CStringT@DV?$StrTraitMFC_DLL@DV?$ChTraitsCRT@D@ATL@@@@@ATL@@PAVCBcfFileNameItem@@@std@@@5@$0A@@std@@@std@@IAEXPAU_Node@?$_Tree_nod@V?$_Tmap_traits@V?$CStringT@DV?$StrTraitMFC_DLL@DV?$ChTraitsCRT@D@ATL@@@@@ATL@@PAVCBcfFileNameItem@@U?$less@V?$CStringT@DV?$StrTraitMFC_DLL@DV?$ChTraitsCRT@D@ATL@@@@@ATL@@@std@@V?$allocator@U?$pair@$$CBV?$CStringT@DV?$StrTraitMFC_DLL@DV?$ChTraitsCRT@D@ATL@@@@@ATL@@PAVCBcfFileNameItem@@@std@@@5@$0A@@std@@@2@@Z 1002d900 f i MainManage.obj
 0001:0002c900       ?_Rrotate@?$_Tree@V?$_Tmap_traits@V?$CStringT@DV?$StrTraitMFC_DLL@DV?$ChTraitsCRT@D@ATL@@@@@ATL@@PAVCBcfListItem@@U?$less@V?$CStringT@DV?$StrTraitMFC_DLL@DV?$ChTraitsCRT@D@ATL@@@@@ATL@@@std@@V?$allocator@U?$pair@$$CBV?$CStringT@DV?$StrTraitMFC_DLL@DV?$ChTraitsCRT@D@ATL@@@@@ATL@@PAVCBcfListItem@@@std@@@5@$0A@@std@@@std@@IAEXPAU_Node@?$_Tree_nod@V?$_Tmap_traits@V?$CStringT@DV?$StrTraitMFC_DLL@DV?$ChTraitsCRT@D@ATL@@@@@ATL@@PAVCBcfListItem@@U?$less@V?$CStringT@DV?$StrTraitMFC_DLL@DV?$ChTraitsCRT@D@ATL@@@@@ATL@@@std@@V?$allocator@U?$pair@$$CBV?$CStringT@DV?$StrTraitMFC_DLL@DV?$ChTraitsCRT@D@ATL@@@@@ATL@@PAVCBcfListItem@@@std@@@5@$0A@@std@@@2@@Z 1002d900 f i MainManage.obj
 0001:0002ca40       ?_Max@?$_Tree_val@V?$_Tmap_traits@V?$CStringT@DV?$StrTraitMFC_DLL@DV?$ChTraitsCRT@D@ATL@@@@@ATL@@PAVCBcfListItem@@U?$less@V?$CStringT@DV?$StrTraitMFC_DLL@DV?$ChTraitsCRT@D@ATL@@@@@ATL@@@std@@V?$allocator@U?$pair@$$CBV?$CStringT@DV?$StrTraitMFC_DLL@DV?$ChTraitsCRT@D@ATL@@@@@ATL@@PAVCBcfListItem@@@std@@@5@$0A@@std@@@std@@SAPAU_Node@?$_Tree_nod@V?$_Tmap_traits@V?$CStringT@DV?$StrTraitMFC_DLL@DV?$ChTraitsCRT@D@ATL@@@@@ATL@@PAVCBcfListItem@@U?$less@V?$CStringT@DV?$StrTraitMFC_DLL@DV?$ChTraitsCRT@D@ATL@@@@@ATL@@@std@@V?$allocator@U?$pair@$$CBV?$CStringT@DV?$StrTraitMFC_DLL@DV?$ChTraitsCRT@D@ATL@@@@@ATL@@PAVCBcfListItem@@@std@@@5@$0A@@std@@@2@PAU342@@Z 1002da40 f i MainManage.obj
 0001:0002ca40       ?_Max@?$_Tree_val@V?$_Tmap_traits@V?$CStringT@DV?$StrTraitMFC_DLL@DV?$ChTraitsCRT@D@ATL@@@@@ATL@@PAVCBcfFileNameItem@@U?$less@V?$CStringT@DV?$StrTraitMFC_DLL@DV?$ChTraitsCRT@D@ATL@@@@@ATL@@@std@@V?$allocator@U?$pair@$$CBV?$CStringT@DV?$StrTraitMFC_DLL@DV?$ChTraitsCRT@D@ATL@@@@@ATL@@PAVCBcfFileNameItem@@@std@@@5@$0A@@std@@@std@@SAPAU_Node@?$_Tree_nod@V?$_Tmap_traits@V?$CStringT@DV?$StrTraitMFC_DLL@DV?$ChTraitsCRT@D@ATL@@@@@ATL@@PAVCBcfFileNameItem@@U?$less@V?$CStringT@DV?$StrTraitMFC_DLL@DV?$ChTraitsCRT@D@ATL@@@@@ATL@@@std@@V?$allocator@U?$pair@$$CBV?$CStringT@DV?$StrTraitMFC_DLL@DV?$ChTraitsCRT@D@ATL@@@@@ATL@@PAVCBcfFileNameItem@@@std@@@5@$0A@@std@@@2@PAU342@@Z 1002da40 f i MainManage.obj
 0001:0002ca90       ??$sprintf_s@$0PP@@@YAHAAY0PP@DPBDZZ 1002da90 f i MainManage.obj
 0001:0002cac0       ??$insert@U?$pair@$$CBV?$CStringT@DV?$StrTraitMFC_DLL@DV?$ChTraitsCRT@D@ATL@@@@@ATL@@PAVCBcfListItem@@@std@@@?$_Tree@V?$_Tmap_traits@V?$CStringT@DV?$StrTraitMFC_DLL@DV?$ChTraitsCRT@D@ATL@@@@@ATL@@PAVCBcfListItem@@U?$less@V?$CStringT@DV?$StrTraitMFC_DLL@DV?$ChTraitsCRT@D@ATL@@@@@ATL@@@std@@V?$allocator@U?$pair@$$CBV?$CStringT@DV?$StrTraitMFC_DLL@DV?$ChTraitsCRT@D@ATL@@@@@ATL@@PAVCBcfListItem@@@std@@@5@$0A@@std@@@std@@QAE?AV?$_Tree_iterator@V?$_Tree_val@V?$_Tmap_traits@V?$CStringT@DV?$StrTraitMFC_DLL@DV?$ChTraitsCRT@D@ATL@@@@@ATL@@PAVCBcfListItem@@U?$less@V?$CStringT@DV?$StrTraitMFC_DLL@DV?$ChTraitsCRT@D@ATL@@@@@ATL@@@std@@V?$allocator@U?$pair@$$CBV?$CStringT@DV?$StrTraitMFC_DLL@DV?$ChTraitsCRT@D@ATL@@@@@ATL@@PAVCBcfListItem@@@std@@@5@$0A@@std@@@std@@@1@V?$_Tree_const_iterator@V?$_Tree_val@V?$_Tmap_traits@V?$CStringT@DV?$StrTraitMFC_DLL@DV?$ChTraitsCRT@D@ATL@@@@@ATL@@PAVCBcfListItem@@U?$less@V?$CStringT@DV?$StrTraitMFC_DLL@DV?$ChTraitsCRT@D@ATL@@@@@ATL@@@std@@V?$allocator@U?$pair@$$CBV?$CStringT@DV?$StrTraitMFC_DLL@DV?$ChTraitsCRT@D@ATL@@@@@ATL@@PAVCBcfListItem@@@std@@@5@$0A@@std@@@std@@@1@$$QAU?$pair@$$CBV?$CStringT@DV?$StrTraitMFC_DLL@DV?$ChTraitsCRT@D@ATL@@@@@ATL@@PAVCBcfListItem@@@1@@Z 1002dac0 f i MainManage.obj
 0001:0002cb00       ??$insert@U?$pair@$$CBV?$CStringT@DV?$StrTraitMFC_DLL@DV?$ChTraitsCRT@D@ATL@@@@@ATL@@PAVCBcfFileNameItem@@@std@@@?$_Tree@V?$_Tmap_traits@V?$CStringT@DV?$StrTraitMFC_DLL@DV?$ChTraitsCRT@D@ATL@@@@@ATL@@PAVCBcfFileNameItem@@U?$less@V?$CStringT@DV?$StrTraitMFC_DLL@DV?$ChTraitsCRT@D@ATL@@@@@ATL@@@std@@V?$allocator@U?$pair@$$CBV?$CStringT@DV?$StrTraitMFC_DLL@DV?$ChTraitsCRT@D@ATL@@@@@ATL@@PAVCBcfFileNameItem@@@std@@@5@$0A@@std@@@std@@QAE?AV?$_Tree_iterator@V?$_Tree_val@V?$_Tmap_traits@V?$CStringT@DV?$StrTraitMFC_DLL@DV?$ChTraitsCRT@D@ATL@@@@@ATL@@PAVCBcfFileNameItem@@U?$less@V?$CStringT@DV?$StrTraitMFC_DLL@DV?$ChTraitsCRT@D@ATL@@@@@ATL@@@std@@V?$allocator@U?$pair@$$CBV?$CStringT@DV?$StrTraitMFC_DLL@DV?$ChTraitsCRT@D@ATL@@@@@ATL@@PAVCBcfFileNameItem@@@std@@@5@$0A@@std@@@std@@@1@V?$_Tree_const_iterator@V?$_Tree_val@V?$_Tmap_traits@V?$CStringT@DV?$StrTraitMFC_DLL@DV?$ChTraitsCRT@D@ATL@@@@@ATL@@PAVCBcfFileNameItem@@U?$less@V?$CStringT@DV?$StrTraitMFC_DLL@DV?$ChTraitsCRT@D@ATL@@@@@ATL@@@std@@V?$allocator@U?$pair@$$CBV?$CStringT@DV?$StrTraitMFC_DLL@DV?$ChTraitsCRT@D@ATL@@@@@ATL@@PAVCBcfFileNameItem@@@std@@@5@$0A@@std@@@std@@@1@$$QAU?$pair@$$CBV?$CStringT@DV?$StrTraitMFC_DLL@DV?$ChTraitsCRT@D@ATL@@@@@ATL@@PAVCBcfFileNameItem@@@1@@Z 1002db00 f i MainManage.obj
 0001:0002cb40       ??$_Dest_val@V?$allocator@U?$pair@$$CBV?$CStringT@DV?$StrTraitMFC_DLL@DV?$ChTraitsCRT@D@ATL@@@@@ATL@@PAVCBcfListItem@@@std@@@std@@U?$pair@$$CBV?$CStringT@DV?$StrTraitMFC_DLL@DV?$ChTraitsCRT@D@ATL@@@@@ATL@@PAVCBcfListItem@@@2@@std@@YAXAAV?$allocator@U?$pair@$$CBV?$CStringT@DV?$StrTraitMFC_DLL@DV?$ChTraitsCRT@D@ATL@@@@@ATL@@PAVCBcfListItem@@@std@@@0@PAU?$pair@$$CBV?$CStringT@DV?$StrTraitMFC_DLL@DV?$ChTraitsCRT@D@ATL@@@@@ATL@@PAVCBcfListItem@@@0@@Z 1002db40 f i MainManage.obj
 0001:0002cb40       ??$_Dest_val@V?$allocator@U?$pair@$$CBV?$CStringT@DV?$StrTraitMFC_DLL@DV?$ChTraitsCRT@D@ATL@@@@@ATL@@PAVCBcfFileNameItem@@@std@@@std@@U?$pair@$$CBV?$CStringT@DV?$StrTraitMFC_DLL@DV?$ChTraitsCRT@D@ATL@@@@@ATL@@PAVCBcfFileNameItem@@@2@@std@@YAXAAV?$allocator@U?$pair@$$CBV?$CStringT@DV?$StrTraitMFC_DLL@DV?$ChTraitsCRT@D@ATL@@@@@ATL@@PAVCBcfFileNameItem@@@std@@@0@PAU?$pair@$$CBV?$CStringT@DV?$StrTraitMFC_DLL@DV?$ChTraitsCRT@D@ATL@@@@@ATL@@PAVCBcfFileNameItem@@@0@@Z 1002db40 f i MainManage.obj
 0001:0002cb60       ??$_Allocate@U_Node@?$_Tree_nod@V?$_Tmap_traits@V?$CStringT@DV?$StrTraitMFC_DLL@DV?$ChTraitsCRT@D@ATL@@@@@ATL@@PAVCBcfFileNameItem@@U?$less@V?$CStringT@DV?$StrTraitMFC_DLL@DV?$ChTraitsCRT@D@ATL@@@@@ATL@@@std@@V?$allocator@U?$pair@$$CBV?$CStringT@DV?$StrTraitMFC_DLL@DV?$ChTraitsCRT@D@ATL@@@@@ATL@@PAVCBcfFileNameItem@@@std@@@5@$0A@@std@@@std@@@std@@YAPAU_Node@?$_Tree_nod@V?$_Tmap_traits@V?$CStringT@DV?$StrTraitMFC_DLL@DV?$ChTraitsCRT@D@ATL@@@@@ATL@@PAVCBcfFileNameItem@@U?$less@V?$CStringT@DV?$StrTraitMFC_DLL@DV?$ChTraitsCRT@D@ATL@@@@@ATL@@@std@@V?$allocator@U?$pair@$$CBV?$CStringT@DV?$StrTraitMFC_DLL@DV?$ChTraitsCRT@D@ATL@@@@@ATL@@PAVCBcfFileNameItem@@@std@@@5@$0A@@std@@@0@IPAU120@@Z 1002db60 f i MainManage.obj
 0001:0002cb60       ??$_Allocate@U_Node@?$_Tree_nod@V?$_Tmap_traits@V?$CStringT@DV?$StrTraitMFC_DLL@DV?$ChTraitsCRT@D@ATL@@@@@ATL@@PAVCBcfListItem@@U?$less@V?$CStringT@DV?$StrTraitMFC_DLL@DV?$ChTraitsCRT@D@ATL@@@@@ATL@@@std@@V?$allocator@U?$pair@$$CBV?$CStringT@DV?$StrTraitMFC_DLL@DV?$ChTraitsCRT@D@ATL@@@@@ATL@@PAVCBcfListItem@@@std@@@5@$0A@@std@@@std@@@std@@YAPAU_Node@?$_Tree_nod@V?$_Tmap_traits@V?$CStringT@DV?$StrTraitMFC_DLL@DV?$ChTraitsCRT@D@ATL@@@@@ATL@@PAVCBcfListItem@@U?$less@V?$CStringT@DV?$StrTraitMFC_DLL@DV?$ChTraitsCRT@D@ATL@@@@@ATL@@@std@@V?$allocator@U?$pair@$$CBV?$CStringT@DV?$StrTraitMFC_DLL@DV?$ChTraitsCRT@D@ATL@@@@@ATL@@PAVCBcfListItem@@@std@@@5@$0A@@std@@@0@IPAU120@@Z 1002db60 f i MainManage.obj
 0001:0002cbd0       ?_Insert@?$_Tree@V?$_Tmap_traits@V?$CStringT@DV?$StrTraitMFC_DLL@DV?$ChTraitsCRT@D@ATL@@@@@ATL@@PAVCBcfListItem@@U?$less@V?$CStringT@DV?$StrTraitMFC_DLL@DV?$ChTraitsCRT@D@ATL@@@@@ATL@@@std@@V?$allocator@U?$pair@$$CBV?$CStringT@DV?$StrTraitMFC_DLL@DV?$ChTraitsCRT@D@ATL@@@@@ATL@@PAVCBcfListItem@@@std@@@5@$0A@@std@@@std@@QAE?AV?$_Tree_iterator@V?$_Tree_val@V?$_Tmap_traits@V?$CStringT@DV?$StrTraitMFC_DLL@DV?$ChTraitsCRT@D@ATL@@@@@ATL@@PAVCBcfListItem@@U?$less@V?$CStringT@DV?$StrTraitMFC_DLL@DV?$ChTraitsCRT@D@ATL@@@@@ATL@@@std@@V?$allocator@U?$pair@$$CBV?$CStringT@DV?$StrTraitMFC_DLL@DV?$ChTraitsCRT@D@ATL@@@@@ATL@@PAVCBcfListItem@@@std@@@5@$0A@@std@@@std@@@2@V?$_Tree_const_iterator@V?$_Tree_val@V?$_Tmap_traits@V?$CStringT@DV?$StrTraitMFC_DLL@DV?$ChTraitsCRT@D@ATL@@@@@ATL@@PAVCBcfListItem@@U?$less@V?$CStringT@DV?$StrTraitMFC_DLL@DV?$ChTraitsCRT@D@ATL@@@@@ATL@@@std@@V?$allocator@U?$pair@$$CBV?$CStringT@DV?$StrTraitMFC_DLL@DV?$ChTraitsCRT@D@ATL@@@@@ATL@@PAVCBcfListItem@@@std@@@5@$0A@@std@@@std@@@2@PAU_Node@?$_Tree_nod@V?$_Tmap_traits@V?$CStringT@DV?$StrTraitMFC_DLL@DV?$ChTraitsCRT@D@ATL@@@@@ATL@@PAVCBcfListItem@@U?$less@V?$CStringT@DV?$StrTraitMFC_DLL@DV?$ChTraitsCRT@D@ATL@@@@@ATL@@@std@@V?$allocator@U?$pair@$$CBV?$CStringT@DV?$StrTraitMFC_DLL@DV?$ChTraitsCRT@D@ATL@@@@@ATL@@PAVCBcfListItem@@@std@@@5@$0A@@std@@@2@@Z 1002dbd0 f i MainManage.obj
 0001:0002d1e0       ?_Insert@?$_Tree@V?$_Tmap_traits@V?$CStringT@DV?$StrTraitMFC_DLL@DV?$ChTraitsCRT@D@ATL@@@@@ATL@@PAVCBcfFileNameItem@@U?$less@V?$CStringT@DV?$StrTraitMFC_DLL@DV?$ChTraitsCRT@D@ATL@@@@@ATL@@@std@@V?$allocator@U?$pair@$$CBV?$CStringT@DV?$StrTraitMFC_DLL@DV?$ChTraitsCRT@D@ATL@@@@@ATL@@PAVCBcfFileNameItem@@@std@@@5@$0A@@std@@@std@@QAE?AV?$_Tree_iterator@V?$_Tree_val@V?$_Tmap_traits@V?$CStringT@DV?$StrTraitMFC_DLL@DV?$ChTraitsCRT@D@ATL@@@@@ATL@@PAVCBcfFileNameItem@@U?$less@V?$CStringT@DV?$StrTraitMFC_DLL@DV?$ChTraitsCRT@D@ATL@@@@@ATL@@@std@@V?$allocator@U?$pair@$$CBV?$CStringT@DV?$StrTraitMFC_DLL@DV?$ChTraitsCRT@D@ATL@@@@@ATL@@PAVCBcfFileNameItem@@@std@@@5@$0A@@std@@@std@@@2@V?$_Tree_const_iterator@V?$_Tree_val@V?$_Tmap_traits@V?$CStringT@DV?$StrTraitMFC_DLL@DV?$ChTraitsCRT@D@ATL@@@@@ATL@@PAVCBcfFileNameItem@@U?$less@V?$CStringT@DV?$StrTraitMFC_DLL@DV?$ChTraitsCRT@D@ATL@@@@@ATL@@@std@@V?$allocator@U?$pair@$$CBV?$CStringT@DV?$StrTraitMFC_DLL@DV?$ChTraitsCRT@D@ATL@@@@@ATL@@PAVCBcfFileNameItem@@@std@@@5@$0A@@std@@@std@@@2@PAU_Node@?$_Tree_nod@V?$_Tmap_traits@V?$CStringT@DV?$StrTraitMFC_DLL@DV?$ChTraitsCRT@D@ATL@@@@@ATL@@PAVCBcfFileNameItem@@U?$less@V?$CStringT@DV?$StrTraitMFC_DLL@DV?$ChTraitsCRT@D@ATL@@@@@ATL@@@std@@V?$allocator@U?$pair@$$CBV?$CStringT@DV?$StrTraitMFC_DLL@DV?$ChTraitsCRT@D@ATL@@@@@ATL@@PAVCBcfFileNameItem@@@std@@@5@$0A@@std@@@2@@Z 1002e1e0 f i MainManage.obj
 0001:0002d7f0       ?destroy@?$allocator@U?$pair@$$CBV?$CStringT@DV?$StrTraitMFC_DLL@DV?$ChTraitsCRT@D@ATL@@@@@ATL@@PAVCBcfFileNameItem@@@std@@@std@@QAEXPAU?$pair@$$CBV?$CStringT@DV?$StrTraitMFC_DLL@DV?$ChTraitsCRT@D@ATL@@@@@ATL@@PAVCBcfFileNameItem@@@2@@Z 1002e7f0 f i MainManage.obj
 0001:0002d7f0       ?destroy@?$allocator@U?$pair@$$CBV?$CStringT@DV?$StrTraitMFC_DLL@DV?$ChTraitsCRT@D@ATL@@@@@ATL@@PAVCBcfListItem@@@std@@@std@@QAEXPAU?$pair@$$CBV?$CStringT@DV?$StrTraitMFC_DLL@DV?$ChTraitsCRT@D@ATL@@@@@ATL@@PAVCBcfListItem@@@2@@Z 1002e7f0 f i MainManage.obj
 0001:0002d820       ?_Linsert@?$_Tree@V?$_Tmap_traits@V?$CStringT@DV?$StrTraitMFC_DLL@DV?$ChTraitsCRT@D@ATL@@@@@ATL@@PAVCBcfListItem@@U?$less@V?$CStringT@DV?$StrTraitMFC_DLL@DV?$ChTraitsCRT@D@ATL@@@@@ATL@@@std@@V?$allocator@U?$pair@$$CBV?$CStringT@DV?$StrTraitMFC_DLL@DV?$ChTraitsCRT@D@ATL@@@@@ATL@@PAVCBcfListItem@@@std@@@5@$0A@@std@@@std@@QAE?AU?$pair@V?$_Tree_iterator@V?$_Tree_val@V?$_Tmap_traits@V?$CStringT@DV?$StrTraitMFC_DLL@DV?$ChTraitsCRT@D@ATL@@@@@ATL@@PAVCBcfListItem@@U?$less@V?$CStringT@DV?$StrTraitMFC_DLL@DV?$ChTraitsCRT@D@ATL@@@@@ATL@@@std@@V?$allocator@U?$pair@$$CBV?$CStringT@DV?$StrTraitMFC_DLL@DV?$ChTraitsCRT@D@ATL@@@@@ATL@@PAVCBcfListItem@@@std@@@5@$0A@@std@@@std@@@std@@_N@2@PAU_Node@?$_Tree_nod@V?$_Tmap_traits@V?$CStringT@DV?$StrTraitMFC_DLL@DV?$ChTraitsCRT@D@ATL@@@@@ATL@@PAVCBcfListItem@@U?$less@V?$CStringT@DV?$StrTraitMFC_DLL@DV?$ChTraitsCRT@D@ATL@@@@@ATL@@@std@@V?$allocator@U?$pair@$$CBV?$CStringT@DV?$StrTraitMFC_DLL@DV?$ChTraitsCRT@D@ATL@@@@@ATL@@PAVCBcfListItem@@@std@@@5@$0A@@std@@@2@_N@Z 1002e820 f i MainManage.obj
 0001:0002d820       ?_Linsert@?$_Tree@V?$_Tmap_traits@V?$CStringT@DV?$StrTraitMFC_DLL@DV?$ChTraitsCRT@D@ATL@@@@@ATL@@PAVCBcfFileNameItem@@U?$less@V?$CStringT@DV?$StrTraitMFC_DLL@DV?$ChTraitsCRT@D@ATL@@@@@ATL@@@std@@V?$allocator@U?$pair@$$CBV?$CStringT@DV?$StrTraitMFC_DLL@DV?$ChTraitsCRT@D@ATL@@@@@ATL@@PAVCBcfFileNameItem@@@std@@@5@$0A@@std@@@std@@QAE?AU?$pair@V?$_Tree_iterator@V?$_Tree_val@V?$_Tmap_traits@V?$CStringT@DV?$StrTraitMFC_DLL@DV?$ChTraitsCRT@D@ATL@@@@@ATL@@PAVCBcfFileNameItem@@U?$less@V?$CStringT@DV?$StrTraitMFC_DLL@DV?$ChTraitsCRT@D@ATL@@@@@ATL@@@std@@V?$allocator@U?$pair@$$CBV?$CStringT@DV?$StrTraitMFC_DLL@DV?$ChTraitsCRT@D@ATL@@@@@ATL@@PAVCBcfFileNameItem@@@std@@@5@$0A@@std@@@std@@@std@@_N@2@PAU_Node@?$_Tree_nod@V?$_Tmap_traits@V?$CStringT@DV?$StrTraitMFC_DLL@DV?$ChTraitsCRT@D@ATL@@@@@ATL@@PAVCBcfFileNameItem@@U?$less@V?$CStringT@DV?$StrTraitMFC_DLL@DV?$ChTraitsCRT@D@ATL@@@@@ATL@@@std@@V?$allocator@U?$pair@$$CBV?$CStringT@DV?$StrTraitMFC_DLL@DV?$ChTraitsCRT@D@ATL@@@@@ATL@@PAVCBcfFileNameItem@@@std@@@5@$0A@@std@@@2@_N@Z 1002e820 f i MainManage.obj
 0001:0002da70       ?_Insert@?$_Tree@V?$_Tmap_traits@V?$CStringT@DV?$StrTraitMFC_DLL@DV?$ChTraitsCRT@D@ATL@@@@@ATL@@PAVCBcfListItem@@U?$less@V?$CStringT@DV?$StrTraitMFC_DLL@DV?$ChTraitsCRT@D@ATL@@@@@ATL@@@std@@V?$allocator@U?$pair@$$CBV?$CStringT@DV?$StrTraitMFC_DLL@DV?$ChTraitsCRT@D@ATL@@@@@ATL@@PAVCBcfListItem@@@std@@@5@$0A@@std@@@std@@IAE?AV?$_Tree_iterator@V?$_Tree_val@V?$_Tmap_traits@V?$CStringT@DV?$StrTraitMFC_DLL@DV?$ChTraitsCRT@D@ATL@@@@@ATL@@PAVCBcfListItem@@U?$less@V?$CStringT@DV?$StrTraitMFC_DLL@DV?$ChTraitsCRT@D@ATL@@@@@ATL@@@std@@V?$allocator@U?$pair@$$CBV?$CStringT@DV?$StrTraitMFC_DLL@DV?$ChTraitsCRT@D@ATL@@@@@ATL@@PAVCBcfListItem@@@std@@@5@$0A@@std@@@std@@@2@_NPAU_Node@?$_Tree_nod@V?$_Tmap_traits@V?$CStringT@DV?$StrTraitMFC_DLL@DV?$ChTraitsCRT@D@ATL@@@@@ATL@@PAVCBcfListItem@@U?$less@V?$CStringT@DV?$StrTraitMFC_DLL@DV?$ChTraitsCRT@D@ATL@@@@@ATL@@@std@@V?$allocator@U?$pair@$$CBV?$CStringT@DV?$StrTraitMFC_DLL@DV?$ChTraitsCRT@D@ATL@@@@@ATL@@PAVCBcfListItem@@@std@@@5@$0A@@std@@@2@1@Z 1002ea70 f i MainManage.obj
 0001:0002da70       ?_Insert@?$_Tree@V?$_Tmap_traits@V?$CStringT@DV?$StrTraitMFC_DLL@DV?$ChTraitsCRT@D@ATL@@@@@ATL@@PAVCBcfFileNameItem@@U?$less@V?$CStringT@DV?$StrTraitMFC_DLL@DV?$ChTraitsCRT@D@ATL@@@@@ATL@@@std@@V?$allocator@U?$pair@$$CBV?$CStringT@DV?$StrTraitMFC_DLL@DV?$ChTraitsCRT@D@ATL@@@@@ATL@@PAVCBcfFileNameItem@@@std@@@5@$0A@@std@@@std@@IAE?AV?$_Tree_iterator@V?$_Tree_val@V?$_Tmap_traits@V?$CStringT@DV?$StrTraitMFC_DLL@DV?$ChTraitsCRT@D@ATL@@@@@ATL@@PAVCBcfFileNameItem@@U?$less@V?$CStringT@DV?$StrTraitMFC_DLL@DV?$ChTraitsCRT@D@ATL@@@@@ATL@@@std@@V?$allocator@U?$pair@$$CBV?$CStringT@DV?$StrTraitMFC_DLL@DV?$ChTraitsCRT@D@ATL@@@@@ATL@@PAVCBcfFileNameItem@@@std@@@5@$0A@@std@@@std@@@2@_NPAU_Node@?$_Tree_nod@V?$_Tmap_traits@V?$CStringT@DV?$StrTraitMFC_DLL@DV?$ChTraitsCRT@D@ATL@@@@@ATL@@PAVCBcfFileNameItem@@U?$less@V?$CStringT@DV?$StrTraitMFC_DLL@DV?$ChTraitsCRT@D@ATL@@@@@ATL@@@std@@V?$allocator@U?$pair@$$CBV?$CStringT@DV?$StrTraitMFC_DLL@DV?$ChTraitsCRT@D@ATL@@@@@ATL@@PAVCBcfFileNameItem@@@std@@@5@$0A@@std@@@2@1@Z 1002ea70 f i MainManage.obj
 0001:0002deb0       ??F?$_Tree_const_iterator@V?$_Tree_val@V?$_Tmap_traits@V?$CStringT@DV?$StrTraitMFC_DLL@DV?$ChTraitsCRT@D@ATL@@@@@ATL@@PAVCBcfListItem@@U?$less@V?$CStringT@DV?$StrTraitMFC_DLL@DV?$ChTraitsCRT@D@ATL@@@@@ATL@@@std@@V?$allocator@U?$pair@$$CBV?$CStringT@DV?$StrTraitMFC_DLL@DV?$ChTraitsCRT@D@ATL@@@@@ATL@@PAVCBcfListItem@@@std@@@5@$0A@@std@@@std@@@std@@QAEAAV01@XZ 1002eeb0 f i MainManage.obj
 0001:0002deb0       ??F?$_Tree_const_iterator@V?$_Tree_val@V?$_Tmap_traits@V?$CStringT@DV?$StrTraitMFC_DLL@DV?$ChTraitsCRT@D@ATL@@@@@ATL@@PAVCBcfFileNameItem@@U?$less@V?$CStringT@DV?$StrTraitMFC_DLL@DV?$ChTraitsCRT@D@ATL@@@@@ATL@@@std@@V?$allocator@U?$pair@$$CBV?$CStringT@DV?$StrTraitMFC_DLL@DV?$ChTraitsCRT@D@ATL@@@@@ATL@@PAVCBcfFileNameItem@@@std@@@5@$0A@@std@@@std@@@std@@QAEAAV01@XZ 1002eeb0 f i MainManage.obj
 0001:0002ded0       ?size@?$_Tree@V?$_Tmap_traits@V?$CStringT@DV?$StrTraitMFC_DLL@DV?$ChTraitsCRT@D@ATL@@@@@ATL@@PAVCBcfFileNameItem@@U?$less@V?$CStringT@DV?$StrTraitMFC_DLL@DV?$ChTraitsCRT@D@ATL@@@@@ATL@@@std@@V?$allocator@U?$pair@$$CBV?$CStringT@DV?$StrTraitMFC_DLL@DV?$ChTraitsCRT@D@ATL@@@@@ATL@@PAVCBcfFileNameItem@@@std@@@5@$0A@@std@@@std@@QBEIXZ 1002eed0 f i MainManage.obj
 0001:0002ded0       ?GetHandleID@CTCPSocket@@QAEKXZ 1002eed0 f i AFCDataBase.obj
 0001:0002ded0       ?GetHandleID@CTCPSocketForWeb@@QAEKXZ 1002eed0 f i AFCWebSocket.obj
 0001:0002ded0       ?GetHandleID@CTCPSocketForZ@@QAEKXZ 1002eed0 f i AFCDataBase.obj
 0001:0002ded0       ?size@?$_Tree@V?$_Tmap_traits@HV?$vector@HV?$allocator@H@std@@@std@@U?$less@H@2@V?$allocator@U?$pair@$$CBHV?$vector@HV?$allocator@H@std@@@std@@@std@@@2@$0A@@std@@@std@@QBEIXZ 1002eed0 f i AFCSocket.obj
 0001:0002ded0       ?size@?$_Tree@V?$_Tmap_traits@V?$CStringT@DV?$StrTraitMFC_DLL@DV?$ChTraitsCRT@D@ATL@@@@@ATL@@PAVCBcfListItem@@U?$less@V?$CStringT@DV?$StrTraitMFC_DLL@DV?$ChTraitsCRT@D@ATL@@@@@ATL@@@std@@V?$allocator@U?$pair@$$CBV?$CStringT@DV?$StrTraitMFC_DLL@DV?$ChTraitsCRT@D@ATL@@@@@ATL@@PAVCBcfListItem@@@std@@@5@$0A@@std@@@std@@QBEIXZ 1002eed0 f i MainManage.obj
 0001:0002ded0       ?size@?$_Tree@V?$_Tmap_traits@V?$basic_string@DU?$char_traits@D@std@@V?$allocator@D@2@@std@@VHNTreeNode@@U?$less@V?$basic_string@DU?$char_traits@D@std@@V?$allocator@D@2@@std@@@2@V?$allocator@U?$pair@$$CBV?$basic_string@DU?$char_traits@D@std@@V?$allocator@D@2@@std@@VHNTreeNode@@@std@@@2@$0A@@std@@@std@@QBEIXZ 1002eed0 f i HNFilter.obj
 0001:0002def0       ?_Lrotate@?$_Tree@V?$_Tmap_traits@V?$CStringT@DV?$StrTraitMFC_DLL@DV?$ChTraitsCRT@D@ATL@@@@@ATL@@PAVCBcfFileNameItem@@U?$less@V?$CStringT@DV?$StrTraitMFC_DLL@DV?$ChTraitsCRT@D@ATL@@@@@ATL@@@std@@V?$allocator@U?$pair@$$CBV?$CStringT@DV?$StrTraitMFC_DLL@DV?$ChTraitsCRT@D@ATL@@@@@ATL@@PAVCBcfFileNameItem@@@std@@@5@$0A@@std@@@std@@IAEXPAU_Node@?$_Tree_nod@V?$_Tmap_traits@V?$CStringT@DV?$StrTraitMFC_DLL@DV?$ChTraitsCRT@D@ATL@@@@@ATL@@PAVCBcfFileNameItem@@U?$less@V?$CStringT@DV?$StrTraitMFC_DLL@DV?$ChTraitsCRT@D@ATL@@@@@ATL@@@std@@V?$allocator@U?$pair@$$CBV?$CStringT@DV?$StrTraitMFC_DLL@DV?$ChTraitsCRT@D@ATL@@@@@ATL@@PAVCBcfFileNameItem@@@std@@@5@$0A@@std@@@2@@Z 1002eef0 f i MainManage.obj
 0001:0002def0       ?_Lrotate@?$_Tree@V?$_Tmap_traits@V?$CStringT@DV?$StrTraitMFC_DLL@DV?$ChTraitsCRT@D@ATL@@@@@ATL@@PAVCBcfListItem@@U?$less@V?$CStringT@DV?$StrTraitMFC_DLL@DV?$ChTraitsCRT@D@ATL@@@@@ATL@@@std@@V?$allocator@U?$pair@$$CBV?$CStringT@DV?$StrTraitMFC_DLL@DV?$ChTraitsCRT@D@ATL@@@@@ATL@@PAVCBcfListItem@@@std@@@5@$0A@@std@@@std@@IAEXPAU_Node@?$_Tree_nod@V?$_Tmap_traits@V?$CStringT@DV?$StrTraitMFC_DLL@DV?$ChTraitsCRT@D@ATL@@@@@ATL@@PAVCBcfListItem@@U?$less@V?$CStringT@DV?$StrTraitMFC_DLL@DV?$ChTraitsCRT@D@ATL@@@@@ATL@@@std@@V?$allocator@U?$pair@$$CBV?$CStringT@DV?$StrTraitMFC_DLL@DV?$ChTraitsCRT@D@ATL@@@@@ATL@@PAVCBcfListItem@@@std@@@5@$0A@@std@@@2@@Z 1002eef0 f i MainManage.obj
 0001:0002e030       ?max_size@?$_Tree@V?$_Tmap_traits@V?$CStringT@DV?$StrTraitMFC_DLL@DV?$ChTraitsCRT@D@ATL@@@@@ATL@@PAVCBcfFileNameItem@@U?$less@V?$CStringT@DV?$StrTraitMFC_DLL@DV?$ChTraitsCRT@D@ATL@@@@@ATL@@@std@@V?$allocator@U?$pair@$$CBV?$CStringT@DV?$StrTraitMFC_DLL@DV?$ChTraitsCRT@D@ATL@@@@@ATL@@PAVCBcfFileNameItem@@@std@@@5@$0A@@std@@@std@@QBEIXZ 1002f030 f i MainManage.obj
 0001:0002e030       ?max_size@?$_Tree@V?$_Tmap_traits@V?$CStringT@DV?$StrTraitMFC_DLL@DV?$ChTraitsCRT@D@ATL@@@@@ATL@@PAVCBcfListItem@@U?$less@V?$CStringT@DV?$StrTraitMFC_DLL@DV?$ChTraitsCRT@D@ATL@@@@@ATL@@@std@@V?$allocator@U?$pair@$$CBV?$CStringT@DV?$StrTraitMFC_DLL@DV?$ChTraitsCRT@D@ATL@@@@@ATL@@PAVCBcfListItem@@@std@@@5@$0A@@std@@@std@@QBEIXZ 1002f030 f i MainManage.obj
 0001:0002e050       ??F?$_Tree_iterator@V?$_Tree_val@V?$_Tmap_traits@V?$CStringT@DV?$StrTraitMFC_DLL@DV?$ChTraitsCRT@D@ATL@@@@@ATL@@PAVCBcfListItem@@U?$less@V?$CStringT@DV?$StrTraitMFC_DLL@DV?$ChTraitsCRT@D@ATL@@@@@ATL@@@std@@V?$allocator@U?$pair@$$CBV?$CStringT@DV?$StrTraitMFC_DLL@DV?$ChTraitsCRT@D@ATL@@@@@ATL@@PAVCBcfListItem@@@std@@@5@$0A@@std@@@std@@@std@@QAEAAV01@XZ 1002f050 f i MainManage.obj
 0001:0002e050       ??F?$_Tree_iterator@V?$_Tree_val@V?$_Tmap_traits@V?$CStringT@DV?$StrTraitMFC_DLL@DV?$ChTraitsCRT@D@ATL@@@@@ATL@@PAVCBcfFileNameItem@@U?$less@V?$CStringT@DV?$StrTraitMFC_DLL@DV?$ChTraitsCRT@D@ATL@@@@@ATL@@@std@@V?$allocator@U?$pair@$$CBV?$CStringT@DV?$StrTraitMFC_DLL@DV?$ChTraitsCRT@D@ATL@@@@@ATL@@PAVCBcfFileNameItem@@@std@@@5@$0A@@std@@@std@@@std@@QAEAAV01@XZ 1002f050 f i MainManage.obj
 0001:0002e070       ??F?$_Tree_unchecked_const_iterator@V?$_Tree_val@V?$_Tmap_traits@V?$CStringT@DV?$StrTraitMFC_DLL@DV?$ChTraitsCRT@D@ATL@@@@@ATL@@PAVCBcfListItem@@U?$less@V?$CStringT@DV?$StrTraitMFC_DLL@DV?$ChTraitsCRT@D@ATL@@@@@ATL@@@std@@V?$allocator@U?$pair@$$CBV?$CStringT@DV?$StrTraitMFC_DLL@DV?$ChTraitsCRT@D@ATL@@@@@ATL@@PAVCBcfListItem@@@std@@@5@$0A@@std@@@std@@U_Iterator_base0@2@@std@@QAEAAV01@XZ 1002f070 f i MainManage.obj
 0001:0002e070       ??F?$_Tree_unchecked_const_iterator@V?$_Tree_val@V?$_Tmap_traits@V?$CStringT@DV?$StrTraitMFC_DLL@DV?$ChTraitsCRT@D@ATL@@@@@ATL@@PAVCBcfFileNameItem@@U?$less@V?$CStringT@DV?$StrTraitMFC_DLL@DV?$ChTraitsCRT@D@ATL@@@@@ATL@@@std@@V?$allocator@U?$pair@$$CBV?$CStringT@DV?$StrTraitMFC_DLL@DV?$ChTraitsCRT@D@ATL@@@@@ATL@@PAVCBcfFileNameItem@@@std@@@5@$0A@@std@@@std@@U_Iterator_base0@2@@std@@QAEAAV01@XZ 1002f070 f i MainManage.obj
 0001:0002e160       ??0?$_Tree_unchecked_const_iterator@V?$_Tree_val@V?$_Tmap_traits@V?$CStringT@DV?$StrTraitMFC_DLL@DV?$ChTraitsCRT@D@ATL@@@@@ATL@@PAVCBcfListItem@@U?$less@V?$CStringT@DV?$StrTraitMFC_DLL@DV?$ChTraitsCRT@D@ATL@@@@@ATL@@@std@@V?$allocator@U?$pair@$$CBV?$CStringT@DV?$StrTraitMFC_DLL@DV?$ChTraitsCRT@D@ATL@@@@@ATL@@PAVCBcfListItem@@@std@@@5@$0A@@std@@@std@@U_Iterator_base0@2@@std@@QAE@XZ 1002f160 f i MainManage.obj
 0001:0002e160       ??0?$_List_unchecked_const_iterator@V?$_List_val@PAUFILEINFO@@V?$allocator@PAUFILEINFO@@@std@@@std@@U_Iterator_base0@2@@std@@QAE@XZ 1002f160 f i HNSmtp.obj
 0001:0002e160       ??0?$_com_ptr_t@V?$_com_IIID@U_Connection@ADODB@@$1?_GUID_00001550_0000_0010_8000_00aa006d2ea4@@3U__s_GUID@@B@@@@QAE@XZ 1002f160 f i AFCDataBase.obj
 0001:0002e160       ??0?$_Tree_unchecked_const_iterator@V?$_Tree_val@V?$_Tmap_traits@V?$CStringT@DV?$StrTraitMFC_DLL@DV?$ChTraitsCRT@D@ATL@@@@@ATL@@PAVCBcfFileNameItem@@U?$less@V?$CStringT@DV?$StrTraitMFC_DLL@DV?$ChTraitsCRT@D@ATL@@@@@ATL@@@std@@V?$allocator@U?$pair@$$CBV?$CStringT@DV?$StrTraitMFC_DLL@DV?$ChTraitsCRT@D@ATL@@@@@ATL@@PAVCBcfFileNameItem@@@std@@@5@$0A@@std@@@std@@U_Iterator_base0@2@@std@@QAE@XZ 1002f160 f i MainManage.obj
 0001:0002e160       ??0?$_com_ptr_t@V?$_com_IIID@U_Recordset@ADODB@@$1?_GUID_00001556_0000_0010_8000_00aa006d2ea4@@3U__s_GUID@@B@@@@QAE@XZ 1002f160 f i AFCDataBase.obj
 0001:0002e160       ??0?$_Tree_unchecked_const_iterator@V?$_Tree_val@V?$_Tmap_traits@HV?$vector@HV?$allocator@H@std@@@std@@U?$less@H@2@V?$allocator@U?$pair@$$CBHV?$vector@HV?$allocator@H@std@@@std@@@std@@@2@$0A@@std@@@std@@U_Iterator_base0@2@@std@@QAE@XZ 1002f160 f i AFCSocket.obj
 0001:0002e180       ??$?0AAV?$_Tree_iterator@V?$_Tree_val@V?$_Tmap_traits@V?$CStringT@DV?$StrTraitMFC_DLL@DV?$ChTraitsCRT@D@ATL@@@@@ATL@@PAVCBcfListItem@@U?$less@V?$CStringT@DV?$StrTraitMFC_DLL@DV?$ChTraitsCRT@D@ATL@@@@@ATL@@@std@@V?$allocator@U?$pair@$$CBV?$CStringT@DV?$StrTraitMFC_DLL@DV?$ChTraitsCRT@D@ATL@@@@@ATL@@PAVCBcfListItem@@@std@@@5@$0A@@std@@@std@@@std@@_N@?$pair@V?$_Tree_iterator@V?$_Tree_val@V?$_Tmap_traits@V?$CStringT@DV?$StrTraitMFC_DLL@DV?$ChTraitsCRT@D@ATL@@@@@ATL@@PAVCBcfListItem@@U?$less@V?$CStringT@DV?$StrTraitMFC_DLL@DV?$ChTraitsCRT@D@ATL@@@@@ATL@@@std@@V?$allocator@U?$pair@$$CBV?$CStringT@DV?$StrTraitMFC_DLL@DV?$ChTraitsCRT@D@ATL@@@@@ATL@@PAVCBcfListItem@@@std@@@5@$0A@@std@@@std@@@std@@_N@std@@QAE@AAV?$_Tree_iterator@V?$_Tree_val@V?$_Tmap_traits@V?$CStringT@DV?$StrTraitMFC_DLL@DV?$ChTraitsCRT@D@ATL@@@@@ATL@@PAVCBcfListItem@@U?$less@V?$CStringT@DV?$StrTraitMFC_DLL@DV?$ChTraitsCRT@D@ATL@@@@@ATL@@@std@@V?$allocator@U?$pair@$$CBV?$CStringT@DV?$StrTraitMFC_DLL@DV?$ChTraitsCRT@D@ATL@@@@@ATL@@PAVCBcfListItem@@@std@@@5@$0A@@std@@@std@@@1@$$QA_N@Z 1002f180 f i MainManage.obj
 0001:0002e180       ??0?$pair@V?$_Tree_iterator@V?$_Tree_val@V?$_Tmap_traits@HV?$vector@HV?$allocator@H@std@@@std@@U?$less@H@2@V?$allocator@U?$pair@$$CBHV?$vector@HV?$allocator@H@std@@@std@@@std@@@2@$0A@@std@@@std@@@std@@_N@std@@QAE@$$QAV?$_Tree_iterator@V?$_Tree_val@V?$_Tmap_traits@HV?$vector@HV?$allocator@H@std@@@std@@U?$less@H@2@V?$allocator@U?$pair@$$CBHV?$vector@HV?$allocator@H@std@@@std@@@std@@@2@$0A@@std@@@std@@@1@$$QA_N@Z 1002f180 f i AFCSocket.obj
 0001:0002e180       ??0?$pair@V?$_Tree_iterator@V?$_Tree_val@V?$_Tmap_traits@V?$basic_string@DU?$char_traits@D@std@@V?$allocator@D@2@@std@@VHNTreeNode@@U?$less@V?$basic_string@DU?$char_traits@D@std@@V?$allocator@D@2@@std@@@2@V?$allocator@U?$pair@$$CBV?$basic_string@DU?$char_traits@D@std@@V?$allocator@D@2@@std@@VHNTreeNode@@@std@@@2@$0A@@std@@@std@@@std@@_N@std@@QAE@$$QAV?$_Tree_iterator@V?$_Tree_val@V?$_Tmap_traits@V?$basic_string@DU?$char_traits@D@std@@V?$allocator@D@2@@std@@VHNTreeNode@@U?$less@V?$basic_string@DU?$char_traits@D@std@@V?$allocator@D@2@@std@@@2@V?$allocator@U?$pair@$$CBV?$basic_string@DU?$char_traits@D@std@@V?$allocator@D@2@@std@@VHNTreeNode@@@std@@@2@$0A@@std@@@std@@@1@$$QA_N@Z 1002f180 f i HNTreeNode.obj
 0001:0002e180       ??$?0AAV?$_Tree_iterator@V?$_Tree_val@V?$_Tmap_traits@V?$basic_string@DU?$char_traits@D@std@@V?$allocator@D@2@@std@@VHNTreeNode@@U?$less@V?$basic_string@DU?$char_traits@D@std@@V?$allocator@D@2@@std@@@2@V?$allocator@U?$pair@$$CBV?$basic_string@DU?$char_traits@D@std@@V?$allocator@D@2@@std@@VHNTreeNode@@@std@@@2@$0A@@std@@@std@@@std@@_N@?$pair@V?$_Tree_iterator@V?$_Tree_val@V?$_Tmap_traits@V?$basic_string@DU?$char_traits@D@std@@V?$allocator@D@2@@std@@VHNTreeNode@@U?$less@V?$basic_string@DU?$char_traits@D@std@@V?$allocator@D@2@@std@@@2@V?$allocator@U?$pair@$$CBV?$basic_string@DU?$char_traits@D@std@@V?$allocator@D@2@@std@@VHNTreeNode@@@std@@@2@$0A@@std@@@std@@@std@@_N@std@@QAE@AAV?$_Tree_iterator@V?$_Tree_val@V?$_Tmap_traits@V?$basic_string@DU?$char_traits@D@std@@V?$allocator@D@2@@std@@VHNTreeNode@@U?$less@V?$basic_string@DU?$char_traits@D@std@@V?$allocator@D@2@@std@@@2@V?$allocator@U?$pair@$$CBV?$basic_string@DU?$char_traits@D@std@@V?$allocator@D@2@@std@@VHNTreeNode@@@std@@@2@$0A@@std@@@std@@@1@$$QA_N@Z 1002f180 f i HNTreeNode.obj
 0001:0002e180       ??0?$pair@V?$_Tree_iterator@V?$_Tree_val@V?$_Tmap_traits@V?$CStringT@DV?$StrTraitMFC_DLL@DV?$ChTraitsCRT@D@ATL@@@@@ATL@@PAVCBcfListItem@@U?$less@V?$CStringT@DV?$StrTraitMFC_DLL@DV?$ChTraitsCRT@D@ATL@@@@@ATL@@@std@@V?$allocator@U?$pair@$$CBV?$CStringT@DV?$StrTraitMFC_DLL@DV?$ChTraitsCRT@D@ATL@@@@@ATL@@PAVCBcfListItem@@@std@@@5@$0A@@std@@@std@@@std@@_N@std@@QAE@$$QAV?$_Tree_iterator@V?$_Tree_val@V?$_Tmap_traits@V?$CStringT@DV?$StrTraitMFC_DLL@DV?$ChTraitsCRT@D@ATL@@@@@ATL@@PAVCBcfListItem@@U?$less@V?$CStringT@DV?$StrTraitMFC_DLL@DV?$ChTraitsCRT@D@ATL@@@@@ATL@@@std@@V?$allocator@U?$pair@$$CBV?$CStringT@DV?$StrTraitMFC_DLL@DV?$ChTraitsCRT@D@ATL@@@@@ATL@@PAVCBcfListItem@@@std@@@5@$0A@@std@@@std@@@1@$$QA_N@Z 1002f180 f i MainManage.obj
 0001:0002e180       ??$?0AAV?$_Tree_iterator@V?$_Tree_val@V?$_Tmap_traits@V?$CStringT@DV?$StrTraitMFC_DLL@DV?$ChTraitsCRT@D@ATL@@@@@ATL@@PAVCBcfFileNameItem@@U?$less@V?$CStringT@DV?$StrTraitMFC_DLL@DV?$ChTraitsCRT@D@ATL@@@@@ATL@@@std@@V?$allocator@U?$pair@$$CBV?$CStringT@DV?$StrTraitMFC_DLL@DV?$ChTraitsCRT@D@ATL@@@@@ATL@@PAVCBcfFileNameItem@@@std@@@5@$0A@@std@@@std@@@std@@_N@?$pair@V?$_Tree_iterator@V?$_Tree_val@V?$_Tmap_traits@V?$CStringT@DV?$StrTraitMFC_DLL@DV?$ChTraitsCRT@D@ATL@@@@@ATL@@PAVCBcfFileNameItem@@U?$less@V?$CStringT@DV?$StrTraitMFC_DLL@DV?$ChTraitsCRT@D@ATL@@@@@ATL@@@std@@V?$allocator@U?$pair@$$CBV?$CStringT@DV?$StrTraitMFC_DLL@DV?$ChTraitsCRT@D@ATL@@@@@ATL@@PAVCBcfFileNameItem@@@std@@@5@$0A@@std@@@std@@@std@@_N@std@@QAE@AAV?$_Tree_iterator@V?$_Tree_val@V?$_Tmap_traits@V?$CStringT@DV?$StrTraitMFC_DLL@DV?$ChTraitsCRT@D@ATL@@@@@ATL@@PAVCBcfFileNameItem@@U?$less@V?$CStringT@DV?$StrTraitMFC_DLL@DV?$ChTraitsCRT@D@ATL@@@@@ATL@@@std@@V?$allocator@U?$pair@$$CBV?$CStringT@DV?$StrTraitMFC_DLL@DV?$ChTraitsCRT@D@ATL@@@@@ATL@@PAVCBcfFileNameItem@@@std@@@5@$0A@@std@@@std@@@1@$$QA_N@Z 1002f180 f i MainManage.obj
 0001:0002e180       ??0?$pair@V?$_Tree_iterator@V?$_Tree_val@V?$_Tmap_traits@V?$CStringT@DV?$StrTraitMFC_DLL@DV?$ChTraitsCRT@D@ATL@@@@@ATL@@PAVCBcfFileNameItem@@U?$less@V?$CStringT@DV?$StrTraitMFC_DLL@DV?$ChTraitsCRT@D@ATL@@@@@ATL@@@std@@V?$allocator@U?$pair@$$CBV?$CStringT@DV?$StrTraitMFC_DLL@DV?$ChTraitsCRT@D@ATL@@@@@ATL@@PAVCBcfFileNameItem@@@std@@@5@$0A@@std@@@std@@@std@@_N@std@@QAE@$$QAV?$_Tree_iterator@V?$_Tree_val@V?$_Tmap_traits@V?$CStringT@DV?$StrTraitMFC_DLL@DV?$ChTraitsCRT@D@ATL@@@@@ATL@@PAVCBcfFileNameItem@@U?$less@V?$CStringT@DV?$StrTraitMFC_DLL@DV?$ChTraitsCRT@D@ATL@@@@@ATL@@@std@@V?$allocator@U?$pair@$$CBV?$CStringT@DV?$StrTraitMFC_DLL@DV?$ChTraitsCRT@D@ATL@@@@@ATL@@PAVCBcfFileNameItem@@@std@@@5@$0A@@std@@@std@@@1@$$QA_N@Z 1002f180 f i MainManage.obj
 0001:0002e180       ??$?0AAV?$_Tree_iterator@V?$_Tree_val@V?$_Tmap_traits@HV?$vector@HV?$allocator@H@std@@@std@@U?$less@H@2@V?$allocator@U?$pair@$$CBHV?$vector@HV?$allocator@H@std@@@std@@@std@@@2@$0A@@std@@@std@@@std@@_N@?$pair@V?$_Tree_iterator@V?$_Tree_val@V?$_Tmap_traits@HV?$vector@HV?$allocator@H@std@@@std@@U?$less@H@2@V?$allocator@U?$pair@$$CBHV?$vector@HV?$allocator@H@std@@@std@@@std@@@2@$0A@@std@@@std@@@std@@_N@std@@QAE@AAV?$_Tree_iterator@V?$_Tree_val@V?$_Tmap_traits@HV?$vector@HV?$allocator@H@std@@@std@@U?$less@H@2@V?$allocator@U?$pair@$$CBHV?$vector@HV?$allocator@H@std@@@std@@@std@@@2@$0A@@std@@@std@@@1@$$QA_N@Z 1002f180 f i AFCSocket.obj
 0001:0002e1c0       ?max_size@?$allocator@U?$pair@$$CBV?$CStringT@DV?$StrTraitMFC_DLL@DV?$ChTraitsCRT@D@ATL@@@@@ATL@@PAVCBcfFileNameItem@@@std@@@std@@QBEIXZ 1002f1c0 f i MainManage.obj
 0001:0002e1c0       ?max_size@?$allocator@U?$pair@$$CBV?$CStringT@DV?$StrTraitMFC_DLL@DV?$ChTraitsCRT@D@ATL@@@@@ATL@@PAVCBcfListItem@@@std@@@std@@QBEIXZ 1002f1c0 f i MainManage.obj
 0001:0002e200       ??$_Buynode@U?$pair@$$CBV?$CStringT@DV?$StrTraitMFC_DLL@DV?$ChTraitsCRT@D@ATL@@@@@ATL@@PAVCBcfFileNameItem@@@std@@@?$_Tree_val@V?$_Tmap_traits@V?$CStringT@DV?$StrTraitMFC_DLL@DV?$ChTraitsCRT@D@ATL@@@@@ATL@@PAVCBcfFileNameItem@@U?$less@V?$CStringT@DV?$StrTraitMFC_DLL@DV?$ChTraitsCRT@D@ATL@@@@@ATL@@@std@@V?$allocator@U?$pair@$$CBV?$CStringT@DV?$StrTraitMFC_DLL@DV?$ChTraitsCRT@D@ATL@@@@@ATL@@PAVCBcfFileNameItem@@@std@@@5@$0A@@std@@@std@@QAEPAU_Node@?$_Tree_nod@V?$_Tmap_traits@V?$CStringT@DV?$StrTraitMFC_DLL@DV?$ChTraitsCRT@D@ATL@@@@@ATL@@PAVCBcfFileNameItem@@U?$less@V?$CStringT@DV?$StrTraitMFC_DLL@DV?$ChTraitsCRT@D@ATL@@@@@ATL@@@std@@V?$allocator@U?$pair@$$CBV?$CStringT@DV?$StrTraitMFC_DLL@DV?$ChTraitsCRT@D@ATL@@@@@ATL@@PAVCBcfFileNameItem@@@std@@@5@$0A@@std@@@1@$$QAU?$pair@$$CBV?$CStringT@DV?$StrTraitMFC_DLL@DV?$ChTraitsCRT@D@ATL@@@@@ATL@@PAVCBcfFileNameItem@@@1@@Z 1002f200 f i MainManage.obj
 0001:0002e200       ??$_Buynode@U?$pair@$$CBV?$CStringT@DV?$StrTraitMFC_DLL@DV?$ChTraitsCRT@D@ATL@@@@@ATL@@PAVCBcfListItem@@@std@@@?$_Tree_val@V?$_Tmap_traits@V?$CStringT@DV?$StrTraitMFC_DLL@DV?$ChTraitsCRT@D@ATL@@@@@ATL@@PAVCBcfListItem@@U?$less@V?$CStringT@DV?$StrTraitMFC_DLL@DV?$ChTraitsCRT@D@ATL@@@@@ATL@@@std@@V?$allocator@U?$pair@$$CBV?$CStringT@DV?$StrTraitMFC_DLL@DV?$ChTraitsCRT@D@ATL@@@@@ATL@@PAVCBcfListItem@@@std@@@5@$0A@@std@@@std@@QAEPAU_Node@?$_Tree_nod@V?$_Tmap_traits@V?$CStringT@DV?$StrTraitMFC_DLL@DV?$ChTraitsCRT@D@ATL@@@@@ATL@@PAVCBcfListItem@@U?$less@V?$CStringT@DV?$StrTraitMFC_DLL@DV?$ChTraitsCRT@D@ATL@@@@@ATL@@@std@@V?$allocator@U?$pair@$$CBV?$CStringT@DV?$StrTraitMFC_DLL@DV?$ChTraitsCRT@D@ATL@@@@@ATL@@PAVCBcfListItem@@@std@@@5@$0A@@std@@@1@$$QAU?$pair@$$CBV?$CStringT@DV?$StrTraitMFC_DLL@DV?$ChTraitsCRT@D@ATL@@@@@ATL@@PAVCBcfListItem@@@1@@Z 1002f200 f i MainManage.obj
 0001:0002e2d0       ??$_Destroy@U?$pair@$$CBV?$CStringT@DV?$StrTraitMFC_DLL@DV?$ChTraitsCRT@D@ATL@@@@@ATL@@PAVCBcfFileNameItem@@@std@@@std@@YAXPAU?$pair@$$CBV?$CStringT@DV?$StrTraitMFC_DLL@DV?$ChTraitsCRT@D@ATL@@@@@ATL@@PAVCBcfFileNameItem@@@0@@Z 1002f2d0 f i MainManage.obj
 0001:0002e2d0       ??$_Destroy@U?$pair@$$CBV?$CStringT@DV?$StrTraitMFC_DLL@DV?$ChTraitsCRT@D@ATL@@@@@ATL@@PAVCBcfListItem@@@std@@@std@@YAXPAU?$pair@$$CBV?$CStringT@DV?$StrTraitMFC_DLL@DV?$ChTraitsCRT@D@ATL@@@@@ATL@@PAVCBcfListItem@@@0@@Z 1002f2d0 f i MainManage.obj
 0001:0002e2f0       ??_G?$pair@$$CBV?$CStringT@DV?$StrTraitMFC_DLL@DV?$ChTraitsCRT@D@ATL@@@@@ATL@@PAVCBcfFileNameItem@@@std@@QAEPAXI@Z 1002f2f0 f i MainManage.obj
 0001:0002e2f0       ??_G?$pair@$$CBV?$CStringT@DV?$StrTraitMFC_DLL@DV?$ChTraitsCRT@D@ATL@@@@@ATL@@PAVCBcfListItem@@@std@@QAEPAXI@Z 1002f2f0 f i MainManage.obj
 0001:0002e330       ?_Buynode@?$_Tree_val@V?$_Tmap_traits@V?$CStringT@DV?$StrTraitMFC_DLL@DV?$ChTraitsCRT@D@ATL@@@@@ATL@@PAVCBcfFileNameItem@@U?$less@V?$CStringT@DV?$StrTraitMFC_DLL@DV?$ChTraitsCRT@D@ATL@@@@@ATL@@@std@@V?$allocator@U?$pair@$$CBV?$CStringT@DV?$StrTraitMFC_DLL@DV?$ChTraitsCRT@D@ATL@@@@@ATL@@PAVCBcfFileNameItem@@@std@@@5@$0A@@std@@@std@@QAEPAU_Node@?$_Tree_nod@V?$_Tmap_traits@V?$CStringT@DV?$StrTraitMFC_DLL@DV?$ChTraitsCRT@D@ATL@@@@@ATL@@PAVCBcfFileNameItem@@U?$less@V?$CStringT@DV?$StrTraitMFC_DLL@DV?$ChTraitsCRT@D@ATL@@@@@ATL@@@std@@V?$allocator@U?$pair@$$CBV?$CStringT@DV?$StrTraitMFC_DLL@DV?$ChTraitsCRT@D@ATL@@@@@ATL@@PAVCBcfFileNameItem@@@std@@@5@$0A@@std@@@2@XZ 1002f330 f i MainManage.obj
 0001:0002e330       ?_Buynode@?$_Tree_val@V?$_Tmap_traits@V?$CStringT@DV?$StrTraitMFC_DLL@DV?$ChTraitsCRT@D@ATL@@@@@ATL@@PAVCBcfListItem@@U?$less@V?$CStringT@DV?$StrTraitMFC_DLL@DV?$ChTraitsCRT@D@ATL@@@@@ATL@@@std@@V?$allocator@U?$pair@$$CBV?$CStringT@DV?$StrTraitMFC_DLL@DV?$ChTraitsCRT@D@ATL@@@@@ATL@@PAVCBcfListItem@@@std@@@5@$0A@@std@@@std@@QAEPAU_Node@?$_Tree_nod@V?$_Tmap_traits@V?$CStringT@DV?$StrTraitMFC_DLL@DV?$ChTraitsCRT@D@ATL@@@@@ATL@@PAVCBcfListItem@@U?$less@V?$CStringT@DV?$StrTraitMFC_DLL@DV?$ChTraitsCRT@D@ATL@@@@@ATL@@@std@@V?$allocator@U?$pair@$$CBV?$CStringT@DV?$StrTraitMFC_DLL@DV?$ChTraitsCRT@D@ATL@@@@@ATL@@PAVCBcfListItem@@@std@@@5@$0A@@std@@@2@XZ 1002f330 f i MainManage.obj
 0001:0002e3b0       ??$_Cons_val@V?$allocator@U?$pair@$$CBV?$CStringT@DV?$StrTraitMFC_DLL@DV?$ChTraitsCRT@D@ATL@@@@@ATL@@PAVCBcfListItem@@@std@@@std@@U?$pair@$$CBV?$CStringT@DV?$StrTraitMFC_DLL@DV?$ChTraitsCRT@D@ATL@@@@@ATL@@PAVCBcfListItem@@@2@U32@@std@@YAXAAV?$allocator@U?$pair@$$CBV?$CStringT@DV?$StrTraitMFC_DLL@DV?$ChTraitsCRT@D@ATL@@@@@ATL@@PAVCBcfListItem@@@std@@@0@PAU?$pair@$$CBV?$CStringT@DV?$StrTraitMFC_DLL@DV?$ChTraitsCRT@D@ATL@@@@@ATL@@PAVCBcfListItem@@@0@$$QAU20@@Z 1002f3b0 f i MainManage.obj
 0001:0002e3b0       ??$_Cons_val@V?$allocator@U?$pair@$$CBV?$CStringT@DV?$StrTraitMFC_DLL@DV?$ChTraitsCRT@D@ATL@@@@@ATL@@PAVCBcfFileNameItem@@@std@@@std@@U?$pair@$$CBV?$CStringT@DV?$StrTraitMFC_DLL@DV?$ChTraitsCRT@D@ATL@@@@@ATL@@PAVCBcfFileNameItem@@@2@U32@@std@@YAXAAV?$allocator@U?$pair@$$CBV?$CStringT@DV?$StrTraitMFC_DLL@DV?$ChTraitsCRT@D@ATL@@@@@ATL@@PAVCBcfFileNameItem@@@std@@@0@PAU?$pair@$$CBV?$CStringT@DV?$StrTraitMFC_DLL@DV?$ChTraitsCRT@D@ATL@@@@@ATL@@PAVCBcfFileNameItem@@@0@$$QAU20@@Z 1002f3b0 f i MainManage.obj
 0001:0002e3e0       ?construct@?$allocator@U?$pair@$$CBV?$CStringT@DV?$StrTraitMFC_DLL@DV?$ChTraitsCRT@D@ATL@@@@@ATL@@PAVCBcfFileNameItem@@@std@@@std@@QAEXPAU?$pair@$$CBV?$CStringT@DV?$StrTraitMFC_DLL@DV?$ChTraitsCRT@D@ATL@@@@@ATL@@PAVCBcfFileNameItem@@@2@$$QAU32@@Z 1002f3e0 f i MainManage.obj
 0001:0002e3e0       ?construct@?$allocator@U?$pair@$$CBV?$CStringT@DV?$StrTraitMFC_DLL@DV?$ChTraitsCRT@D@ATL@@@@@ATL@@PAVCBcfListItem@@@std@@@std@@QAEXPAU?$pair@$$CBV?$CStringT@DV?$StrTraitMFC_DLL@DV?$ChTraitsCRT@D@ATL@@@@@ATL@@PAVCBcfListItem@@@2@$$QAU32@@Z 1002f3e0 f i MainManage.obj
 0001:0002e470       ??$?0$$CBV?$CStringT@DV?$StrTraitMFC_DLL@DV?$ChTraitsCRT@D@ATL@@@@@ATL@@PAVCBcfFileNameItem@@@?$pair@$$CBV?$CStringT@DV?$StrTraitMFC_DLL@DV?$ChTraitsCRT@D@ATL@@@@@ATL@@PAVCBcfFileNameItem@@@std@@QAE@$$QAU01@@Z 1002f470 f i MainManage.obj
 0001:0002e470       ??$?0$$CBV?$CStringT@DV?$StrTraitMFC_DLL@DV?$ChTraitsCRT@D@ATL@@@@@ATL@@PAVCBcfListItem@@@?$pair@$$CBV?$CStringT@DV?$StrTraitMFC_DLL@DV?$ChTraitsCRT@D@ATL@@@@@ATL@@PAVCBcfListItem@@@std@@QAE@$$QAU01@@Z 1002f470 f i MainManage.obj
 0001:0002e4b0       ??0?$_Pair_base@$$CBV?$CStringT@DV?$StrTraitMFC_DLL@DV?$ChTraitsCRT@D@ATL@@@@@ATL@@PAVCBcfListItem@@@std@@QAE@$$QBV?$CStringT@DV?$StrTraitMFC_DLL@DV?$ChTraitsCRT@D@ATL@@@@@ATL@@$$QAPAVCBcfListItem@@@Z 1002f4b0 f i MainManage.obj
 0001:0002e4b0       ??0?$_Pair_base@$$CBV?$CStringT@DV?$StrTraitMFC_DLL@DV?$ChTraitsCRT@D@ATL@@@@@ATL@@PAVCBcfFileNameItem@@@std@@QAE@$$QBV?$CStringT@DV?$StrTraitMFC_DLL@DV?$ChTraitsCRT@D@ATL@@@@@ATL@@$$QAPAVCBcfFileNameItem@@@Z 1002f4b0 f i MainManage.obj
 0001:0002e530       ?AfxGetInstanceHandle@@YGPAUHINSTANCE__@@XZ 1002f530 f i MainManage.obj
 0001:0002e550       ??0?$map@V?$CStringT@DV?$StrTraitMFC_DLL@DV?$ChTraitsCRT@D@ATL@@@@@ATL@@PAVCBcfListItem@@U?$less@V?$CStringT@DV?$StrTraitMFC_DLL@DV?$ChTraitsCRT@D@ATL@@@@@ATL@@@std@@V?$allocator@U?$pair@$$CBV?$CStringT@DV?$StrTraitMFC_DLL@DV?$ChTraitsCRT@D@ATL@@@@@ATL@@PAVCBcfListItem@@@std@@@5@@std@@QAE@XZ 1002f550 f i MainManage.obj
 0001:0002e550       ??0?$map@V?$CStringT@DV?$StrTraitMFC_DLL@DV?$ChTraitsCRT@D@ATL@@@@@ATL@@PAVCBcfFileNameItem@@U?$less@V?$CStringT@DV?$StrTraitMFC_DLL@DV?$ChTraitsCRT@D@ATL@@@@@ATL@@@std@@V?$allocator@U?$pair@$$CBV?$CStringT@DV?$StrTraitMFC_DLL@DV?$ChTraitsCRT@D@ATL@@@@@ATL@@PAVCBcfFileNameItem@@@std@@@5@@std@@QAE@XZ 1002f550 f i MainManage.obj
 0001:0002e580       ??0?$_Tree@V?$_Tmap_traits@V?$CStringT@DV?$StrTraitMFC_DLL@DV?$ChTraitsCRT@D@ATL@@@@@ATL@@PAVCBcfListItem@@U?$less@V?$CStringT@DV?$StrTraitMFC_DLL@DV?$ChTraitsCRT@D@ATL@@@@@ATL@@@std@@V?$allocator@U?$pair@$$CBV?$CStringT@DV?$StrTraitMFC_DLL@DV?$ChTraitsCRT@D@ATL@@@@@ATL@@PAVCBcfListItem@@@std@@@5@$0A@@std@@@std@@QAE@ABU?$less@V?$CStringT@DV?$StrTraitMFC_DLL@DV?$ChTraitsCRT@D@ATL@@@@@ATL@@@1@ABV?$allocator@U?$pair@$$CBV?$CStringT@DV?$StrTraitMFC_DLL@DV?$ChTraitsCRT@D@ATL@@@@@ATL@@PAVCBcfListItem@@@std@@@1@@Z 1002f580 f i MainManage.obj
 0001:0002e580       ??0?$_Tree@V?$_Tmap_traits@V?$CStringT@DV?$StrTraitMFC_DLL@DV?$ChTraitsCRT@D@ATL@@@@@ATL@@PAVCBcfFileNameItem@@U?$less@V?$CStringT@DV?$StrTraitMFC_DLL@DV?$ChTraitsCRT@D@ATL@@@@@ATL@@@std@@V?$allocator@U?$pair@$$CBV?$CStringT@DV?$StrTraitMFC_DLL@DV?$ChTraitsCRT@D@ATL@@@@@ATL@@PAVCBcfFileNameItem@@@std@@@5@$0A@@std@@@std@@QAE@ABU?$less@V?$CStringT@DV?$StrTraitMFC_DLL@DV?$ChTraitsCRT@D@ATL@@@@@ATL@@@1@ABV?$allocator@U?$pair@$$CBV?$CStringT@DV?$StrTraitMFC_DLL@DV?$ChTraitsCRT@D@ATL@@@@@ATL@@PAVCBcfFileNameItem@@@std@@@1@@Z 1002f580 f i MainManage.obj
 0001:0002e5c0       ??0?$_Tree_val@V?$_Tmap_traits@V?$CStringT@DV?$StrTraitMFC_DLL@DV?$ChTraitsCRT@D@ATL@@@@@ATL@@PAVCBcfListItem@@U?$less@V?$CStringT@DV?$StrTraitMFC_DLL@DV?$ChTraitsCRT@D@ATL@@@@@ATL@@@std@@V?$allocator@U?$pair@$$CBV?$CStringT@DV?$StrTraitMFC_DLL@DV?$ChTraitsCRT@D@ATL@@@@@ATL@@PAVCBcfListItem@@@std@@@5@$0A@@std@@@std@@QAE@ABU?$less@V?$CStringT@DV?$StrTraitMFC_DLL@DV?$ChTraitsCRT@D@ATL@@@@@ATL@@@1@V?$allocator@U?$pair@$$CBV?$CStringT@DV?$StrTraitMFC_DLL@DV?$ChTraitsCRT@D@ATL@@@@@ATL@@PAVCBcfListItem@@@std@@@1@@Z 1002f5c0 f i MainManage.obj
 0001:0002e5c0       ??0?$_Tree_val@V?$_Tmap_traits@V?$CStringT@DV?$StrTraitMFC_DLL@DV?$ChTraitsCRT@D@ATL@@@@@ATL@@PAVCBcfFileNameItem@@U?$less@V?$CStringT@DV?$StrTraitMFC_DLL@DV?$ChTraitsCRT@D@ATL@@@@@ATL@@@std@@V?$allocator@U?$pair@$$CBV?$CStringT@DV?$StrTraitMFC_DLL@DV?$ChTraitsCRT@D@ATL@@@@@ATL@@PAVCBcfFileNameItem@@@std@@@5@$0A@@std@@@std@@QAE@ABU?$less@V?$CStringT@DV?$StrTraitMFC_DLL@DV?$ChTraitsCRT@D@ATL@@@@@ATL@@@1@V?$allocator@U?$pair@$$CBV?$CStringT@DV?$StrTraitMFC_DLL@DV?$ChTraitsCRT@D@ATL@@@@@ATL@@PAVCBcfFileNameItem@@@std@@@1@@Z 1002f5c0 f i MainManage.obj
 0001:0002e680       ??1?$map@V?$CStringT@DV?$StrTraitMFC_DLL@DV?$ChTraitsCRT@D@ATL@@@@@ATL@@PAVCBcfListItem@@U?$less@V?$CStringT@DV?$StrTraitMFC_DLL@DV?$ChTraitsCRT@D@ATL@@@@@ATL@@@std@@V?$allocator@U?$pair@$$CBV?$CStringT@DV?$StrTraitMFC_DLL@DV?$ChTraitsCRT@D@ATL@@@@@ATL@@PAVCBcfListItem@@@std@@@5@@std@@QAE@XZ 1002f680 f i MainManage.obj
 0001:0002e680       ??1?$map@V?$CStringT@DV?$StrTraitMFC_DLL@DV?$ChTraitsCRT@D@ATL@@@@@ATL@@PAVCBcfFileNameItem@@U?$less@V?$CStringT@DV?$StrTraitMFC_DLL@DV?$ChTraitsCRT@D@ATL@@@@@ATL@@@std@@V?$allocator@U?$pair@$$CBV?$CStringT@DV?$StrTraitMFC_DLL@DV?$ChTraitsCRT@D@ATL@@@@@ATL@@PAVCBcfFileNameItem@@@std@@@5@@std@@QAE@XZ 1002f680 f i MainManage.obj
 0001:0002e6a0       ??1?$_Tree@V?$_Tmap_traits@V?$CStringT@DV?$StrTraitMFC_DLL@DV?$ChTraitsCRT@D@ATL@@@@@ATL@@PAVCBcfListItem@@U?$less@V?$CStringT@DV?$StrTraitMFC_DLL@DV?$ChTraitsCRT@D@ATL@@@@@ATL@@@std@@V?$allocator@U?$pair@$$CBV?$CStringT@DV?$StrTraitMFC_DLL@DV?$ChTraitsCRT@D@ATL@@@@@ATL@@PAVCBcfListItem@@@std@@@5@$0A@@std@@@std@@QAE@XZ 1002f6a0 f i MainManage.obj
 0001:0002e6a0       ??1?$_Tree@V?$_Tmap_traits@V?$CStringT@DV?$StrTraitMFC_DLL@DV?$ChTraitsCRT@D@ATL@@@@@ATL@@PAVCBcfFileNameItem@@U?$less@V?$CStringT@DV?$StrTraitMFC_DLL@DV?$ChTraitsCRT@D@ATL@@@@@ATL@@@std@@V?$allocator@U?$pair@$$CBV?$CStringT@DV?$StrTraitMFC_DLL@DV?$ChTraitsCRT@D@ATL@@@@@ATL@@PAVCBcfFileNameItem@@@std@@@5@$0A@@std@@@std@@QAE@XZ 1002f6a0 f i MainManage.obj
 0001:0002e700       ?_Tidy@?$_Tree@V?$_Tmap_traits@V?$CStringT@DV?$StrTraitMFC_DLL@DV?$ChTraitsCRT@D@ATL@@@@@ATL@@PAVCBcfListItem@@U?$less@V?$CStringT@DV?$StrTraitMFC_DLL@DV?$ChTraitsCRT@D@ATL@@@@@ATL@@@std@@V?$allocator@U?$pair@$$CBV?$CStringT@DV?$StrTraitMFC_DLL@DV?$ChTraitsCRT@D@ATL@@@@@ATL@@PAVCBcfListItem@@@std@@@5@$0A@@std@@@std@@IAEXXZ 1002f700 f i MainManage.obj
 0001:0002e700       ?_Tidy@?$_Tree@V?$_Tmap_traits@V?$CStringT@DV?$StrTraitMFC_DLL@DV?$ChTraitsCRT@D@ATL@@@@@ATL@@PAVCBcfFileNameItem@@U?$less@V?$CStringT@DV?$StrTraitMFC_DLL@DV?$ChTraitsCRT@D@ATL@@@@@ATL@@@std@@V?$allocator@U?$pair@$$CBV?$CStringT@DV?$StrTraitMFC_DLL@DV?$ChTraitsCRT@D@ATL@@@@@ATL@@PAVCBcfFileNameItem@@@std@@@5@$0A@@std@@@std@@IAEXXZ 1002f700 f i MainManage.obj
 0001:0002e750       ??1?$_Tree_val@V?$_Tmap_traits@HV?$vector@HV?$allocator@H@std@@@std@@U?$less@H@2@V?$allocator@U?$pair@$$CBHV?$vector@HV?$allocator@H@std@@@std@@@std@@@2@$0A@@std@@@std@@QAE@XZ 1002f750 f i AFCSocket.obj
 0001:0002e750       ??1?$_Tree_val@V?$_Tmap_traits@V?$CStringT@DV?$StrTraitMFC_DLL@DV?$ChTraitsCRT@D@ATL@@@@@ATL@@PAVCBcfListItem@@U?$less@V?$CStringT@DV?$StrTraitMFC_DLL@DV?$ChTraitsCRT@D@ATL@@@@@ATL@@@std@@V?$allocator@U?$pair@$$CBV?$CStringT@DV?$StrTraitMFC_DLL@DV?$ChTraitsCRT@D@ATL@@@@@ATL@@PAVCBcfListItem@@@std@@@5@$0A@@std@@@std@@QAE@XZ 1002f750 f i MainManage.obj
 0001:0002e750       ??1?$_Tree_val@V?$_Tmap_traits@V?$CStringT@DV?$StrTraitMFC_DLL@DV?$ChTraitsCRT@D@ATL@@@@@ATL@@PAVCBcfFileNameItem@@U?$less@V?$CStringT@DV?$StrTraitMFC_DLL@DV?$ChTraitsCRT@D@ATL@@@@@ATL@@@std@@V?$allocator@U?$pair@$$CBV?$CStringT@DV?$StrTraitMFC_DLL@DV?$ChTraitsCRT@D@ATL@@@@@ATL@@PAVCBcfFileNameItem@@@std@@@5@$0A@@std@@@std@@QAE@XZ 1002f750 f i MainManage.obj
 0001:0002e750       ??1?$_Tree_val@V?$_Tmap_traits@V?$basic_string@DU?$char_traits@D@std@@V?$allocator@D@2@@std@@VHNTreeNode@@U?$less@V?$basic_string@DU?$char_traits@D@std@@V?$allocator@D@2@@std@@@2@V?$allocator@U?$pair@$$CBV?$basic_string@DU?$char_traits@D@std@@V?$allocator@D@2@@std@@VHNTreeNode@@@std@@@2@$0A@@std@@@std@@QAE@XZ 1002f750 f i HNFilter.obj
 0001:0002e780       ?erase@?$_Tree@V?$_Tmap_traits@V?$CStringT@DV?$StrTraitMFC_DLL@DV?$ChTraitsCRT@D@ATL@@@@@ATL@@PAVCBcfListItem@@U?$less@V?$CStringT@DV?$StrTraitMFC_DLL@DV?$ChTraitsCRT@D@ATL@@@@@ATL@@@std@@V?$allocator@U?$pair@$$CBV?$CStringT@DV?$StrTraitMFC_DLL@DV?$ChTraitsCRT@D@ATL@@@@@ATL@@PAVCBcfListItem@@@std@@@5@$0A@@std@@@std@@QAE?AV?$_Tree_iterator@V?$_Tree_val@V?$_Tmap_traits@V?$CStringT@DV?$StrTraitMFC_DLL@DV?$ChTraitsCRT@D@ATL@@@@@ATL@@PAVCBcfListItem@@U?$less@V?$CStringT@DV?$StrTraitMFC_DLL@DV?$ChTraitsCRT@D@ATL@@@@@ATL@@@std@@V?$allocator@U?$pair@$$CBV?$CStringT@DV?$StrTraitMFC_DLL@DV?$ChTraitsCRT@D@ATL@@@@@ATL@@PAVCBcfListItem@@@std@@@5@$0A@@std@@@std@@@2@V?$_Tree_const_iterator@V?$_Tree_val@V?$_Tmap_traits@V?$CStringT@DV?$StrTraitMFC_DLL@DV?$ChTraitsCRT@D@ATL@@@@@ATL@@PAVCBcfListItem@@U?$less@V?$CStringT@DV?$StrTraitMFC_DLL@DV?$ChTraitsCRT@D@ATL@@@@@ATL@@@std@@V?$allocator@U?$pair@$$CBV?$CStringT@DV?$StrTraitMFC_DLL@DV?$ChTraitsCRT@D@ATL@@@@@ATL@@PAVCBcfListItem@@@std@@@5@$0A@@std@@@std@@@2@0@Z 1002f780 f i MainManage.obj
 0001:0002e780       ?erase@?$_Tree@V?$_Tmap_traits@V?$CStringT@DV?$StrTraitMFC_DLL@DV?$ChTraitsCRT@D@ATL@@@@@ATL@@PAVCBcfFileNameItem@@U?$less@V?$CStringT@DV?$StrTraitMFC_DLL@DV?$ChTraitsCRT@D@ATL@@@@@ATL@@@std@@V?$allocator@U?$pair@$$CBV?$CStringT@DV?$StrTraitMFC_DLL@DV?$ChTraitsCRT@D@ATL@@@@@ATL@@PAVCBcfFileNameItem@@@std@@@5@$0A@@std@@@std@@QAE?AV?$_Tree_iterator@V?$_Tree_val@V?$_Tmap_traits@V?$CStringT@DV?$StrTraitMFC_DLL@DV?$ChTraitsCRT@D@ATL@@@@@ATL@@PAVCBcfFileNameItem@@U?$less@V?$CStringT@DV?$StrTraitMFC_DLL@DV?$ChTraitsCRT@D@ATL@@@@@ATL@@@std@@V?$allocator@U?$pair@$$CBV?$CStringT@DV?$StrTraitMFC_DLL@DV?$ChTraitsCRT@D@ATL@@@@@ATL@@PAVCBcfFileNameItem@@@std@@@5@$0A@@std@@@std@@@2@V?$_Tree_const_iterator@V?$_Tree_val@V?$_Tmap_traits@V?$CStringT@DV?$StrTraitMFC_DLL@DV?$ChTraitsCRT@D@ATL@@@@@ATL@@PAVCBcfFileNameItem@@U?$less@V?$CStringT@DV?$StrTraitMFC_DLL@DV?$ChTraitsCRT@D@ATL@@@@@ATL@@@std@@V?$allocator@U?$pair@$$CBV?$CStringT@DV?$StrTraitMFC_DLL@DV?$ChTraitsCRT@D@ATL@@@@@ATL@@PAVCBcfFileNameItem@@@std@@@5@$0A@@std@@@std@@@2@0@Z 1002f780 f i MainManage.obj
 0001:0002e830       ??_ECBaseMainManageForWeb@@UAEPAXI@Z 1002f830 f i MainManageForWeb.obj
 0001:0002e8b0       ??0CBaseMainManageForWeb@@QAE@XZ 1002f8b0 f   MainManageForWeb.obj
 0001:0002e9f0       ??0IServerSocketServiceForWeb@@QAE@XZ 1002f9f0 f i MainManageForWeb.obj
 0001:0002ea10       ??1CBaseMainManageForWeb@@UAE@XZ 1002fa10 f   MainManageForWeb.obj
 0001:0002eab0       ?Init@CBaseMainManageForWeb@@UAE_NPAUManageInfoStruct@@PAUIDataBaseHandleService@@@Z 1002fab0 f   MainManageForWeb.obj
 0001:0002ed50       ?UnInit@CBaseMainManageForWeb@@UAE_NXZ 1002fd50 f   MainManageForWeb.obj
 0001:0002ee10       ?Start@CBaseMainManageForWeb@@UAE_NXZ 1002fe10 f   MainManageForWeb.obj
 0001:0002f170       ?Stop@CBaseMainManageForWeb@@UAE_NXZ 10030170 f   MainManageForWeb.obj
 0001:0002f2d0       ?OnSocketReadEvent@CBaseMainManageForWeb@@UAE_NPAVCTCPSocketForWeb@@PAUNetMessageHead@@PAXIIK@Z 100302d0 f   MainManageForWeb.obj
 0001:0002f370       ?OnDataBaseResultEvent@CBaseMainManageForZ@@UAE_NPAUDataBaseResultLine@@IIIIK@Z 10030370 f   MainManageForZ.obj
 0001:0002f370       ?OnDataBaseResultEvent@CBaseMainManage@@UAE_NPAUDataBaseResultLine@@IIIIK@Z 10030370 f   MainManage.obj
 0001:0002f370       ?OnDataBaseResultEvent@CBaseMainManageForWeb@@UAE_NPAUDataBaseResultLine@@IIIIK@Z 10030370 f   MainManageForWeb.obj
 0001:0002f3e0       ?SetTimer@CBaseMainManageForZ@@QAE_NII@Z 100303e0 f   MainManageForZ.obj
 0001:0002f3e0       ?SetTimer@CBaseMainManage@@QAE_NII@Z 100303e0 f   MainManage.obj
 0001:0002f3e0       ?SetTimer@CBaseMainManageForWeb@@QAE_NII@Z 100303e0 f   MainManageForWeb.obj
 0001:0002f430       ?AFCKernelStart@CBaseMainManageForWeb@@AAE_NXZ 10030430 f   MainManageForWeb.obj
 0001:0002f670       ?LineDataHandleThread@CBaseMainManageForWeb@@CGIPAX@Z 10030670 f   MainManageForWeb.obj
 0001:0002f970       ?OnInit@CBaseMainManageForWeb@@EAE_NPAUManageInfoStruct@@PAUKernelInfoStruct@@@Z 10030970 f i MainManageForWeb.obj
 0001:0002f970       ?OnInit@CBaseMainManage@@EAE_NPAUManageInfoStruct@@PAUKernelInfoStruct@@@Z 10030970 f i MainManage.obj
 0001:0002f970       ?OnInit@CBaseMainManageForZ@@EAE_NPAUManageInfoStruct@@PAUKernelInfoStruct@@@Z 10030970 f i MainManageForZ.obj
 0001:0002f990       ??_ECBaseMainManageForZ@@UAEPAXI@Z 10030990 f i MainManageForZ.obj
 0001:0002fa10       ??0CBaseMainManageForZ@@QAE@XZ 10030a10 f   MainManageForZ.obj
 0001:0002fb50       ??0IServerSocketServiceForZ@@QAE@XZ 10030b50 f i MainManageForZ.obj
 0001:0002fb70       ??1CBaseMainManageForZ@@UAE@XZ 10030b70 f   MainManageForZ.obj
 0001:0002fc10       ?Init@CBaseMainManageForZ@@UAE_NPAUManageInfoStruct@@PAUIDataBaseHandleService@@@Z 10030c10 f   MainManageForZ.obj
 0001:0002feb0       ?UnInit@CBaseMainManageForZ@@UAE_NXZ 10030eb0 f   MainManageForZ.obj
 0001:0002ff70       ?Start@CBaseMainManageForZ@@UAE_NXZ 10030f70 f   MainManageForZ.obj
 0001:000302d0       ?Stop@CBaseMainManageForZ@@UAE_NXZ 100312d0 f   MainManageForZ.obj
 0001:00030430       ?OnSocketReadEvent@CBaseMainManageForZ@@UAE_NPAVCTCPSocketForZ@@PAUNetMessageHead@@PAXIIK@Z 10031430 f   MainManageForZ.obj
 0001:000304d0       ?KillTimer@CBaseMainManageForZ@@QAE_NI@Z 100314d0 f   MainManageForZ.obj
 0001:000304d0       ?KillTimer@CBaseMainManage@@QAE_NI@Z 100314d0 f   MainManage.obj
 0001:000304d0       ?KillTimer@CBaseMainManageForWeb@@QAE_NI@Z 100314d0 f   MainManageForWeb.obj
 0001:00030520       ?AFCKernelStart@CBaseMainManageForZ@@AAE_NXZ 10031520 f   MainManageForZ.obj
 0001:00030760       ?LineDataHandleThread@CBaseMainManageForZ@@CGIPAX@Z 10031760 f   MainManageForZ.obj
 0001:00030ac0       ?WindowMsgThread@CBaseMainManageForZ@@CGIPAX@Z 10031ac0 f   MainManageForZ.obj
 0001:00030ac0       ?WindowMsgThread@CBaseMainManageForWeb@@CGIPAX@Z 10031ac0 f   MainManageForWeb.obj
 0001:00030ac0       ?WindowMsgThread@CBaseMainManage@@CGIPAX@Z 10031ac0 f   MainManage.obj
 0001:00030cb0       ?WindowProcFunc@CBaseMainManage@@CGJPAUHWND__@@IIJ@Z 10031cb0 f   MainManage.obj
 0001:00030cb0       ?WindowProcFunc@CBaseMainManageForZ@@CGJPAUHWND__@@IIJ@Z 10031cb0 f   MainManageForZ.obj
 0001:00030cb0       ?WindowProcFunc@CBaseMainManageForWeb@@CGJPAUHWND__@@IIJ@Z 10031cb0 f   MainManageForWeb.obj
 0001:00030de0       ??0MD5_CTX@@QAE@XZ         10031de0 f   MD5.obj
 0001:00030e10       ??1MD5_CTX@@UAE@XZ         10031e10 f   MD5.obj
 0001:00030e30       ?MD5Init@MD5_CTX@@AAEXXZ   10031e30 f   MD5.obj
 0001:00030eb0       ?MD5Update@MD5_CTX@@QAEXPAEI@Z 10031eb0 f   MD5.obj
 0001:00030fd0       ?MD5Final@MD5_CTX@@QAEXQAE@Z 10031fd0 f   MD5.obj
 0001:000310a0       ?MD5Transform@MD5_CTX@@AAEXQAKQAE@Z 100320a0 f   MD5.obj
 0001:00031f10       ?Encode@MD5_CTX@@AAEXPAEPAKI@Z 10032f10 f   MD5.obj
 0001:00031fc0       ?Decode@MD5_CTX@@AAEXPAKPAEI@Z 10032fc0 f   MD5.obj
 0001:00032040       ?MD5_memcpy@MD5_CTX@@AAEXPAE0I@Z 10033040 f   MD5.obj
 0001:00032090       ?MD5_memset@MD5_CTX@@AAEXPAEHI@Z 10033090 f   MD5.obj
 0001:000320d0       ??0CProcessManage@@QAE@XZ  100330d0 f   ProcessManage.obj
 0001:00032120       ??1CProcessManage@@QAE@XZ  10033120 f   ProcessManage.obj
 0001:00032190       ?GetUpperBound@CPtrArray@@QBEHXZ 10033190 f i ProcessManage.obj
 0001:000321b0       ?GetAt@CPtrArray@@QBEPAXH@Z 100331b0 f i ProcessManage.obj
 0001:000321f0       ?Add@CPtrArray@@QAEHPAX@Z  100331f0 f i ProcessManage.obj
 0001:00032230       ??0CSocketInit@@QAE@XZ     10033230 f   SocketInit.obj
 0001:00032280       ??1CSocketInit@@QAE@XZ     10033280 f   SocketInit.obj
 0001:000322a0       ??0CSmtp@@QAE@ABV0@@Z      100332a0 f i stdafx.obj
 0001:000323e0       ??4CSmtp@@QAEAAV0@ABV0@@Z  100333e0 f i stdafx.obj
 0001:000324f0       ??0?$list@PAUFILEINFO@@V?$allocator@PAUFILEINFO@@@std@@@std@@QAE@ABV01@@Z 100334f0 f i stdafx.obj
 0001:000325e0       ??4?$list@PAUFILEINFO@@V?$allocator@PAUFILEINFO@@@std@@@std@@QAEAAV01@ABV01@@Z 100335e0 f i stdafx.obj
 0001:00032630       ?begin@?$list@PAUFILEINFO@@V?$allocator@PAUFILEINFO@@@std@@@std@@QBE?AV?$_List_const_iterator@V?$_List_val@PAUFILEINFO@@V?$allocator@PAUFILEINFO@@@std@@@std@@@2@XZ 10033630 f i stdafx.obj
 0001:00032670       ?end@?$list@PAUFILEINFO@@V?$allocator@PAUFILEINFO@@@std@@@std@@QBE?AV?$_List_const_iterator@V?$_List_val@PAUFILEINFO@@V?$allocator@PAUFILEINFO@@@std@@@std@@@2@XZ 10033670 f i stdafx.obj
 0001:00032670       ?begin@?$vector@HV?$allocator@H@std@@@std@@QAE?AV?$_Vector_iterator@V?$_Vector_val@HV?$allocator@H@std@@@std@@@2@XZ 10033670 f i AFCSocket.obj
 0001:000326a0       ??$insert@V?$_List_const_iterator@V?$_List_val@PAUFILEINFO@@V?$allocator@PAUFILEINFO@@@std@@@std@@@std@@@?$list@PAUFILEINFO@@V?$allocator@PAUFILEINFO@@@std@@@std@@QAEXV?$_List_const_iterator@V?$_List_val@PAUFILEINFO@@V?$allocator@PAUFILEINFO@@@std@@@std@@@1@00@Z 100336a0 f i stdafx.obj
 0001:000326f0       ??$assign@V?$_List_const_iterator@V?$_List_val@PAUFILEINFO@@V?$allocator@PAUFILEINFO@@@std@@@std@@@std@@@?$list@PAUFILEINFO@@V?$allocator@PAUFILEINFO@@@std@@@std@@QAEXV?$_List_const_iterator@V?$_List_val@PAUFILEINFO@@V?$allocator@PAUFILEINFO@@@std@@@std@@@1@0@Z 100336f0 f i stdafx.obj
 0001:00032730       ??$_Iter_cat@V?$_List_const_iterator@V?$_List_val@PAUFILEINFO@@V?$allocator@PAUFILEINFO@@@std@@@std@@@std@@@std@@YA?AUbidirectional_iterator_tag@0@ABV?$_List_const_iterator@V?$_List_val@PAUFILEINFO@@V?$allocator@PAUFILEINFO@@@std@@@std@@@0@@Z 10033730 f i stdafx.obj
 0001:00032750       ??$_Insert@V?$_List_const_iterator@V?$_List_val@PAUFILEINFO@@V?$allocator@PAUFILEINFO@@@std@@@std@@@std@@@?$list@PAUFILEINFO@@V?$allocator@PAUFILEINFO@@@std@@@std@@QAEXV?$_List_const_iterator@V?$_List_val@PAUFILEINFO@@V?$allocator@PAUFILEINFO@@@std@@@std@@@1@00Uforward_iterator_tag@1@@Z 10033750 f i stdafx.obj
 0001:00032840       ??$_Assign@V?$_List_const_iterator@V?$_List_val@PAUFILEINFO@@V?$allocator@PAUFILEINFO@@@std@@@std@@@std@@@?$list@PAUFILEINFO@@V?$allocator@PAUFILEINFO@@@std@@@std@@QAEXV?$_List_const_iterator@V?$_List_val@PAUFILEINFO@@V?$allocator@PAUFILEINFO@@@std@@@std@@@1@0Uinput_iterator_tag@1@@Z 10033840 f i stdafx.obj
 0001:00032890       ??F?$_List_const_iterator@V?$_List_val@PAUFILEINFO@@V?$allocator@PAUFILEINFO@@@std@@@std@@@std@@QAEAAV01@XZ 10033890 f i stdafx.obj
 0001:000328c0       ?Dellog@@YAXHH@Z           100338c0 f   WriteLog.obj
 0001:00032960       ?WriteStr@@YAXPADHH@Z      10033960 f   WriteLog.obj
 0001:00032a80       ?WriteStr@@YAXH@Z          10033a80 f   WriteLog.obj
 0001:00032ae0       ?WriteStr@@YAXJ@Z          10033ae0 f   WriteLog.obj
 0001:00032b40       ?WriteError@@YAXPADHH@Z    10033b40 f   WriteLog.obj
 0001:00032cd0       ?SeekToEnd@CFile@@QAE_KXZ  10033cd0 f i WriteLog.obj
 0001:00032d00       ?insert@HNTree@@QAEPAVHNTreeNode@@AAV?$basic_string@DU?$char_traits@D@std@@V?$allocator@D@2@@std@@@Z 10033d00 f   HNTree.obj
 0001:00032d30       ?insert@HNTree@@AAEPAVHNTreeNode@@PAV2@AAV?$basic_string@DU?$char_traits@D@std@@V?$allocator@D@2@@std@@@Z 10033d30 f   HNTree.obj
 0001:00032f40       ?insertBranch@HNTree@@AAEPAVHNTreeNode@@PAV2@AAV?$basic_string@DU?$char_traits@D@std@@V?$allocator@D@2@@std@@@Z 10033f40 f   HNTree.obj
 0001:000331b0       ?find@HNTree@@QAEPAVHNTreeNode@@AAV?$basic_string@DU?$char_traits@D@std@@V?$allocator@D@2@@std@@@Z 100341b0 f   HNTree.obj
 0001:000331e0       ?find@HNTree@@AAEPAVHNTreeNode@@PAV2@AAV?$basic_string@DU?$char_traits@D@std@@V?$allocator@D@2@@std@@@Z 100341e0 f   HNTree.obj
 0001:00033480       ?empty@?$_Tree@V?$_Tmap_traits@V?$basic_string@DU?$char_traits@D@std@@V?$allocator@D@2@@std@@VHNTreeNode@@U?$less@V?$basic_string@DU?$char_traits@D@std@@V?$allocator@D@2@@std@@@2@V?$allocator@U?$pair@$$CBV?$basic_string@DU?$char_traits@D@std@@V?$allocator@D@2@@std@@VHNTreeNode@@@std@@@2@$0A@@std@@@std@@QBE_NXZ 10034480 f i HNTree.obj
 0001:000334b0       ??0HNTreeNode@@QAE@V?$basic_string@DU?$char_traits@D@std@@V?$allocator@D@2@@std@@H@Z 100344b0 f   HNTreeNode.obj
 0001:00033560       ?findChild@HNTreeNode@@QAEPAV1@AAV?$basic_string@DU?$char_traits@D@std@@V?$allocator@D@2@@std@@@Z 10034560 f   HNTreeNode.obj
 0001:000335d0       ?insertChild@HNTreeNode@@QAEPAV1@AAV?$basic_string@DU?$char_traits@D@std@@V?$allocator@D@2@@std@@H@Z 100345d0 f   HNTreeNode.obj
 0001:00033700       ?find@?$_Tree@V?$_Tmap_traits@V?$basic_string@DU?$char_traits@D@std@@V?$allocator@D@2@@std@@VHNTreeNode@@U?$less@V?$basic_string@DU?$char_traits@D@std@@V?$allocator@D@2@@std@@@2@V?$allocator@U?$pair@$$CBV?$basic_string@DU?$char_traits@D@std@@V?$allocator@D@2@@std@@VHNTreeNode@@@std@@@2@$0A@@std@@@std@@QAE?AV?$_Tree_iterator@V?$_Tree_val@V?$_Tmap_traits@V?$basic_string@DU?$char_traits@D@std@@V?$allocator@D@2@@std@@VHNTreeNode@@U?$less@V?$basic_string@DU?$char_traits@D@std@@V?$allocator@D@2@@std@@@2@V?$allocator@U?$pair@$$CBV?$basic_string@DU?$char_traits@D@std@@V?$allocator@D@2@@std@@VHNTreeNode@@@std@@@2@$0A@@std@@@std@@@2@ABV?$basic_string@DU?$char_traits@D@std@@V?$allocator@D@2@@2@@Z 10034700 f i HNTreeNode.obj
 0001:00033790       ?lower_bound@?$_Tree@V?$_Tmap_traits@V?$basic_string@DU?$char_traits@D@std@@V?$allocator@D@2@@std@@VHNTreeNode@@U?$less@V?$basic_string@DU?$char_traits@D@std@@V?$allocator@D@2@@std@@@2@V?$allocator@U?$pair@$$CBV?$basic_string@DU?$char_traits@D@std@@V?$allocator@D@2@@std@@VHNTreeNode@@@std@@@2@$0A@@std@@@std@@QAE?AV?$_Tree_iterator@V?$_Tree_val@V?$_Tmap_traits@V?$basic_string@DU?$char_traits@D@std@@V?$allocator@D@2@@std@@VHNTreeNode@@U?$less@V?$basic_string@DU?$char_traits@D@std@@V?$allocator@D@2@@std@@@2@V?$allocator@U?$pair@$$CBV?$basic_string@DU?$char_traits@D@std@@V?$allocator@D@2@@std@@VHNTreeNode@@@std@@@2@$0A@@std@@@std@@@2@ABV?$basic_string@DU?$char_traits@D@std@@V?$allocator@D@2@@2@@Z 10034790 f i HNTreeNode.obj
 0001:000337d0       ??R?$less@V?$basic_string@DU?$char_traits@D@std@@V?$allocator@D@2@@std@@@std@@QBE_NABV?$basic_string@DU?$char_traits@D@std@@V?$allocator@D@2@@1@0@Z 100347d0 f i HNTreeNode.obj
 0001:00033800       ??D?$_Tree_iterator@V?$_Tree_val@V?$_Tmap_traits@V?$CStringT@DV?$StrTraitMFC_DLL@DV?$ChTraitsCRT@D@ATL@@@@@ATL@@PAVCBcfFileNameItem@@U?$less@V?$CStringT@DV?$StrTraitMFC_DLL@DV?$ChTraitsCRT@D@ATL@@@@@ATL@@@std@@V?$allocator@U?$pair@$$CBV?$CStringT@DV?$StrTraitMFC_DLL@DV?$ChTraitsCRT@D@ATL@@@@@ATL@@PAVCBcfFileNameItem@@@std@@@5@$0A@@std@@@std@@@std@@QBEAAU?$pair@$$CBV?$CStringT@DV?$StrTraitMFC_DLL@DV?$ChTraitsCRT@D@ATL@@@@@ATL@@PAVCBcfFileNameItem@@@1@XZ 10034800 f i MainManage.obj
 0001:00033800       ??D?$_Tree_iterator@V?$_Tree_val@V?$_Tmap_traits@V?$CStringT@DV?$StrTraitMFC_DLL@DV?$ChTraitsCRT@D@ATL@@@@@ATL@@PAVCBcfListItem@@U?$less@V?$CStringT@DV?$StrTraitMFC_DLL@DV?$ChTraitsCRT@D@ATL@@@@@ATL@@@std@@V?$allocator@U?$pair@$$CBV?$CStringT@DV?$StrTraitMFC_DLL@DV?$ChTraitsCRT@D@ATL@@@@@ATL@@PAVCBcfListItem@@@std@@@5@$0A@@std@@@std@@@std@@QBEAAU?$pair@$$CBV?$CStringT@DV?$StrTraitMFC_DLL@DV?$ChTraitsCRT@D@ATL@@@@@ATL@@PAVCBcfListItem@@@1@XZ 10034800 f i MainManage.obj
 0001:00033800       ??D?$_Tree_iterator@V?$_Tree_val@V?$_Tmap_traits@V?$basic_string@DU?$char_traits@D@std@@V?$allocator@D@2@@std@@VHNTreeNode@@U?$less@V?$basic_string@DU?$char_traits@D@std@@V?$allocator@D@2@@std@@@2@V?$allocator@U?$pair@$$CBV?$basic_string@DU?$char_traits@D@std@@V?$allocator@D@2@@std@@VHNTreeNode@@@std@@@2@$0A@@std@@@std@@@std@@QBEAAU?$pair@$$CBV?$basic_string@DU?$char_traits@D@std@@V?$allocator@D@2@@std@@VHNTreeNode@@@1@XZ 10034800 f i HNTreeNode.obj
 0001:00033800       ??D?$_Tree_iterator@V?$_Tree_val@V?$_Tmap_traits@HV?$vector@HV?$allocator@H@std@@@std@@U?$less@H@2@V?$allocator@U?$pair@$$CBHV?$vector@HV?$allocator@H@std@@@std@@@std@@@2@$0A@@std@@@std@@@std@@QBEAAU?$pair@$$CBHV?$vector@HV?$allocator@H@std@@@std@@@1@XZ 10034800 f i AFCSocket.obj
 0001:00033820       ?_Lbound@?$_Tree@V?$_Tmap_traits@V?$basic_string@DU?$char_traits@D@std@@V?$allocator@D@2@@std@@VHNTreeNode@@U?$less@V?$basic_string@DU?$char_traits@D@std@@V?$allocator@D@2@@std@@@2@V?$allocator@U?$pair@$$CBV?$basic_string@DU?$char_traits@D@std@@V?$allocator@D@2@@std@@VHNTreeNode@@@std@@@2@$0A@@std@@@std@@IAEPAU_Node@?$_Tree_nod@V?$_Tmap_traits@V?$basic_string@DU?$char_traits@D@std@@V?$allocator@D@2@@std@@VHNTreeNode@@U?$less@V?$basic_string@DU?$char_traits@D@std@@V?$allocator@D@2@@std@@@2@V?$allocator@U?$pair@$$CBV?$basic_string@DU?$char_traits@D@std@@V?$allocator@D@2@@std@@VHNTreeNode@@@std@@@2@$0A@@std@@@2@ABV?$basic_string@DU?$char_traits@D@std@@V?$allocator@D@2@@2@@Z 10034820 f i HNTreeNode.obj
 0001:000338b0       ??D?$_Tree_const_iterator@V?$_Tree_val@V?$_Tmap_traits@HV?$vector@HV?$allocator@H@std@@@std@@U?$less@H@2@V?$allocator@U?$pair@$$CBHV?$vector@HV?$allocator@H@std@@@std@@@std@@@2@$0A@@std@@@std@@@std@@QBEABU?$pair@$$CBHV?$vector@HV?$allocator@H@std@@@std@@@1@XZ 100348b0 f i AFCSocket.obj
 0001:000338b0       ??D?$_Tree_const_iterator@V?$_Tree_val@V?$_Tmap_traits@V?$CStringT@DV?$StrTraitMFC_DLL@DV?$ChTraitsCRT@D@ATL@@@@@ATL@@PAVCBcfListItem@@U?$less@V?$CStringT@DV?$StrTraitMFC_DLL@DV?$ChTraitsCRT@D@ATL@@@@@ATL@@@std@@V?$allocator@U?$pair@$$CBV?$CStringT@DV?$StrTraitMFC_DLL@DV?$ChTraitsCRT@D@ATL@@@@@ATL@@PAVCBcfListItem@@@std@@@5@$0A@@std@@@std@@@std@@QBEABU?$pair@$$CBV?$CStringT@DV?$StrTraitMFC_DLL@DV?$ChTraitsCRT@D@ATL@@@@@ATL@@PAVCBcfListItem@@@1@XZ 100348b0 f i MainManage.obj
 0001:000338b0       ??D?$_Tree_const_iterator@V?$_Tree_val@V?$_Tmap_traits@V?$CStringT@DV?$StrTraitMFC_DLL@DV?$ChTraitsCRT@D@ATL@@@@@ATL@@PAVCBcfFileNameItem@@U?$less@V?$CStringT@DV?$StrTraitMFC_DLL@DV?$ChTraitsCRT@D@ATL@@@@@ATL@@@std@@V?$allocator@U?$pair@$$CBV?$CStringT@DV?$StrTraitMFC_DLL@DV?$ChTraitsCRT@D@ATL@@@@@ATL@@PAVCBcfFileNameItem@@@std@@@5@$0A@@std@@@std@@@std@@QBEABU?$pair@$$CBV?$CStringT@DV?$StrTraitMFC_DLL@DV?$ChTraitsCRT@D@ATL@@@@@ATL@@PAVCBcfFileNameItem@@@1@XZ 100348b0 f i MainManage.obj
 0001:000338b0       ??D?$_Tree_const_iterator@V?$_Tree_val@V?$_Tmap_traits@V?$basic_string@DU?$char_traits@D@std@@V?$allocator@D@2@@std@@VHNTreeNode@@U?$less@V?$basic_string@DU?$char_traits@D@std@@V?$allocator@D@2@@std@@@2@V?$allocator@U?$pair@$$CBV?$basic_string@DU?$char_traits@D@std@@V?$allocator@D@2@@std@@VHNTreeNode@@@std@@@2@$0A@@std@@@std@@@std@@QBEABU?$pair@$$CBV?$basic_string@DU?$char_traits@D@std@@V?$allocator@D@2@@std@@VHNTreeNode@@@1@XZ 100348b0 f i HNTreeNode.obj
 0001:000338e0       ??$?0AAV?$basic_string@DU?$char_traits@D@std@@V?$allocator@D@2@@std@@VHNTreeNode@@@?$pair@V?$basic_string@DU?$char_traits@D@std@@V?$allocator@D@2@@std@@VHNTreeNode@@@std@@QAE@AAV?$basic_string@DU?$char_traits@D@std@@V?$allocator@D@2@@1@$$QAVHNTreeNode@@@Z 100348e0 f i HNTreeNode.obj
 0001:00033920       ??$insert@U?$pair@V?$basic_string@DU?$char_traits@D@std@@V?$allocator@D@2@@std@@VHNTreeNode@@@std@@@?$_Tree@V?$_Tmap_traits@V?$basic_string@DU?$char_traits@D@std@@V?$allocator@D@2@@std@@VHNTreeNode@@U?$less@V?$basic_string@DU?$char_traits@D@std@@V?$allocator@D@2@@std@@@2@V?$allocator@U?$pair@$$CBV?$basic_string@DU?$char_traits@D@std@@V?$allocator@D@2@@std@@VHNTreeNode@@@std@@@2@$0A@@std@@@std@@QAE?AU?$pair@V?$_Tree_iterator@V?$_Tree_val@V?$_Tmap_traits@V?$basic_string@DU?$char_traits@D@std@@V?$allocator@D@2@@std@@VHNTreeNode@@U?$less@V?$basic_string@DU?$char_traits@D@std@@V?$allocator@D@2@@std@@@2@V?$allocator@U?$pair@$$CBV?$basic_string@DU?$char_traits@D@std@@V?$allocator@D@2@@std@@VHNTreeNode@@@std@@@2@$0A@@std@@@std@@@std@@_N@1@$$QAU?$pair@V?$basic_string@DU?$char_traits@D@std@@V?$allocator@D@2@@std@@VHNTreeNode@@@1@@Z 10034920 f i HNTreeNode.obj
 0001:00033960       ??$?MDU?$char_traits@D@std@@V?$allocator@D@1@@std@@YA_NABV?$basic_string@DU?$char_traits@D@std@@V?$allocator@D@2@@0@0@Z 10034960 f i HNTreeNode.obj
 0001:00033990       ?_Linsert@?$_Tree@V?$_Tmap_traits@V?$basic_string@DU?$char_traits@D@std@@V?$allocator@D@2@@std@@VHNTreeNode@@U?$less@V?$basic_string@DU?$char_traits@D@std@@V?$allocator@D@2@@std@@@2@V?$allocator@U?$pair@$$CBV?$basic_string@DU?$char_traits@D@std@@V?$allocator@D@2@@std@@VHNTreeNode@@@std@@@2@$0A@@std@@@std@@QAE?AU?$pair@V?$_Tree_iterator@V?$_Tree_val@V?$_Tmap_traits@V?$basic_string@DU?$char_traits@D@std@@V?$allocator@D@2@@std@@VHNTreeNode@@U?$less@V?$basic_string@DU?$char_traits@D@std@@V?$allocator@D@2@@std@@@2@V?$allocator@U?$pair@$$CBV?$basic_string@DU?$char_traits@D@std@@V?$allocator@D@2@@std@@VHNTreeNode@@@std@@@2@$0A@@std@@@std@@@std@@_N@2@PAU_Node@?$_Tree_nod@V?$_Tmap_traits@V?$basic_string@DU?$char_traits@D@std@@V?$allocator@D@2@@std@@VHNTreeNode@@U?$less@V?$basic_string@DU?$char_traits@D@std@@V?$allocator@D@2@@std@@@2@V?$allocator@U?$pair@$$CBV?$basic_string@DU?$char_traits@D@std@@V?$allocator@D@2@@std@@VHNTreeNode@@@std@@@2@$0A@@std@@@2@_N@Z 10034990 f i HNTreeNode.obj
 0001:00033be0       ?_Insert@?$_Tree@V?$_Tmap_traits@V?$basic_string@DU?$char_traits@D@std@@V?$allocator@D@2@@std@@VHNTreeNode@@U?$less@V?$basic_string@DU?$char_traits@D@std@@V?$allocator@D@2@@std@@@2@V?$allocator@U?$pair@$$CBV?$basic_string@DU?$char_traits@D@std@@V?$allocator@D@2@@std@@VHNTreeNode@@@std@@@2@$0A@@std@@@std@@IAE?AV?$_Tree_iterator@V?$_Tree_val@V?$_Tmap_traits@V?$basic_string@DU?$char_traits@D@std@@V?$allocator@D@2@@std@@VHNTreeNode@@U?$less@V?$basic_string@DU?$char_traits@D@std@@V?$allocator@D@2@@std@@@2@V?$allocator@U?$pair@$$CBV?$basic_string@DU?$char_traits@D@std@@V?$allocator@D@2@@std@@VHNTreeNode@@@std@@@2@$0A@@std@@@std@@@2@_NPAU_Node@?$_Tree_nod@V?$_Tmap_traits@V?$basic_string@DU?$char_traits@D@std@@V?$allocator@D@2@@std@@VHNTreeNode@@U?$less@V?$basic_string@DU?$char_traits@D@std@@V?$allocator@D@2@@std@@@2@V?$allocator@U?$pair@$$CBV?$basic_string@DU?$char_traits@D@std@@V?$allocator@D@2@@std@@VHNTreeNode@@@std@@@2@$0A@@std@@@2@1@Z 10034be0 f i HNTreeNode.obj
 0001:00034020       ??F?$_Tree_iterator@V?$_Tree_val@V?$_Tmap_traits@V?$basic_string@DU?$char_traits@D@std@@V?$allocator@D@2@@std@@VHNTreeNode@@U?$less@V?$basic_string@DU?$char_traits@D@std@@V?$allocator@D@2@@std@@@2@V?$allocator@U?$pair@$$CBV?$basic_string@DU?$char_traits@D@std@@V?$allocator@D@2@@std@@VHNTreeNode@@@std@@@2@$0A@@std@@@std@@@std@@QAEAAV01@XZ 10035020 f i HNTreeNode.obj
 0001:00034040       ?max_size@?$_Tree@V?$_Tmap_traits@V?$basic_string@DU?$char_traits@D@std@@V?$allocator@D@2@@std@@VHNTreeNode@@U?$less@V?$basic_string@DU?$char_traits@D@std@@V?$allocator@D@2@@std@@@2@V?$allocator@U?$pair@$$CBV?$basic_string@DU?$char_traits@D@std@@V?$allocator@D@2@@std@@VHNTreeNode@@@std@@@2@$0A@@std@@@std@@QBEIXZ 10035040 f i HNTreeNode.obj
 0001:00034060       ??F?$_Tree_const_iterator@V?$_Tree_val@V?$_Tmap_traits@V?$basic_string@DU?$char_traits@D@std@@V?$allocator@D@2@@std@@VHNTreeNode@@U?$less@V?$basic_string@DU?$char_traits@D@std@@V?$allocator@D@2@@std@@@2@V?$allocator@U?$pair@$$CBV?$basic_string@DU?$char_traits@D@std@@V?$allocator@D@2@@std@@VHNTreeNode@@@std@@@2@$0A@@std@@@std@@@std@@QAEAAV01@XZ 10035060 f i HNTreeNode.obj
 0001:00034080       ?max_size@?$allocator@U?$pair@$$CBV?$basic_string@DU?$char_traits@D@std@@V?$allocator@D@2@@std@@VHNTreeNode@@@std@@@std@@QBEIXZ 10035080 f i HNTreeNode.obj
 0001:000340c0       ??F?$_Tree_unchecked_const_iterator@V?$_Tree_val@V?$_Tmap_traits@V?$basic_string@DU?$char_traits@D@std@@V?$allocator@D@2@@std@@VHNTreeNode@@U?$less@V?$basic_string@DU?$char_traits@D@std@@V?$allocator@D@2@@std@@@2@V?$allocator@U?$pair@$$CBV?$basic_string@DU?$char_traits@D@std@@V?$allocator@D@2@@std@@VHNTreeNode@@@std@@@2@$0A@@std@@@std@@U_Iterator_base0@2@@std@@QAEAAV01@XZ 100350c0 f i HNTreeNode.obj
 0001:000341b0       ??$_Buynode@U?$pair@V?$basic_string@DU?$char_traits@D@std@@V?$allocator@D@2@@std@@VHNTreeNode@@@std@@@?$_Tree_val@V?$_Tmap_traits@V?$basic_string@DU?$char_traits@D@std@@V?$allocator@D@2@@std@@VHNTreeNode@@U?$less@V?$basic_string@DU?$char_traits@D@std@@V?$allocator@D@2@@std@@@2@V?$allocator@U?$pair@$$CBV?$basic_string@DU?$char_traits@D@std@@V?$allocator@D@2@@std@@VHNTreeNode@@@std@@@2@$0A@@std@@@std@@QAEPAU_Node@?$_Tree_nod@V?$_Tmap_traits@V?$basic_string@DU?$char_traits@D@std@@V?$allocator@D@2@@std@@VHNTreeNode@@U?$less@V?$basic_string@DU?$char_traits@D@std@@V?$allocator@D@2@@std@@@2@V?$allocator@U?$pair@$$CBV?$basic_string@DU?$char_traits@D@std@@V?$allocator@D@2@@std@@VHNTreeNode@@@std@@@2@$0A@@std@@@1@$$QAU?$pair@V?$basic_string@DU?$char_traits@D@std@@V?$allocator@D@2@@std@@VHNTreeNode@@@1@@Z 100351b0 f i HNTreeNode.obj
 0001:00034280       ??$_Cons_val@V?$allocator@U?$pair@$$CBV?$basic_string@DU?$char_traits@D@std@@V?$allocator@D@2@@std@@VHNTreeNode@@@std@@@std@@U?$pair@$$CBV?$basic_string@DU?$char_traits@D@std@@V?$allocator@D@2@@std@@VHNTreeNode@@@2@U?$pair@V?$basic_string@DU?$char_traits@D@std@@V?$allocator@D@2@@std@@VHNTreeNode@@@2@@std@@YAXAAV?$allocator@U?$pair@$$CBV?$basic_string@DU?$char_traits@D@std@@V?$allocator@D@2@@std@@VHNTreeNode@@@std@@@0@PAU?$pair@$$CBV?$basic_string@DU?$char_traits@D@std@@V?$allocator@D@2@@std@@VHNTreeNode@@@0@$$QAU?$pair@V?$basic_string@DU?$char_traits@D@std@@V?$allocator@D@2@@std@@VHNTreeNode@@@0@@Z 10035280 f i HNTreeNode.obj
 0001:000342b0       ??$construct@U?$pair@V?$basic_string@DU?$char_traits@D@std@@V?$allocator@D@2@@std@@VHNTreeNode@@@std@@@?$allocator@U?$pair@$$CBV?$basic_string@DU?$char_traits@D@std@@V?$allocator@D@2@@std@@VHNTreeNode@@@std@@@std@@QAEXPAU?$pair@$$CBV?$basic_string@DU?$char_traits@D@std@@V?$allocator@D@2@@std@@VHNTreeNode@@@1@$$QAU?$pair@V?$basic_string@DU?$char_traits@D@std@@V?$allocator@D@2@@std@@VHNTreeNode@@@1@@Z 100352b0 f i HNTreeNode.obj
 0001:00034340       ??$?0V?$basic_string@DU?$char_traits@D@std@@V?$allocator@D@2@@std@@VHNTreeNode@@@?$pair@$$CBV?$basic_string@DU?$char_traits@D@std@@V?$allocator@D@2@@std@@VHNTreeNode@@@std@@QAE@$$QAU?$pair@V?$basic_string@DU?$char_traits@D@std@@V?$allocator@D@2@@std@@VHNTreeNode@@@1@@Z 10035340 f i HNTreeNode.obj
 0001:00034380       ??$?0V?$basic_string@DU?$char_traits@D@std@@V?$allocator@D@2@@std@@VHNTreeNode@@@?$_Pair_base@$$CBV?$basic_string@DU?$char_traits@D@std@@V?$allocator@D@2@@std@@VHNTreeNode@@@std@@QAE@$$QAV?$basic_string@DU?$char_traits@D@std@@V?$allocator@D@2@@1@$$QAVHNTreeNode@@@Z 10035380 f i HNTreeNode.obj
 0001:00034400       ?compare@?$basic_string@DU?$char_traits@D@std@@V?$allocator@D@2@@std@@QBEHABV12@@Z 10035400 f i HNTreeNode.obj
 0001:00034440       ??4yxyDES@@QAEAAV0@ABV0@@Z 10035440 f i yxyDES.obj
 0001:00034470       ?InitializeKey@yxyDES@@QAEXV?$basic_string@DU?$char_traits@D@std@@V?$allocator@D@2@@std@@@Z 10035470 f   yxyDES.obj
 0001:00034690       ?HexCharToBinary@yxyDES@@AAE?AV?$basic_string@DU?$char_traits@D@std@@V?$allocator@D@2@@std@@D@Z 10035690 f   yxyDES.obj
 0001:00034940       ?HexIntToBinary@yxyDES@@AAE?AV?$basic_string@DU?$char_traits@D@std@@V?$allocator@D@2@@std@@H@Z 10035940 f   yxyDES.obj
 0001:00034bb0       ?BinaryToString@yxyDES@@AAE?AV?$basic_string@DU?$char_traits@D@std@@V?$allocator@D@2@@std@@PADH_N@Z 10035bb0 f   yxyDES.obj
 0001:00034de0       ?CreateSubKey@yxyDES@@AAEXPAD@Z 10035de0 f   yxyDES.obj
 0001:00035050       ?EncryptData@yxyDES@@QAEXV?$basic_string@DU?$char_traits@D@std@@V?$allocator@D@2@@std@@@Z 10036050 f   yxyDES.obj
 0001:000352c0       ?DecryptData@yxyDES@@QAEXV?$basic_string@DU?$char_traits@D@std@@V?$allocator@D@2@@std@@@Z 100362c0 f   yxyDES.obj
 0001:00035530       ?FunctionF@yxyDES@@AAEXPAD0H@Z 10036530 f   yxyDES.obj
 0001:00035720       ?InitialPermuteData@yxyDES@@AAEXV?$basic_string@DU?$char_traits@D@std@@V?$allocator@D@2@@std@@PAD_N@Z 10036720 f   yxyDES.obj
 0001:00035a60       ?ExpansionR@yxyDES@@AAEXPAD0@Z 10036a60 f   yxyDES.obj
 0001:00035af0       ?XOR@yxyDES@@AAEXPAD0H0@Z  10036af0 f   yxyDES.obj
 0001:00035bc0       ?CompressFuncS@yxyDES@@AAE?AV?$basic_string@DU?$char_traits@D@std@@V?$allocator@D@2@@std@@PAD@Z 10036bc0 f   yxyDES.obj
 0001:00035dc0       ?PermutationP@yxyDES@@AAEXV?$basic_string@DU?$char_traits@D@std@@V?$allocator@D@2@@std@@PAD@Z 10036dc0 f   yxyDES.obj
 0001:00035e90       ?SingleCharToBinary@yxyDES@@AAEHD@Z 10036e90 f   yxyDES.obj
 0001:00035ec0       ?SingleBinaryToChar@yxyDES@@AAEDH@Z 10036ec0 f   yxyDES.obj
 0001:00035ef0       ?SetCiphertext@yxyDES@@QAEXPAD@Z 10036ef0 f   yxyDES.obj
 0001:00035f20       ?GetCiphertext@yxyDES@@QAEPADXZ 10036f20 f   yxyDES.obj
 0001:00035f40       ?SetPlaintext@yxyDES@@QAEXPAD@Z 10036f40 f   yxyDES.obj
 0001:00035f70       ?GetPlaintext@yxyDES@@QAEPADXZ 10036f70 f   yxyDES.obj
 0001:00035f90       ?EncryptAnyLength@yxyDES@@QAEXV?$basic_string@DU?$char_traits@D@std@@V?$allocator@D@2@@std@@@Z 10036f90 f   yxyDES.obj
 0001:00036350       ?FillToEightBits@yxyDES@@AAE?AV?$basic_string@DU?$char_traits@D@std@@V?$allocator@D@2@@std@@V23@@Z 10037350 f   yxyDES.obj
 0001:00036470       ?GetCiphertextAnyLength@yxyDES@@QAEPADXZ 10037470 f   yxyDES.obj
 0001:00036490       ?DecryptAnyLength@yxyDES@@QAEXV?$basic_string@DU?$char_traits@D@std@@V?$allocator@D@2@@std@@@Z 10037490 f   yxyDES.obj
 0001:00036680       ?GetPlaintextAnyLength@yxyDES@@QAEPADXZ 10037680 f   yxyDES.obj
 0001:000366a0       ?CleanPlaintextMark@yxyDES@@AAEXH@Z 100376a0 f   yxyDES.obj
 0001:00036790       ?pow@@YANNH@Z              10037790 f i yxyDES.obj
 0001:000367c0       ??A?$basic_string@DU?$char_traits@D@std@@V?$allocator@D@2@@std@@QAEAADI@Z 100377c0 f i yxyDES.obj
 0001:000367e0       ??$_Pow_int@N@@YANNH@Z     100377e0 f i yxyDES.obj
 0001:0003684e       ??3@YAXPAX@Z               1003784e f   mfc100:mfc100.dll
 0001:00036854       ??2@YAPAXI@Z               10037854 f   mfc100:mfc100.dll
 0001:0003685a       ??_V@YAXPAX@Z              1003785a f   mfc100:mfc100.dll
 0001:00036860       ??_U@YAPAXI@Z              10037860 f   mfc100:mfc100.dll
 0001:00036866       ?AfxGetModuleState@@YGPAVAFX_MODULE_STATE@@XZ 10037866 f   mfc100:mfc100.dll
 0001:0003686c       ?AfxTermExtensionModule@@YGXAAUAFX_EXTENSION_MODULE@@H@Z 1003786c f   mfc100:mfc100.dll
 0001:00036872       ??0CDynLinkLibrary@@QAE@AAUAFX_EXTENSION_MODULE@@H@Z 10037872 f   mfc100:mfc100.dll
 0001:00036878       ?AfxInitExtensionModule@@YGHAAUAFX_EXTENSION_MODULE@@PAUHINSTANCE__@@@Z 10037878 f   mfc100:mfc100.dll
 0001:0003687e       ??1CEvent@@UAE@XZ          1003787e f   mfc100:mfc100.dll
 0001:00036884       ??0CEvent@@QAE@HHPBDPAU_SECURITY_ATTRIBUTES@@@Z 10037884 f   mfc100:mfc100.dll
 0001:0003688a       ?AfxMessageBox@@YGHPBDII@Z 1003788a f   mfc100:mfc100.dll
 0001:00036890       ?AfxThrowOleException@@YGXJ@Z 10037890 f   mfc100:mfc100.dll
 0001:00036896       ?AfxThrowMemoryException@@YGXXZ 10037896 f   mfc100:mfc100.dll
 0001:0003689c       ?GetThisMessageMap@CWnd@@KGPBUAFX_MSGMAP@@XZ 1003789c f   mfc100:mfc100.dll
 0001:000368a2       ??1CWnd@@UAE@XZ            100378a2 f   mfc100:mfc100.dll
 0001:000368a8       ??0CWnd@@QAE@XZ            100378a8 f   mfc100:mfc100.dll
 0001:000368ae       ?GetRuntimeClass@CWnd@@UBEPAUCRuntimeClass@@XZ 100378ae f   mfc100:mfc100.dll
 0001:000368b4       ?OnCmdMsg@CCmdTarget@@UAEHIHPAXPAUAFX_CMDHANDLERINFO@@@Z 100378b4 f   mfc100:mfc100.dll
 0001:000368ba       ?OnFinalRelease@CWnd@@UAEXXZ 100378ba f   mfc100:mfc100.dll
 0001:000368c0       ?IsInvokeAllowed@CCmdTarget@@UAEHJ@Z 100378c0 f   mfc100:mfc100.dll
 0001:000368c6       ?GetDispatchIID@CCmdTarget@@UAEHPAU_GUID@@@Z 100378c6 f   mfc100:mfc100.dll
 0001:000368cc       ?GetTypeInfoCount@CCmdTarget@@UAEIXZ 100378cc f   mfc100:mfc100.dll
 0001:000368d2       ?GetTypeLibCache@CCmdTarget@@UAEPAVCTypeLibCache@@XZ 100378d2 f   mfc100:mfc100.dll
 0001:000368d8       ?GetTypeLib@CCmdTarget@@UAEJKPAPAUITypeLib@@@Z 100378d8 f   mfc100:mfc100.dll
 0001:000368de       ?GetCommandMap@CCmdTarget@@MBEPBUAFX_OLECMDMAP@@XZ 100378de f   mfc100:mfc100.dll
 0001:000368e4       ?GetDispatchMap@CCmdTarget@@MBEPBUAFX_DISPMAP@@XZ 100378e4 f   mfc100:mfc100.dll
 0001:000368ea       ?GetConnectionMap@CCmdTarget@@MBEPBUAFX_CONNECTIONMAP@@XZ 100378ea f   mfc100:mfc100.dll
 0001:000368f0       ?GetInterfaceMap@CWnd@@MBEPBUAFX_INTERFACEMAP@@XZ 100378f0 f   mfc100:mfc100.dll
 0001:000368f6       ?GetEventSinkMap@CCmdTarget@@MBEPBUAFX_EVENTSINKMAP@@XZ 100378f6 f   mfc100:mfc100.dll
 0001:000368fc       ?OnCreateAggregates@CCmdTarget@@UAEHXZ 100378fc f   mfc100:mfc100.dll
 0001:00036902       ?GetInterfaceHook@CCmdTarget@@UAEPAUIUnknown@@PBX@Z 10037902 f   mfc100:mfc100.dll
 0001:00036908       ?GetExtraConnectionPoints@CCmdTarget@@MAEHPAVCPtrArray@@@Z 10037908 f   mfc100:mfc100.dll
 0001:0003690e       ?GetConnectionHook@CCmdTarget@@MAEPAUIConnectionPoint@@ABU_GUID@@@Z 1003790e f   mfc100:mfc100.dll
 0001:00036914       ?PreSubclassWindow@CWnd@@UAEXXZ 10037914 f   mfc100:mfc100.dll
 0001:0003691a       ?Create@CWnd@@UAEHPBD0KABUtagRECT@@PAV1@IPAUCCreateContext@@@Z 1003791a f   mfc100:mfc100.dll
 0001:00036920       ?CreateEx@CWnd@@UAEHKPBD0KABUtagRECT@@PAV1@IPAX@Z 10037920 f   mfc100:mfc100.dll
 0001:00036926       ?CreateEx@CWnd@@UAEHKPBD0KHHHHPAUHWND__@@PAUHMENU__@@PAX@Z 10037926 f   mfc100:mfc100.dll
 0001:0003692c       ?DestroyWindow@CWnd@@UAEHXZ 1003792c f   mfc100:mfc100.dll
 0001:00036932       ?PreCreateWindow@CWnd@@UAEHAAUtagCREATESTRUCTA@@@Z 10037932 f   mfc100:mfc100.dll
 0001:00036938       ?CalcWindowRect@CWnd@@UAEXPAUtagRECT@@I@Z 10037938 f   mfc100:mfc100.dll
 0001:0003693e       ?GetMenu@CWnd@@UBEPAVCMenu@@XZ 1003793e f   mfc100:mfc100.dll
 0001:00036944       ?SetMenu@CWnd@@UAEHPAVCMenu@@@Z 10037944 f   mfc100:mfc100.dll
 0001:0003694a       ?OnToolHitTest@CWnd@@UBEHVCPoint@@PAUtagTOOLINFOA@@@Z 1003794a f   mfc100:mfc100.dll
 0001:00036950       ?GetScrollBarCtrl@CWnd@@UBEPAVCScrollBar@@H@Z 10037950 f   mfc100:mfc100.dll
 0001:00036956       ?WinHelpA@CWnd@@UAEXKI@Z   10037956 f   mfc100:mfc100.dll
 0001:0003695c       ?HtmlHelpA@CWnd@@UAEXKI@Z  1003795c f   mfc100:mfc100.dll
 0001:00036962       ?WinHelpInternal@CWnd@@UAEXKI@Z 10037962 f   mfc100:mfc100.dll
 0001:00036968       ?ContinueModal@CWnd@@UAEHXZ 10037968 f   mfc100:mfc100.dll
 0001:0003696e       ?EndModalLoop@CWnd@@UAEXH@Z 1003796e f   mfc100:mfc100.dll
 0001:00036974       ?OnDrawIconicThumbnailOrLivePreview@CWnd@@UAEXAAVCDC@@VCRect@@VCSize@@HAAH@Z 10037974 f   mfc100:mfc100.dll
 0001:0003697a       ?EnsureStdObj@CWnd@@UAEJXZ 1003797a f   mfc100:mfc100.dll
 0001:00036980       ?get_accParent@CWnd@@UAEJPAPAUIDispatch@@@Z 10037980 f   mfc100:mfc100.dll
 0001:00036986       ?get_accChildCount@CWnd@@UAEJPAJ@Z 10037986 f   mfc100:mfc100.dll
 0001:0003698c       ?get_accChild@CWnd@@UAEJUtagVARIANT@@PAPAUIDispatch@@@Z 1003798c f   mfc100:mfc100.dll
 0001:00036992       ?get_accName@CWnd@@UAEJUtagVARIANT@@PAPA_W@Z 10037992 f   mfc100:mfc100.dll
 0001:00036998       ?get_accValue@CWnd@@UAEJUtagVARIANT@@PAPA_W@Z 10037998 f   mfc100:mfc100.dll
 0001:0003699e       ?get_accDescription@CWnd@@UAEJUtagVARIANT@@PAPA_W@Z 1003799e f   mfc100:mfc100.dll
 0001:000369a4       ?get_accRole@CWnd@@UAEJUtagVARIANT@@PAU2@@Z 100379a4 f   mfc100:mfc100.dll
 0001:000369aa       ?get_accState@CWnd@@UAEJUtagVARIANT@@PAU2@@Z 100379aa f   mfc100:mfc100.dll
 0001:000369b0       ?get_accHelp@CWnd@@UAEJUtagVARIANT@@PAPA_W@Z 100379b0 f   mfc100:mfc100.dll
 0001:000369b6       ?get_accHelpTopic@CWnd@@UAEJPAPA_WUtagVARIANT@@PAJ@Z 100379b6 f   mfc100:mfc100.dll
 0001:000369bc       ?get_accKeyboardShortcut@CWnd@@UAEJUtagVARIANT@@PAPA_W@Z 100379bc f   mfc100:mfc100.dll
 0001:000369c2       ?get_accFocus@CWnd@@UAEJPAUtagVARIANT@@@Z 100379c2 f   mfc100:mfc100.dll
 0001:000369c8       ?get_accSelection@CWnd@@UAEJPAUtagVARIANT@@@Z 100379c8 f   mfc100:mfc100.dll
 0001:000369ce       ?get_accDefaultAction@CWnd@@UAEJUtagVARIANT@@PAPA_W@Z 100379ce f   mfc100:mfc100.dll
 0001:000369d4       ?accSelect@CWnd@@UAEJJUtagVARIANT@@@Z 100379d4 f   mfc100:mfc100.dll
 0001:000369da       ?accLocation@CWnd@@UAEJPAJ000UtagVARIANT@@@Z 100379da f   mfc100:mfc100.dll
 0001:000369e0       ?accNavigate@CWnd@@UAEJJUtagVARIANT@@PAU2@@Z 100379e0 f   mfc100:mfc100.dll
 0001:000369e6       ?accHitTest@CWnd@@UAEJJJPAUtagVARIANT@@@Z 100379e6 f   mfc100:mfc100.dll
 0001:000369ec       ?accDoDefaultAction@CWnd@@UAEJUtagVARIANT@@@Z 100379ec f   mfc100:mfc100.dll
 0001:000369f2       ?put_accName@CWnd@@UAEJUtagVARIANT@@PA_W@Z 100379f2 f   mfc100:mfc100.dll
 0001:000369f8       ?put_accValue@CWnd@@UAEJUtagVARIANT@@PA_W@Z 100379f8 f   mfc100:mfc100.dll
 0001:000369fe       ?SetProxy@CWnd@@UAEJPAUIAccessibleProxy@@@Z 100379fe f   mfc100:mfc100.dll
 0001:00036a04       ?CreateAccessibleProxy@CWnd@@UAEJIJPAJ@Z 10037a04 f   mfc100:mfc100.dll
 0001:00036a0a       ?OnCommand@CWnd@@MAEHIJ@Z  10037a0a f   mfc100:mfc100.dll
 0001:00036a10       ?OnNotify@CWnd@@MAEHIJPAJ@Z 10037a10 f   mfc100:mfc100.dll
 0001:00036a16       ?GetSuperWndProcAddr@CWnd@@MAEPAP6GJPAUHWND__@@IIJ@ZXZ 10037a16 f   mfc100:mfc100.dll
 0001:00036a1c       ?PreTranslateMessage@CWnd@@UAEHPAUtagMSG@@@Z 10037a1c f   mfc100:mfc100.dll
 0001:00036a22       ?OnAmbientProperty@CWnd@@UAEHPAVCOleControlSite@@JPAUtagVARIANT@@@Z 10037a22 f   mfc100:mfc100.dll
 0001:00036a28       ?WindowProc@CWnd@@MAEJIIJ@Z 10037a28 f   mfc100:mfc100.dll
 0001:00036a2e       ?OnWndMsg@CWnd@@MAEHIIJPAJ@Z 10037a2e f   mfc100:mfc100.dll
 0001:00036a34       ?DefWindowProcA@CWnd@@MAEJIIJ@Z 10037a34 f   mfc100:mfc100.dll
 0001:00036a3a       ?PostNcDestroy@CWnd@@MAEXXZ 10037a3a f   mfc100:mfc100.dll
 0001:00036a40       ?OnChildNotify@CWnd@@MAEHIIJPAJ@Z 10037a40 f   mfc100:mfc100.dll
 0001:00036a46       ?OnTouchInputs@CWnd@@MAEHIPAUtagTOUCHINPUT@@@Z 10037a46 f   mfc100:mfc100.dll
 0001:00036a4c       ?OnTouchInput@CWnd@@MAEHVCPoint@@HHPAUtagTOUCHINPUT@@@Z 10037a4c f   mfc100:mfc100.dll
 0001:00036a52       ?GetGestureStatus@CWnd@@MAEKVCPoint@@@Z 10037a52 f   mfc100:mfc100.dll
 0001:00036a58       ?OnGestureZoom@CWnd@@MAEHVCPoint@@J@Z 10037a58 f   mfc100:mfc100.dll
 0001:00036a5e       ?OnGesturePan@CWnd@@MAEHVCPoint@@0@Z 10037a5e f   mfc100:mfc100.dll
 0001:00036a64       ?OnGestureRotate@CWnd@@MAEHVCPoint@@N@Z 10037a64 f   mfc100:mfc100.dll
 0001:00036a6a       ?OnGestureTwoFingerTap@CWnd@@MAEHVCPoint@@@Z 10037a6a f   mfc100:mfc100.dll
 0001:00036a70       ?OnGesturePressAndTap@CWnd@@MAEHVCPoint@@J@Z 10037a70 f   mfc100:mfc100.dll
 0001:00036a76       ?CheckAutoCenter@CWnd@@UAEHXZ 10037a76 f   mfc100:mfc100.dll
 0001:00036a7c       ?IsFrameWnd@CWnd@@UBEHXZ   10037a7c f   mfc100:mfc100.dll
 0001:00036a82       ?CreateControlContainer@CWnd@@MAEHPAPAVCOleControlContainer@@@Z 10037a82 f   mfc100:mfc100.dll
 0001:00036a88       ?CreateControlSite@CWnd@@MAEHPAVCOleControlContainer@@PAPAVCOleControlSite@@IABU_GUID@@@Z 10037a88 f   mfc100:mfc100.dll
 0001:00036a8e       ?SetOccDialogInfo@CWnd@@MAEHPAU_AFX_OCC_DIALOG_INFO@@@Z 10037a8e f   mfc100:mfc100.dll
 0001:00036a94       ?GetOccDialogInfo@CWnd@@MAEPAU_AFX_OCC_DIALOG_INFO@@XZ 10037a94 f   mfc100:mfc100.dll
 0001:00036a9a       ?AfxGetThread@@YGPAVCWinThread@@XZ 10037a9a f   mfc100:mfc100.dll
 0001:00036aa0       ?GetRuntimeClass@CObject@@UBEPAUCRuntimeClass@@XZ 10037aa0 f   mfc100:mfc100.dll
 0001:00036aa6       ?AfxThrowInvalidArgException@@YGXXZ 10037aa6 f   mfc100:mfc100.dll
 0001:00036aac       ?ReadCount@CArchive@@QAEKXZ 10037aac f   mfc100:mfc100.dll
 0001:00036ab2       ?WriteCount@CArchive@@QAEXK@Z 10037ab2 f   mfc100:mfc100.dll
 0001:00036ab8       ?FreeDataChain@CPlex@@QAEXXZ 10037ab8 f   mfc100:mfc100.dll
 0001:00036abe       ?Create@CPlex@@SGPAU1@AAPAU1@II@Z 10037abe f   mfc100:mfc100.dll
 0001:00036ac4       ?Write@CArchive@@QAEXPBXI@Z 10037ac4 f   mfc100:mfc100.dll
 0001:00036aca       ?AfxThrowArchiveException@@YGXHPBD@Z 10037aca f   mfc100:mfc100.dll
 0001:00036ad0       ?Read@CArchive@@QAEIPAXI@Z 10037ad0 f   mfc100:mfc100.dll
 0001:00036ad6       ?SetSize@CPtrArray@@QAEXHH@Z 10037ad6 f   mfc100:mfc100.dll
 0001:00036adc       ?RemoveAt@CPtrArray@@QAEXHH@Z 10037adc f   mfc100:mfc100.dll
 0001:00036ae2       ?SetAtGrow@CPtrArray@@QAEXHPAX@Z 10037ae2 f   mfc100:mfc100.dll
 0001:00036ae8       ??0CPtrArray@@QAE@XZ       10037ae8 f   mfc100:mfc100.dll
 0001:00036aee       ??1CPtrArray@@UAE@XZ       10037aee f   mfc100:mfc100.dll
 0001:00036af4       ?Delete@CException@@QAEXXZ 10037af4 f   mfc100:mfc100.dll
 0001:00036afa       ??1CFile@@UAE@XZ           10037afa f   mfc100:mfc100.dll
 0001:00036b00       ?Close@CFile@@UAEXXZ       10037b00 f   mfc100:mfc100.dll
 0001:00036b06       ?Write@CFile@@UAEXPBXI@Z   10037b06 f   mfc100:mfc100.dll
 0001:00036b0c       ?Open@CFile@@UAEHPBDIPAVCFileException@@@Z 10037b0c f   mfc100:mfc100.dll
 0001:00036b12       ??0CFile@@QAE@XZ           10037b12 f   mfc100:mfc100.dll
 0001:00036b18       _memcpy                    10037b18 f   msvcrt:MSVCR100.dll
 0001:00036b1e       ___CxxFrameHandler3        10037b1e f   msvcrt:MSVCR100.dll
 0001:00036b24       @__security_check_cookie@4 10037b24 f   msvcrt:secchk.obj
 0001:00036b34       _strlen                    10037b34 f   msvcrt:MSVCR100.dll
 0001:00036b3a       _memset                    10037b3a f   msvcrt:MSVCR100.dll
 0001:00036b40       __CxxThrowException@8      10037b40 f   msvcrt:MSVCR100.dll
 0001:00036b46       ??_Etype_info@@UAEPAXI@Z   10037b46 f i msvcrt:ti_inst.obj
 0001:00036b92       ??0exception@std@@QAE@ABV01@@Z 10037b92 f   msvcrt:MSVCR100.dll
 0001:00036b98       ?what@exception@std@@UBEPBDXZ 10037b98 f   msvcrt:MSVCR100.dll
 0001:00036ba0       __allshl                   10037ba0 f   msvcrt:llshl.obj
 0001:00036bc0       __aullshr                  10037bc0 f   msvcrt:ullshr.obj
 0001:00036be0       __purecall                 10037be0 f   msvcrt:MSVCR100.dll
 0001:00036be6       ?__ArrayUnwind@@YGXPAXIHP6EX0@Z@Z 10037be6 f   msvcrt:ehvecdtr.obj
 0001:00036c44       ??_M@YGXPAXIHP6EX0@Z@Z     10037c44 f   msvcrt:ehvecdtr.obj
 0001:00036cb0       __alloca_probe             10037cb0     msvcrt:chkstk.obj
 0001:00036cb0       __chkstk                   10037cb0 f   msvcrt:chkstk.obj
 0001:00036cdc       _strcmp                    10037cdc f   msvcrt:MSVCR100.dll
 0001:00036cf0       __ftol2_sse                10037cf0 f   msvcrt:ftol2.obj
 0001:00036cf9       __ftol2_pentium4           10037cf9 f   msvcrt:ftol2.obj
 0001:00036d0c       __ftol2_sse_excpt          10037d0c f   msvcrt:ftol2.obj
 0001:00036d26       __ftol2                    10037d26 f   msvcrt:ftol2.obj
 0001:00036d9b       __onexit                   10037d9b f   msvcrt:atonexit.obj
 0001:00036e3c       _atexit                    10037e3c f   msvcrt:atonexit.obj
 0001:00036e60       __alldiv                   10037e60 f   msvcrt:lldiv.obj
 0001:00036f0a       ??_L@YGXPAXIHP6EX0@Z1@Z    10037f0a f   msvcrt:ehvecctr.obj
 0001:00036f70       _memcmp                    10037f70 f   msvcrt:MSVCR100.dll
 0001:00036f76       _strcpy                    10037f76 f   msvcrt:MSVCR100.dll
 0001:00036f7c       ??1bad_cast@std@@UAE@XZ    10037f7c f   msvcrt:MSVCR100.dll
 0001:00036f82       ??0bad_cast@std@@QAE@ABV01@@Z 10037f82 f   msvcrt:MSVCR100.dll
 0001:00036f90       __allmul                   10037f90 f   msvcrt:llmul.obj
 0001:00037012       __CRT_INIT@12              10038012 f   msvcrt:crtdll.obj
 0001:00037332       __DllMainCRTStartup@12     10038332 f   msvcrt:crtdll.obj
 0001:00037355       ___report_gsfailure        10038355 f   msvcrt:gs_report.obj
 0001:0003745c       ?terminate@@YAXXZ          1003845c f   msvcrt:MSVCR100.dll
 0001:00037470       __SEH_prolog4              10038470 f   msvcrt:sehprolg4.obj
 0001:000374b5       __SEH_epilog4              100384b5 f   msvcrt:sehprolg4.obj
 0001:000374c9       __except_handler4          100384c9 f   msvcrt:chandler4gs.obj
 0001:000374ee       ___sse2_available_init     100384ee f   msvcrt:cpu_disp.obj
 0001:000374fe       __unlock                   100384fe f   msvcrt:MSVCR100.dll
 0001:00037504       ___dllonexit               10038504 f   msvcrt:MSVCR100.dll
 0001:0003750a       __lock                     1003850a f   msvcrt:MSVCR100.dll
 0001:00037510       ___clean_type_info_names   10038510 f   msvcrt:tncleanup.obj
 0001:0003751c       __RTC_Initialize           1003851c f   msvcrt:_initsect_.obj
 0001:00037542       __RTC_Terminate            10038542 f   msvcrt:_initsect_.obj
 0001:00037570       __ValidateImageBase        10038570 f   msvcrt:pesect.obj
 0001:000375b0       __FindPESection            100385b0 f   msvcrt:pesect.obj
 0001:00037600       __IsNonwritableInCurrentImage 10038600 f   msvcrt:pesect.obj
 0001:000376bc       __initterm                 100386bc f   msvcrt:MSVCR100.dll
 0001:000376c2       __initterm_e               100386c2 f   msvcrt:MSVCR100.dll
 0001:000376c8       __amsg_exit                100386c8 f   msvcrt:MSVCR100.dll
 0001:000376ce       ___CppXcptFilter           100386ce f   msvcrt:MSVCR100.dll
 0001:000376d4       ___security_init_cookie    100386d4 f   msvcrt:gs_support.obj
 0001:00037770       __crt_debugger_hook        10038770 f   msvcrt:MSVCR100.dll
 0001:00037776       ??1type_info@@UAE@XZ       10038776 f   msvcrt:MSVCR100.dll
 0001:00037776       ?_type_info_dtor_internal_method@type_info@@QAEXXZ 10038776 f   msvcrt:MSVCR100.dll
 0001:0003777c       __except_handler4_common   1003877c f   msvcrt:MSVCR100.dll
 0001:00037782       ___clean_type_info_names_internal 10038782 f   msvcrt:MSVCR100.dll
 0001:00037788       ?showmanyc@?$basic_streambuf@DU?$char_traits@D@std@@@std@@MAE_JXZ 10038788 f   msvcprt:MSVCP100.dll
 0001:0003778e       ?xsgetn@?$basic_streambuf@DU?$char_traits@D@std@@@std@@MAE_JPAD_J@Z 1003878e f   msvcprt:MSVCP100.dll
 0001:00037794       ?xsputn@?$basic_streambuf@DU?$char_traits@D@std@@@std@@MAE_JPBD_J@Z 10038794 f   msvcprt:MSVCP100.dll
 0001:0003779a       ??1_Fac_node@std@@QAE@XZ   1003879a f i msvcprt:locale0_implib.obj
 0001:000377b0       ?_Facet_Register@facet@locale@std@@CAXPAV123@@Z 100387b0 f   msvcprt:locale0_implib.obj
 0001:000377da       ??1_Fac_tidy_reg_t@std@@QAE@XZ 100387da f i msvcprt:locale0_implib.obj
 0001:0003782a       __EH_prolog3               1003882a f   msvcrt:ehprolg3.obj
 0001:0003785d       __EH_epilog3               1003885d f   msvcrt:ehprolg3.obj
 0002:00000000       __imp_?cfgFindNextSection@@YAPBDKAAPAU__POSITION@@@Z 1003c000     cfgEngine:CfgEngine.dll
 0002:00000004       __imp_?cfgGetKeyMemo@@YAPBDKPBD0@Z 1003c004     cfgEngine:CfgEngine.dll
 0002:00000008       __imp_?cfgOpenFile@@YAKPBD0@Z 1003c008     cfgEngine:CfgEngine.dll
 0002:0000000c       __imp_?cfgFindFirstSectionPosition@@YAPAU__POSITION@@K@Z 1003c00c     cfgEngine:CfgEngine.dll
 0002:00000010       __imp_?cfgClose@@YAXK@Z    1003c010     cfgEngine:CfgEngine.dll
 0002:00000014       __imp_?cfgFindFistKeyPosition@@YAPAU__POSITION@@KPBD@Z 1003c014     cfgEngine:CfgEngine.dll
 0002:00000018       __imp_?cfgFindNextKey@@YAXKPBDAAPAU__POSITION@@AAPBD2AAH@Z 1003c018     cfgEngine:CfgEngine.dll
 0002:0000001c       \177CfgEngine_NULL_THUNK_DATA 1003c01c     cfgEngine:CfgEngine.dll
 0002:00000020       __imp__CreateBrushIndirect@4 1003c020     gdi32:GDI32.dll
 0002:00000024       \177GDI32_NULL_THUNK_DATA  1003c024     gdi32:GDI32.dll
 0002:00000028       __imp__dklSQLEngineDelete  1003c028     HNlibSqlEngine:HNlibSqlEngine.dll
 0002:0000002c       __imp__dklSQLEngineCreate  1003c02c     HNlibSqlEngine:HNlibSqlEngine.dll
 0002:00000030       \177HNlibSqlEngine_NULL_THUNK_DATA 1003c030     HNlibSqlEngine:HNlibSqlEngine.dll
 0002:00000034       __imp__CreateEventA@16     1003c034     kernel32:KERNEL32.dll
 0002:00000038       __imp__InterlockedIncrement@4 1003c038     kernel32:KERNEL32.dll
 0002:0000003c       __imp__WaitForMultipleObjects@16 1003c03c     kernel32:KERNEL32.dll
 0002:00000040       __imp__InterlockedDecrement@4 1003c040     kernel32:KERNEL32.dll
 0002:00000044       __imp__GetLastError@0      1003c044     kernel32:KERNEL32.dll
 0002:00000048       __imp__GetSystemInfo@4     1003c048     kernel32:KERNEL32.dll
 0002:0000004c       __imp__TerminateThread@8   1003c04c     kernel32:KERNEL32.dll
 0002:00000050       __imp__Sleep@4             1003c050     kernel32:KERNEL32.dll
 0002:00000054       __imp__lstrlenA@4          1003c054     kernel32:KERNEL32.dll
 0002:00000058       __imp__SetEvent@4          1003c058     kernel32:KERNEL32.dll
 0002:0000005c       __imp__GetQueuedCompletionStatus@20 1003c05c     kernel32:KERNEL32.dll
 0002:00000060       __imp__PostQueuedCompletionStatus@16 1003c060     kernel32:KERNEL32.dll
 0002:00000064       __imp__CloseHandle@4       1003c064     kernel32:KERNEL32.dll
 0002:00000068       __imp__CreateIoCompletionPort@16 1003c068     kernel32:KERNEL32.dll
 0002:0000006c       __imp__WaitForSingleObject@8 1003c06c     kernel32:KERNEL32.dll
 0002:00000070       __imp__ResetEvent@4        1003c070     kernel32:KERNEL32.dll
 0002:00000074       __imp__LeaveCriticalSection@4 1003c074     kernel32:KERNEL32.dll
 0002:00000078       __imp__lstrcpyA@8          1003c078     kernel32:KERNEL32.dll
 0002:0000007c       __imp__GetModuleFileNameA@12 1003c07c     kernel32:KERNEL32.dll
 0002:00000080       __imp__EnterCriticalSection@4 1003c080     kernel32:KERNEL32.dll
 0002:00000084       __imp__GetModuleHandleA@4  1003c084     kernel32:KERNEL32.dll
 0002:00000088       __imp__GetDateFormatA@24   1003c088     kernel32:KERNEL32.dll
 0002:0000008c       __imp__GetTimeFormatA@24   1003c08c     kernel32:KERNEL32.dll
 0002:00000090       __imp__GetLocalTime@4      1003c090     kernel32:KERNEL32.dll
 0002:00000094       __imp__GetSystemDirectoryA@8 1003c094     kernel32:KERNEL32.dll
 0002:00000098       __imp__FindClose@4         1003c098     kernel32:KERNEL32.dll
 0002:0000009c       __imp__FindFirstFileA@8    1003c09c     kernel32:KERNEL32.dll
 0002:000000a0       __imp__SetCurrentDirectoryA@4 1003c0a0     kernel32:KERNEL32.dll
 0002:000000a4       __imp__GetCurrentDirectoryA@8 1003c0a4     kernel32:KERNEL32.dll
 0002:000000a8       __imp__TlsFree@4           1003c0a8     kernel32:KERNEL32.dll
 0002:000000ac       __imp__TlsGetValue@4       1003c0ac     kernel32:KERNEL32.dll
 0002:000000b0       __imp__TlsSetValue@8       1003c0b0     kernel32:KERNEL32.dll
 0002:000000b4       __imp__TlsAlloc@0          1003c0b4     kernel32:KERNEL32.dll
 0002:000000b8       __imp__DeleteFileA@4       1003c0b8     kernel32:KERNEL32.dll
 0002:000000bc       __imp__EncodePointer@4     1003c0bc     kernel32:KERNEL32.dll
 0002:000000c0       __imp__DecodePointer@4     1003c0c0     kernel32:KERNEL32.dll
 0002:000000c4       __imp__InterlockedExchange@8 1003c0c4     kernel32:KERNEL32.dll
 0002:000000c8       __imp__InterlockedCompareExchange@12 1003c0c8     kernel32:KERNEL32.dll
 0002:000000cc       __imp__TerminateProcess@8  1003c0cc     kernel32:KERNEL32.dll
 0002:000000d0       __imp__GetCurrentProcess@0 1003c0d0     kernel32:KERNEL32.dll
 0002:000000d4       __imp__UnhandledExceptionFilter@4 1003c0d4     kernel32:KERNEL32.dll
 0002:000000d8       __imp__SetUnhandledExceptionFilter@4 1003c0d8     kernel32:KERNEL32.dll
 0002:000000dc       __imp__IsDebuggerPresent@0 1003c0dc     kernel32:KERNEL32.dll
 0002:000000e0       __imp__IsProcessorFeaturePresent@4 1003c0e0     kernel32:KERNEL32.dll
 0002:000000e4       __imp__QueryPerformanceCounter@4 1003c0e4     kernel32:KERNEL32.dll
 0002:000000e8       __imp__GetTickCount@0      1003c0e8     kernel32:KERNEL32.dll
 0002:000000ec       __imp__GetCurrentThreadId@0 1003c0ec     kernel32:KERNEL32.dll
 0002:000000f0       __imp__GetCurrentProcessId@0 1003c0f0     kernel32:KERNEL32.dll
 0002:000000f4       __imp__GetSystemTimeAsFileTime@4 1003c0f4     kernel32:KERNEL32.dll
 0002:000000f8       __imp__DeleteCriticalSection@4 1003c0f8     kernel32:KERNEL32.dll
 0002:000000fc       __imp__OutputDebugStringA@4 1003c0fc     kernel32:KERNEL32.dll
 0002:00000100       __imp__InitializeCriticalSection@4 1003c100     kernel32:KERNEL32.dll
 0002:00000104       \177KERNEL32_NULL_THUNK_DATA 1003c104     kernel32:KERNEL32.dll
 0002:00000108       __imp_??1?$basic_ios@DU?$char_traits@D@std@@@std@@UAE@XZ 1003c108     msvcprt:MSVCP100.dll
 0002:0000010c       __imp_?get@?$basic_istream@DU?$char_traits@D@std@@@std@@QAEHXZ 1003c10c     msvcprt:MSVCP100.dll
 0002:00000110       __imp_?_Swap_all@_Container_base0@std@@QAEXAAU12@@Z 1003c110     msvcprt:MSVCP100.dll
 0002:00000114       __imp_?_Orphan_all@_Container_base0@std@@QAEXXZ 1003c114     msvcprt:MSVCP100.dll
 0002:00000118       __imp_?_Xlength_error@std@@YAXPBD@Z 1003c118     msvcprt:MSVCP100.dll
 0002:0000011c       __imp_?_Xout_of_range@std@@YAXPBD@Z 1003c11c     msvcprt:MSVCP100.dll
 0002:00000120       __imp_??1?$basic_istream@DU?$char_traits@D@std@@@std@@UAE@XZ 1003c120     msvcprt:MSVCP100.dll
 0002:00000124       __imp_?setstate@?$basic_ios@DU?$char_traits@D@std@@@std@@QAEXH_N@Z 1003c124     msvcprt:MSVCP100.dll
 0002:00000128       __imp_??0?$basic_ios@DU?$char_traits@D@std@@@std@@IAE@XZ 1003c128     msvcprt:MSVCP100.dll
 0002:0000012c       __imp_??1?$basic_streambuf@DU?$char_traits@D@std@@@std@@UAE@XZ 1003c12c     msvcprt:MSVCP100.dll
 0002:00000130       __imp_?showmanyc@?$basic_streambuf@DU?$char_traits@D@std@@@std@@MAE_JXZ 1003c130     msvcprt:MSVCP100.dll
 0002:00000134       __imp_?xsgetn@?$basic_streambuf@DU?$char_traits@D@std@@@std@@MAE_JPAD_J@Z 1003c134     msvcprt:MSVCP100.dll
 0002:00000138       __imp_?xsputn@?$basic_streambuf@DU?$char_traits@D@std@@@std@@MAE_JPBD_J@Z 1003c138     msvcprt:MSVCP100.dll
 0002:0000013c       __imp_?out@?$codecvt@DDH@std@@QBEHAAHPBD1AAPBDPAD3AAPAD@Z 1003c13c     msvcprt:MSVCP100.dll
 0002:00000140       __imp_?_Pninc@?$basic_streambuf@DU?$char_traits@D@std@@@std@@IAEPADXZ 1003c140     msvcprt:MSVCP100.dll
 0002:00000144       __imp_?epptr@?$basic_streambuf@DU?$char_traits@D@std@@@std@@IBEPADXZ 1003c144     msvcprt:MSVCP100.dll
 0002:00000148       __imp_?pptr@?$basic_streambuf@DU?$char_traits@D@std@@@std@@IBEPADXZ 1003c148     msvcprt:MSVCP100.dll
 0002:0000014c       __imp_?_Gndec@?$basic_streambuf@DU?$char_traits@D@std@@@std@@IAEPADXZ 1003c14c     msvcprt:MSVCP100.dll
 0002:00000150       __imp_?eback@?$basic_streambuf@DU?$char_traits@D@std@@@std@@IBEPADXZ 1003c150     msvcprt:MSVCP100.dll
 0002:00000154       __imp_?gptr@?$basic_streambuf@DU?$char_traits@D@std@@@std@@IBEPADXZ 1003c154     msvcprt:MSVCP100.dll
 0002:00000158       __imp_?egptr@?$basic_streambuf@DU?$char_traits@D@std@@@std@@IBEPADXZ 1003c158     msvcprt:MSVCP100.dll
 0002:0000015c       __imp_?in@?$codecvt@DDH@std@@QBEHAAHPBD1AAPBDPAD3AAPAD@Z 1003c15c     msvcprt:MSVCP100.dll
 0002:00000160       __imp_?_Gninc@?$basic_streambuf@DU?$char_traits@D@std@@@std@@IAEPADXZ 1003c160     msvcprt:MSVCP100.dll
 0002:00000164       __imp_?_BADOFF@std@@3_JB   1003c164     msvcprt:MSVCP100.dll
 0002:00000168       __imp_??0?$basic_streambuf@DU?$char_traits@D@std@@@std@@IAE@XZ 1003c168     msvcprt:MSVCP100.dll
 0002:0000016c       __imp_?getloc@?$basic_streambuf@DU?$char_traits@D@std@@@std@@QBE?AVlocale@2@XZ 1003c16c     msvcprt:MSVCP100.dll
 0002:00000170       __imp_?_Fiopen@std@@YAPAU_iobuf@@PBDHH@Z 1003c170     msvcprt:MSVCP100.dll
 0002:00000174       __imp_?_Init@?$basic_streambuf@DU?$char_traits@D@std@@@std@@IAEXPAPAD0PAH001@Z 1003c174     msvcprt:MSVCP100.dll
 0002:00000178       __imp_?_Init@?$basic_streambuf@DU?$char_traits@D@std@@@std@@IAEXXZ 1003c178     msvcprt:MSVCP100.dll
 0002:0000017c       __imp_?unshift@?$codecvt@DDH@std@@QBEHAAHPAD1AAPAD@Z 1003c17c     msvcprt:MSVCP100.dll
 0002:00000180       __imp_?always_noconv@codecvt_base@std@@QBE_NXZ 1003c180     msvcprt:MSVCP100.dll
 0002:00000184       __imp_?setg@?$basic_streambuf@DU?$char_traits@D@std@@@std@@IAEXPAD00@Z 1003c184     msvcprt:MSVCP100.dll
 0002:00000188       __imp_??1_Lockit@std@@QAE@XZ 1003c188     msvcprt:MSVCP100.dll
 0002:0000018c       __imp_?_Incref@facet@locale@std@@QAEXXZ 1003c18c     msvcprt:MSVCP100.dll
 0002:00000190       __imp_?_Getcat@?$codecvt@DDH@std@@SAIPAPBVfacet@locale@2@PBV42@@Z 1003c190     msvcprt:MSVCP100.dll
 0002:00000194       __imp_??Bid@locale@std@@QAEIXZ 1003c194     msvcprt:MSVCP100.dll
 0002:00000198       __imp_?id@?$codecvt@DDH@std@@2V0locale@2@A 1003c198     msvcprt:MSVCP100.dll
 0002:0000019c       __imp_??0_Lockit@std@@QAE@H@Z 1003c19c     msvcprt:MSVCP100.dll
 0002:000001a0       __imp_?_Decref@facet@locale@std@@QAEPAV123@XZ 1003c1a0     msvcprt:MSVCP100.dll
 0002:000001a4       __imp_?_Getgloballocale@locale@std@@CAPAV_Locimp@12@XZ 1003c1a4     msvcprt:MSVCP100.dll
 0002:000001a8       __imp_??6?$basic_ostream@DU?$char_traits@D@std@@@std@@QAEAAV01@P6AAAV01@AAV01@@Z@Z 1003c1a8     msvcprt:MSVCP100.dll
 0002:000001ac       __imp_?cout@std@@3V?$basic_ostream@DU?$char_traits@D@std@@@1@A 1003c1ac     msvcprt:MSVCP100.dll
 0002:000001b0       __imp_?endl@std@@YAAAV?$basic_ostream@DU?$char_traits@D@std@@@1@AAV21@@Z 1003c1b0     msvcprt:MSVCP100.dll
 0002:000001b4       __imp_?gcount@?$basic_istream@DU?$char_traits@D@std@@@std@@QBE_JXZ 1003c1b4     msvcprt:MSVCP100.dll
 0002:000001b8       __imp_??Bios_base@std@@QBEPAXXZ 1003c1b8     msvcprt:MSVCP100.dll
 0002:000001bc       __imp_?read@?$basic_istream@DU?$char_traits@D@std@@@std@@QAEAAV12@PAD_J@Z 1003c1bc     msvcprt:MSVCP100.dll
 0002:000001c0       __imp_?width@ios_base@std@@QAE_J_J@Z 1003c1c0     msvcprt:MSVCP100.dll
 0002:000001c4       __imp_?sputn@?$basic_streambuf@DU?$char_traits@D@std@@@std@@QAE_JPBD_J@Z 1003c1c4     msvcprt:MSVCP100.dll
 0002:000001c8       __imp_?sputc@?$basic_streambuf@DU?$char_traits@D@std@@@std@@QAEHD@Z 1003c1c8     msvcprt:MSVCP100.dll
 0002:000001cc       __imp_?rdbuf@?$basic_ios@DU?$char_traits@D@std@@@std@@QBEPAV?$basic_streambuf@DU?$char_traits@D@std@@@2@XZ 1003c1cc     msvcprt:MSVCP100.dll
 0002:000001d0       __imp_?fill@?$basic_ios@DU?$char_traits@D@std@@@std@@QBEDXZ 1003c1d0     msvcprt:MSVCP100.dll
 0002:000001d4       __imp_?flags@ios_base@std@@QBEHXZ 1003c1d4     msvcprt:MSVCP100.dll
 0002:000001d8       __imp_?width@ios_base@std@@QBE_JXZ 1003c1d8     msvcprt:MSVCP100.dll
 0002:000001dc       __imp_?flush@?$basic_ostream@DU?$char_traits@D@std@@@std@@QAEAAV12@XZ 1003c1dc     msvcprt:MSVCP100.dll
 0002:000001e0       __imp_?tie@?$basic_ios@DU?$char_traits@D@std@@@std@@QBEPAV?$basic_ostream@DU?$char_traits@D@std@@@2@XZ 1003c1e0     msvcprt:MSVCP100.dll
 0002:000001e4       __imp_?good@ios_base@std@@QBE_NXZ 1003c1e4     msvcprt:MSVCP100.dll
 0002:000001e8       __imp_?_Osfx@?$basic_ostream@DU?$char_traits@D@std@@@std@@QAEXXZ 1003c1e8     msvcprt:MSVCP100.dll
 0002:000001ec       __imp_?uncaught_exception@std@@YA_NXZ 1003c1ec     msvcprt:MSVCP100.dll
 0002:000001f0       __imp_??0?$basic_istream@DU?$char_traits@D@std@@@std@@QAE@PAV?$basic_streambuf@DU?$char_traits@D@std@@@1@_N@Z 1003c1f0     msvcprt:MSVCP100.dll
 0002:000001f4       \177MSVCP100_NULL_THUNK_DATA 1003c1f4     msvcprt:MSVCP100.dll
 0002:000001f8       __imp____clean_type_info_names_internal 1003c1f8     msvcrt:MSVCR100.dll
 0002:000001fc       __imp___except_handler4_common 1003c1fc     msvcrt:MSVCR100.dll
 0002:00000200       __imp_?_type_info_dtor_internal_method@type_info@@QAEXXZ 1003c200     msvcrt:MSVCR100.dll
 0002:00000204       __imp___crt_debugger_hook  1003c204     msvcrt:MSVCR100.dll
 0002:00000208       __imp____CppXcptFilter     1003c208     msvcrt:MSVCR100.dll
 0002:0000020c       __imp___amsg_exit          1003c20c     msvcrt:MSVCR100.dll
 0002:00000210       __imp___initterm_e         1003c210     msvcrt:MSVCR100.dll
 0002:00000214       __imp___initterm           1003c214     msvcrt:MSVCR100.dll
 0002:00000218       __imp___encoded_null       1003c218     msvcrt:MSVCR100.dll
 0002:0000021c       __imp___malloc_crt         1003c21c     msvcrt:MSVCR100.dll
 0002:00000220       __imp___onexit             1003c220     msvcrt:MSVCR100.dll
 0002:00000224       __imp___lock               1003c224     msvcrt:MSVCR100.dll
 0002:00000228       __imp____dllonexit         1003c228     msvcrt:MSVCR100.dll
 0002:0000022c       __imp___unlock             1003c22c     msvcrt:MSVCR100.dll
 0002:00000230       __imp_?terminate@@YAXXZ    1003c230     msvcrt:MSVCR100.dll
 0002:00000234       __imp__tolower             1003c234     msvcrt:MSVCR100.dll
 0002:00000238       __imp__strstr              1003c238     msvcrt:MSVCR100.dll
 0002:0000023c       __imp__strrchr             1003c23c     msvcrt:MSVCR100.dll
 0002:00000240       __imp__fopen               1003c240     msvcrt:MSVCR100.dll
 0002:00000244       __imp_??0bad_cast@std@@QAE@ABV01@@Z 1003c244     msvcrt:MSVCR100.dll
 0002:00000248       __imp_??1bad_cast@std@@UAE@XZ 1003c248     msvcrt:MSVCR100.dll
 0002:0000024c       __imp_??0bad_cast@std@@QAE@PBD@Z 1003c24c     msvcrt:MSVCR100.dll
 0002:00000250       __imp__fflush              1003c250     msvcrt:MSVCR100.dll
 0002:00000254       __imp__setvbuf             1003c254     msvcrt:MSVCR100.dll
 0002:00000258       __imp__fsetpos             1003c258     msvcrt:MSVCR100.dll
 0002:0000025c       __imp___fseeki64           1003c25c     msvcrt:MSVCR100.dll
 0002:00000260       __imp__fgetpos             1003c260     msvcrt:MSVCR100.dll
 0002:00000264       __imp__ungetc              1003c264     msvcrt:MSVCR100.dll
 0002:00000268       __imp__fputc               1003c268     msvcrt:MSVCR100.dll
 0002:0000026c       __imp__fwrite              1003c26c     msvcrt:MSVCR100.dll
 0002:00000270       __imp___unlock_file        1003c270     msvcrt:MSVCR100.dll
 0002:00000274       __imp___lock_file          1003c274     msvcrt:MSVCR100.dll
 0002:00000278       __imp__strcpy              1003c278     msvcrt:MSVCR100.dll
 0002:0000027c       __imp__memchr              1003c27c     msvcrt:MSVCR100.dll
 0002:00000280       __imp__memcmp              1003c280     msvcrt:MSVCR100.dll
 0002:00000284       __imp__vsprintf_s          1003c284     msvcrt:MSVCR100.dll
 0002:00000288       __imp__strtok              1003c288     msvcrt:MSVCR100.dll
 0002:0000028c       __imp__malloc              1003c28c     msvcrt:MSVCR100.dll
 0002:00000290       __imp__free                1003c290     msvcrt:MSVCR100.dll
 0002:00000294       __imp__memcpy_s            1003c294     msvcrt:MSVCR100.dll
 0002:00000298       __imp__memcpy              1003c298     msvcrt:MSVCR100.dll
 0002:0000029c       __imp____CxxFrameHandler3  1003c29c     msvcrt:MSVCR100.dll
 0002:000002a0       __imp__strlen              1003c2a0     msvcrt:MSVCR100.dll
 0002:000002a4       __imp__memmove             1003c2a4     msvcrt:MSVCR100.dll
 0002:000002a8       __imp__memset              1003c2a8     msvcrt:MSVCR100.dll
 0002:000002ac       __imp___CxxThrowException@8 1003c2ac     msvcrt:MSVCR100.dll
 0002:000002b0       __imp_??0exception@std@@QAE@ABV01@@Z 1003c2b0     msvcrt:MSVCR100.dll
 0002:000002b4       __imp_??0exception@std@@QAE@ABQBD@Z 1003c2b4     msvcrt:MSVCR100.dll
 0002:000002b8       __imp_?what@exception@std@@UBEPBDXZ 1003c2b8     msvcrt:MSVCR100.dll
 0002:000002bc       __imp_??1exception@std@@UAE@XZ 1003c2bc     msvcrt:MSVCR100.dll
 0002:000002c0       __imp__strncmp             1003c2c0     msvcrt:MSVCR100.dll
 0002:000002c4       __imp__isalpha             1003c2c4     msvcrt:MSVCR100.dll
 0002:000002c8       __imp__isdigit             1003c2c8     msvcrt:MSVCR100.dll
 0002:000002cc       __imp__isspace             1003c2cc     msvcrt:MSVCR100.dll
 0002:000002d0       __imp__strchr              1003c2d0     msvcrt:MSVCR100.dll
 0002:000002d4       __imp___purecall           1003c2d4     msvcrt:MSVCR100.dll
 0002:000002d8       __imp__fclose              1003c2d8     msvcrt:MSVCR100.dll
 0002:000002dc       __imp__fopen_s             1003c2dc     msvcrt:MSVCR100.dll
 0002:000002e0       __imp__fread               1003c2e0     msvcrt:MSVCR100.dll
 0002:000002e4       __imp__ftell               1003c2e4     msvcrt:MSVCR100.dll
 0002:000002e8       __imp__ferror              1003c2e8     msvcrt:MSVCR100.dll
 0002:000002ec       __imp__fgetc               1003c2ec     msvcrt:MSVCR100.dll
 0002:000002f0       __imp__fseek               1003c2f0     msvcrt:MSVCR100.dll
 0002:000002f4       __imp__itoa                1003c2f4     msvcrt:MSVCR100.dll
 0002:000002f4       __imp___itoa               1003c2f4     msvcrt:MSVCR100.dll
 0002:000002f8       __imp__vfprintf            1003c2f8     msvcrt:MSVCR100.dll
 0002:000002fc       __imp___beginthreadex      1003c2fc     msvcrt:MSVCR100.dll
 0002:00000300       __imp___endthreadex        1003c300     msvcrt:MSVCR100.dll
 0002:00000304       __imp__atoi                1003c304     msvcrt:MSVCR100.dll
 0002:00000308       __imp__strcmp              1003c308     msvcrt:MSVCR100.dll
 0002:0000030c       __imp__strcpy_s            1003c30c     msvcrt:MSVCR100.dll
 0002:00000310       __imp___time64             1003c310     msvcrt:MSVCR100.dll
 0002:00000314       __imp___localtime64_s      1003c314     msvcrt:MSVCR100.dll
 0002:00000318       __imp__ceil                1003c318     msvcrt:MSVCR100.dll
 0002:0000031c       __imp__sprintf             1003c31c     msvcrt:MSVCR100.dll
 0002:00000320       __imp__fprintf             1003c320     msvcrt:MSVCR100.dll
 0002:00000324       \177MSVCR100_NULL_THUNK_DATA 1003c324     msvcrt:MSVCR100.dll
 0002:00000328       __imp__VariantTimeToSystemTime@12 1003c328     oleaut32:OLEAUT32.dll
 0002:0000032c       __imp__SystemTimeToVariantTime@8 1003c32c     oleaut32:OLEAUT32.dll
 0002:00000330       \177OLEAUT32_NULL_THUNK_DATA 1003c330     oleaut32:OLEAUT32.dll
 0002:00000334       __imp__SetTimer@16         1003c334     user32:USER32.dll
 0002:00000338       __imp__KillTimer@8         1003c338     user32:USER32.dll
 0002:0000033c       __imp__DispatchMessageA@4  1003c33c     user32:USER32.dll
 0002:00000340       __imp__TranslateMessage@4  1003c340     user32:USER32.dll
 0002:00000344       __imp__TranslateAcceleratorA@12 1003c344     user32:USER32.dll
 0002:00000348       __imp__GetMessageA@16      1003c348     user32:USER32.dll
 0002:0000034c       __imp__IsWindow@4          1003c34c     user32:USER32.dll
 0002:00000350       __imp__RegisterClassA@4    1003c350     user32:USER32.dll
 0002:00000354       __imp__DefWindowProcA@16   1003c354     user32:USER32.dll
 0002:00000358       __imp__PostQuitMessage@4   1003c358     user32:USER32.dll
 0002:0000035c       __imp__DestroyWindow@4     1003c35c     user32:USER32.dll
 0002:00000360       __imp__GetWindowLongA@8    1003c360     user32:USER32.dll
 0002:00000364       __imp__SetWindowLongA@12   1003c364     user32:USER32.dll
 0002:00000368       __imp__SendMessageA@16     1003c368     user32:USER32.dll
 0002:0000036c       __imp__EnableWindow@8      1003c36c     user32:USER32.dll
 0002:00000370       __imp__CreateWindowExA@48  1003c370     user32:USER32.dll
 0002:00000374       __imp__wsprintfA           1003c374     user32:USER32.dll
 0002:00000378       \177USER32_NULL_THUNK_DATA 1003c378     user32:USER32.dll
 0002:0000037c       __imp__WSAAccept@20        1003c37c     Ws2_32:WS2_32.dll
 0002:00000380       __imp__WSAGetLastError@0   1003c380     Ws2_32:WS2_32.dll
 0002:00000384       __imp__sendto@24           1003c384     Ws2_32:WS2_32.dll
 0002:00000388       __imp__WSACleanup@0        1003c388     Ws2_32:WS2_32.dll
 0002:0000038c       __imp__WSAStartup@8        1003c38c     Ws2_32:WS2_32.dll
 0002:00000390       __imp__gethostname@8       1003c390     Ws2_32:WS2_32.dll
 0002:00000394       __imp__inet_ntoa@4         1003c394     Ws2_32:WS2_32.dll
 0002:00000398       __imp__WSARecv@28          1003c398     Ws2_32:WS2_32.dll
 0002:0000039c       __imp__WSASend@28          1003c39c     Ws2_32:WS2_32.dll
 0002:000003a0       __imp__send@16             1003c3a0     Ws2_32:WS2_32.dll
 0002:000003a4       __imp__socket@12           1003c3a4     Ws2_32:WS2_32.dll
 0002:000003a8       __imp__WSAAsyncSelect@16   1003c3a8     Ws2_32:WS2_32.dll
 0002:000003ac       __imp__connect@12          1003c3ac     Ws2_32:WS2_32.dll
 0002:000003b0       __imp__inet_addr@4         1003c3b0     Ws2_32:WS2_32.dll
 0002:000003b4       __imp__gethostbyname@4     1003c3b4     Ws2_32:WS2_32.dll
 0002:000003b8       __imp__recv@16             1003c3b8     Ws2_32:WS2_32.dll
 0002:000003bc       __imp__listen@8            1003c3bc     Ws2_32:WS2_32.dll
 0002:000003c0       __imp__htons@4             1003c3c0     Ws2_32:WS2_32.dll
 0002:000003c4       __imp__bind@12             1003c3c4     Ws2_32:WS2_32.dll
 0002:000003c8       __imp__closesocket@4       1003c3c8     Ws2_32:WS2_32.dll
 0002:000003cc       __imp__WSASocketA@24       1003c3cc     Ws2_32:WS2_32.dll
 0002:000003d0       \177WS2_32_NULL_THUNK_DATA 1003c3d0     Ws2_32:WS2_32.dll
 0002:000003d4       __imp_?OnWndMsg@CWnd@@MAEHIIJPAJ@Z 1003c3d4     mfc100:mfc100.dll
 0002:000003d8       __imp_?WindowProc@CWnd@@MAEJIIJ@Z 1003c3d8     mfc100:mfc100.dll
 0002:000003dc       __imp_?OnAmbientProperty@CWnd@@UAEHPAVCOleControlSite@@JPAUtagVARIANT@@@Z 1003c3dc     mfc100:mfc100.dll
 0002:000003e0       __imp_?PreTranslateMessage@CWnd@@UAEHPAUtagMSG@@@Z 1003c3e0     mfc100:mfc100.dll
 0002:000003e4       __imp_?GetSuperWndProcAddr@CWnd@@MAEPAP6GJPAUHWND__@@IIJ@ZXZ 1003c3e4     mfc100:mfc100.dll
 0002:000003e8       __imp_?OnNotify@CWnd@@MAEHIJPAJ@Z 1003c3e8     mfc100:mfc100.dll
 0002:000003ec       __imp_?OnCommand@CWnd@@MAEHIJ@Z 1003c3ec     mfc100:mfc100.dll
 0002:000003f0       __imp_?CreateAccessibleProxy@CWnd@@UAEJIJPAJ@Z 1003c3f0     mfc100:mfc100.dll
 0002:000003f4       __imp_?SetProxy@CWnd@@UAEJPAUIAccessibleProxy@@@Z 1003c3f4     mfc100:mfc100.dll
 0002:000003f8       __imp_?put_accValue@CWnd@@UAEJUtagVARIANT@@PA_W@Z 1003c3f8     mfc100:mfc100.dll
 0002:000003fc       __imp_?put_accName@CWnd@@UAEJUtagVARIANT@@PA_W@Z 1003c3fc     mfc100:mfc100.dll
 0002:00000400       __imp_?accDoDefaultAction@CWnd@@UAEJUtagVARIANT@@@Z 1003c400     mfc100:mfc100.dll
 0002:00000404       __imp_?accHitTest@CWnd@@UAEJJJPAUtagVARIANT@@@Z 1003c404     mfc100:mfc100.dll
 0002:00000408       __imp_?accNavigate@CWnd@@UAEJJUtagVARIANT@@PAU2@@Z 1003c408     mfc100:mfc100.dll
 0002:0000040c       __imp_?accLocation@CWnd@@UAEJPAJ000UtagVARIANT@@@Z 1003c40c     mfc100:mfc100.dll
 0002:00000410       __imp_?accSelect@CWnd@@UAEJJUtagVARIANT@@@Z 1003c410     mfc100:mfc100.dll
 0002:00000414       __imp_?get_accDefaultAction@CWnd@@UAEJUtagVARIANT@@PAPA_W@Z 1003c414     mfc100:mfc100.dll
 0002:00000418       __imp_?get_accSelection@CWnd@@UAEJPAUtagVARIANT@@@Z 1003c418     mfc100:mfc100.dll
 0002:0000041c       __imp_?get_accFocus@CWnd@@UAEJPAUtagVARIANT@@@Z 1003c41c     mfc100:mfc100.dll
 0002:00000420       __imp_?get_accKeyboardShortcut@CWnd@@UAEJUtagVARIANT@@PAPA_W@Z 1003c420     mfc100:mfc100.dll
 0002:00000424       __imp_?get_accHelpTopic@CWnd@@UAEJPAPA_WUtagVARIANT@@PAJ@Z 1003c424     mfc100:mfc100.dll
 0002:00000428       __imp_?get_accHelp@CWnd@@UAEJUtagVARIANT@@PAPA_W@Z 1003c428     mfc100:mfc100.dll
 0002:0000042c       __imp_?get_accState@CWnd@@UAEJUtagVARIANT@@PAU2@@Z 1003c42c     mfc100:mfc100.dll
 0002:00000430       __imp_?get_accRole@CWnd@@UAEJUtagVARIANT@@PAU2@@Z 1003c430     mfc100:mfc100.dll
 0002:00000434       __imp_?get_accDescription@CWnd@@UAEJUtagVARIANT@@PAPA_W@Z 1003c434     mfc100:mfc100.dll
 0002:00000438       __imp_?get_accValue@CWnd@@UAEJUtagVARIANT@@PAPA_W@Z 1003c438     mfc100:mfc100.dll
 0002:0000043c       __imp_?get_accName@CWnd@@UAEJUtagVARIANT@@PAPA_W@Z 1003c43c     mfc100:mfc100.dll
 0002:00000440       __imp_?get_accChild@CWnd@@UAEJUtagVARIANT@@PAPAUIDispatch@@@Z 1003c440     mfc100:mfc100.dll
 0002:00000444       __imp_?get_accChildCount@CWnd@@UAEJPAJ@Z 1003c444     mfc100:mfc100.dll
 0002:00000448       __imp_?get_accParent@CWnd@@UAEJPAPAUIDispatch@@@Z 1003c448     mfc100:mfc100.dll
 0002:0000044c       __imp_?EnsureStdObj@CWnd@@UAEJXZ 1003c44c     mfc100:mfc100.dll
 0002:00000450       __imp_?OnDrawIconicThumbnailOrLivePreview@CWnd@@UAEXAAVCDC@@VCRect@@VCSize@@HAAH@Z 1003c450     mfc100:mfc100.dll
 0002:00000454       __imp_?EndModalLoop@CWnd@@UAEXH@Z 1003c454     mfc100:mfc100.dll
 0002:00000458       __imp_?ContinueModal@CWnd@@UAEHXZ 1003c458     mfc100:mfc100.dll
 0002:0000045c       __imp_?WinHelpInternal@CWnd@@UAEXKI@Z 1003c45c     mfc100:mfc100.dll
 0002:00000460       __imp_?HtmlHelpA@CWnd@@UAEXKI@Z 1003c460     mfc100:mfc100.dll
 0002:00000464       __imp_?WinHelpA@CWnd@@UAEXKI@Z 1003c464     mfc100:mfc100.dll
 0002:00000468       __imp_?GetScrollBarCtrl@CWnd@@UBEPAVCScrollBar@@H@Z 1003c468     mfc100:mfc100.dll
 0002:0000046c       __imp_?OnToolHitTest@CWnd@@UBEHVCPoint@@PAUtagTOOLINFOA@@@Z 1003c46c     mfc100:mfc100.dll
 0002:00000470       __imp_?SetMenu@CWnd@@UAEHPAVCMenu@@@Z 1003c470     mfc100:mfc100.dll
 0002:00000474       __imp_?GetMenu@CWnd@@UBEPAVCMenu@@XZ 1003c474     mfc100:mfc100.dll
 0002:00000478       __imp_?CalcWindowRect@CWnd@@UAEXPAUtagRECT@@I@Z 1003c478     mfc100:mfc100.dll
 0002:0000047c       __imp_?PreCreateWindow@CWnd@@UAEHAAUtagCREATESTRUCTA@@@Z 1003c47c     mfc100:mfc100.dll
 0002:00000480       __imp_?DestroyWindow@CWnd@@UAEHXZ 1003c480     mfc100:mfc100.dll
 0002:00000484       __imp_?CreateEx@CWnd@@UAEHKPBD0KHHHHPAUHWND__@@PAUHMENU__@@PAX@Z 1003c484     mfc100:mfc100.dll
 0002:00000488       __imp_?CreateEx@CWnd@@UAEHKPBD0KABUtagRECT@@PAV1@IPAX@Z 1003c488     mfc100:mfc100.dll
 0002:0000048c       __imp_?DefWindowProcA@CWnd@@MAEJIIJ@Z 1003c48c     mfc100:mfc100.dll
 0002:00000490       __imp_?PreSubclassWindow@CWnd@@UAEXXZ 1003c490     mfc100:mfc100.dll
 0002:00000494       __imp_?GetConnectionHook@CCmdTarget@@MAEPAUIConnectionPoint@@ABU_GUID@@@Z 1003c494     mfc100:mfc100.dll
 0002:00000498       __imp_?GetExtraConnectionPoints@CCmdTarget@@MAEHPAVCPtrArray@@@Z 1003c498     mfc100:mfc100.dll
 0002:0000049c       __imp_?GetInterfaceHook@CCmdTarget@@UAEPAUIUnknown@@PBX@Z 1003c49c     mfc100:mfc100.dll
 0002:000004a0       __imp_?OnCreateAggregates@CCmdTarget@@UAEHXZ 1003c4a0     mfc100:mfc100.dll
 0002:000004a4       __imp_?PostNcDestroy@CWnd@@MAEXXZ 1003c4a4     mfc100:mfc100.dll
 0002:000004a8       __imp_?OnChildNotify@CWnd@@MAEHIIJPAJ@Z 1003c4a8     mfc100:mfc100.dll
 0002:000004ac       __imp_?OnTouchInputs@CWnd@@MAEHIPAUtagTOUCHINPUT@@@Z 1003c4ac     mfc100:mfc100.dll
 0002:000004b0       __imp_?OnTouchInput@CWnd@@MAEHVCPoint@@HHPAUtagTOUCHINPUT@@@Z 1003c4b0     mfc100:mfc100.dll
 0002:000004b4       __imp_?GetGestureStatus@CWnd@@MAEKVCPoint@@@Z 1003c4b4     mfc100:mfc100.dll
 0002:000004b8       __imp_?OnGestureZoom@CWnd@@MAEHVCPoint@@J@Z 1003c4b8     mfc100:mfc100.dll
 0002:000004bc       __imp_?OnGesturePan@CWnd@@MAEHVCPoint@@0@Z 1003c4bc     mfc100:mfc100.dll
 0002:000004c0       __imp_?OnGestureRotate@CWnd@@MAEHVCPoint@@N@Z 1003c4c0     mfc100:mfc100.dll
 0002:000004c4       __imp_?OnGestureTwoFingerTap@CWnd@@MAEHVCPoint@@@Z 1003c4c4     mfc100:mfc100.dll
 0002:000004c8       __imp_?OnGesturePressAndTap@CWnd@@MAEHVCPoint@@J@Z 1003c4c8     mfc100:mfc100.dll
 0002:000004cc       __imp_?CheckAutoCenter@CWnd@@UAEHXZ 1003c4cc     mfc100:mfc100.dll
 0002:000004d0       __imp_?IsFrameWnd@CWnd@@UBEHXZ 1003c4d0     mfc100:mfc100.dll
 0002:000004d4       __imp_?CreateControlContainer@CWnd@@MAEHPAPAVCOleControlContainer@@@Z 1003c4d4     mfc100:mfc100.dll
 0002:000004d8       __imp_?CreateControlSite@CWnd@@MAEHPAVCOleControlContainer@@PAPAVCOleControlSite@@IABU_GUID@@@Z 1003c4d8     mfc100:mfc100.dll
 0002:000004dc       __imp_?SetOccDialogInfo@CWnd@@MAEHPAU_AFX_OCC_DIALOG_INFO@@@Z 1003c4dc     mfc100:mfc100.dll
 0002:000004e0       __imp_?GetOccDialogInfo@CWnd@@MAEPAU_AFX_OCC_DIALOG_INFO@@XZ 1003c4e0     mfc100:mfc100.dll
 0002:000004e4       __imp_?AfxGetThread@@YGPAVCWinThread@@XZ 1003c4e4     mfc100:mfc100.dll
 0002:000004e8       __imp_?GetRuntimeClass@CObject@@UBEPAUCRuntimeClass@@XZ 1003c4e8     mfc100:mfc100.dll
 0002:000004ec       __imp_?GetEventSinkMap@CCmdTarget@@MBEPBUAFX_EVENTSINKMAP@@XZ 1003c4ec     mfc100:mfc100.dll
 0002:000004f0       __imp_?GetInterfaceMap@CWnd@@MBEPBUAFX_INTERFACEMAP@@XZ 1003c4f0     mfc100:mfc100.dll
 0002:000004f4       __imp_?AfxThrowInvalidArgException@@YGXXZ 1003c4f4     mfc100:mfc100.dll
 0002:000004f8       __imp_?ReadCount@CArchive@@QAEKXZ 1003c4f8     mfc100:mfc100.dll
 0002:000004fc       __imp_?WriteCount@CArchive@@QAEXK@Z 1003c4fc     mfc100:mfc100.dll
 0002:00000500       __imp_?FreeDataChain@CPlex@@QAEXXZ 1003c500     mfc100:mfc100.dll
 0002:00000504       __imp_?Create@CPlex@@SGPAU1@AAPAU1@II@Z 1003c504     mfc100:mfc100.dll
 0002:00000508       __imp_?Write@CArchive@@QAEXPBXI@Z 1003c508     mfc100:mfc100.dll
 0002:0000050c       __imp_?AfxThrowArchiveException@@YGXHPBD@Z 1003c50c     mfc100:mfc100.dll
 0002:00000510       __imp_?GetConnectionMap@CCmdTarget@@MBEPBUAFX_CONNECTIONMAP@@XZ 1003c510     mfc100:mfc100.dll
 0002:00000514       __imp_?GetDispatchMap@CCmdTarget@@MBEPBUAFX_DISPMAP@@XZ 1003c514     mfc100:mfc100.dll
 0002:00000518       __imp_?GetCommandMap@CCmdTarget@@MBEPBUAFX_OLECMDMAP@@XZ 1003c518     mfc100:mfc100.dll
 0002:0000051c       __imp_?GetTypeLib@CCmdTarget@@UAEJKPAPAUITypeLib@@@Z 1003c51c     mfc100:mfc100.dll
 0002:00000520       __imp_?GetTypeLibCache@CCmdTarget@@UAEPAVCTypeLibCache@@XZ 1003c520     mfc100:mfc100.dll
 0002:00000524       __imp_?GetTypeInfoCount@CCmdTarget@@UAEIXZ 1003c524     mfc100:mfc100.dll
 0002:00000528       __imp_?GetDispatchIID@CCmdTarget@@UAEHPAU_GUID@@@Z 1003c528     mfc100:mfc100.dll
 0002:0000052c       __imp_?IsInvokeAllowed@CCmdTarget@@UAEHJ@Z 1003c52c     mfc100:mfc100.dll
 0002:00000530       __imp_?OnFinalRelease@CWnd@@UAEXXZ 1003c530     mfc100:mfc100.dll
 0002:00000534       __imp_?OnCmdMsg@CCmdTarget@@UAEHIHPAXPAUAFX_CMDHANDLERINFO@@@Z 1003c534     mfc100:mfc100.dll
 0002:00000538       __imp_?GetRuntimeClass@CWnd@@UBEPAUCRuntimeClass@@XZ 1003c538     mfc100:mfc100.dll
 0002:0000053c       __imp_??0CWnd@@QAE@XZ      1003c53c     mfc100:mfc100.dll
 0002:00000540       __imp_??1CWnd@@UAE@XZ      1003c540     mfc100:mfc100.dll
 0002:00000544       __imp_?GetThisMessageMap@CWnd@@KGPBUAFX_MSGMAP@@XZ 1003c544     mfc100:mfc100.dll
 0002:00000548       __imp_?AfxThrowMemoryException@@YGXXZ 1003c548     mfc100:mfc100.dll
 0002:0000054c       __imp_?AfxThrowOleException@@YGXJ@Z 1003c54c     mfc100:mfc100.dll
 0002:00000550       __imp_?GetManager@?$CStringT@DV?$StrTraitMFC_DLL@DV?$ChTraitsCRT@D@ATL@@@@@ATL@@QBEPAUIAtlStringMgr@2@XZ 1003c550     mfc100:mfc100.dll
 0002:00000554       __imp_??0?$CStringT@DV?$StrTraitMFC_DLL@DV?$ChTraitsCRT@D@ATL@@@@@ATL@@QAE@PAUIAtlStringMgr@1@@Z 1003c554     mfc100:mfc100.dll
 0002:00000558       __imp_?GetLength@?$CSimpleStringT@D$00@ATL@@QBEHXZ 1003c558     mfc100:mfc100.dll
 0002:0000055c       __imp_?Concatenate@?$CSimpleStringT@D$00@ATL@@KAXAAV12@PBDH1H@Z 1003c55c     mfc100:mfc100.dll
 0002:00000560       __imp_??0?$CStringT@DV?$StrTraitMFC_DLL@DV?$ChTraitsCRT@D@ATL@@@@@ATL@@QAE@ABV01@@Z 1003c560     mfc100:mfc100.dll
 0002:00000564       __imp_?AfxMessageBox@@YGHPBDII@Z 1003c564     mfc100:mfc100.dll
 0002:00000568       __imp_??4?$CStringT@DV?$StrTraitMFC_DLL@DV?$ChTraitsCRT@D@ATL@@@@@ATL@@QAEAAV01@PBD@Z 1003c568     mfc100:mfc100.dll
 0002:0000056c       __imp_??0?$CStringT@DV?$StrTraitMFC_DLL@DV?$ChTraitsCRT@D@ATL@@@@@ATL@@QAE@PBD@Z 1003c56c     mfc100:mfc100.dll
 0002:00000570       __imp_??B?$CSimpleStringT@D$00@ATL@@QBEPBDXZ 1003c570     mfc100:mfc100.dll
 0002:00000574       __imp_?Format@?$CStringT@DV?$StrTraitMFC_DLL@DV?$ChTraitsCRT@D@ATL@@@@@ATL@@QAAXPBDZZ 1003c574     mfc100:mfc100.dll
 0002:00000578       __imp_??4?$CStringT@DV?$StrTraitMFC_DLL@DV?$ChTraitsCRT@D@ATL@@@@@ATL@@QAEAAV01@ABV01@@Z 1003c578     mfc100:mfc100.dll
 0002:0000057c       __imp_??0CEvent@@QAE@HHPBDPAU_SECURITY_ATTRIBUTES@@@Z 1003c57c     mfc100:mfc100.dll
 0002:00000580       __imp_??1CEvent@@UAE@XZ    1003c580     mfc100:mfc100.dll
 0002:00000584       __imp_??1?$CStringT@DV?$StrTraitMFC_DLL@DV?$ChTraitsCRT@D@ATL@@@@@ATL@@QAE@XZ 1003c584     mfc100:mfc100.dll
 0002:00000588       __imp_??0?$CStringT@DV?$StrTraitMFC_DLL@DV?$ChTraitsCRT@D@ATL@@@@@ATL@@QAE@XZ 1003c588     mfc100:mfc100.dll
 0002:0000058c       __imp_?AfxInitExtensionModule@@YGHAAUAFX_EXTENSION_MODULE@@PAUHINSTANCE__@@@Z 1003c58c     mfc100:mfc100.dll
 0002:00000590       __imp_??0CDynLinkLibrary@@QAE@AAUAFX_EXTENSION_MODULE@@H@Z 1003c590     mfc100:mfc100.dll
 0002:00000594       __imp_?AfxTermExtensionModule@@YGXAAUAFX_EXTENSION_MODULE@@H@Z 1003c594     mfc100:mfc100.dll
 0002:00000598       __imp_?AfxGetModuleState@@YGPAVAFX_MODULE_STATE@@XZ 1003c598     mfc100:mfc100.dll
 0002:0000059c       __imp_??_U@YAPAXI@Z        1003c59c     mfc100:mfc100.dll
 0002:000005a0       __imp_??_V@YAXPAX@Z        1003c5a0     mfc100:mfc100.dll
 0002:000005a4       __imp_??2@YAPAXI@Z         1003c5a4     mfc100:mfc100.dll
 0002:000005a8       __imp_??3@YAXPAX@Z         1003c5a8     mfc100:mfc100.dll
 0002:000005ac       __imp_?Read@CArchive@@QAEIPAXI@Z 1003c5ac     mfc100:mfc100.dll
 0002:000005b0       __imp_??Y?$CStringT@DV?$StrTraitMFC_DLL@DV?$ChTraitsCRT@D@ATL@@@@@ATL@@QAEAAV01@PBD@Z 1003c5b0     mfc100:mfc100.dll
 0002:000005b4       __imp_?Left@?$CStringT@DV?$StrTraitMFC_DLL@DV?$ChTraitsCRT@D@ATL@@@@@ATL@@QBE?AV12@H@Z 1003c5b4     mfc100:mfc100.dll
 0002:000005b8       __imp_?ReverseFind@?$CStringT@DV?$StrTraitMFC_DLL@DV?$ChTraitsCRT@D@ATL@@@@@ATL@@QBEHD@Z 1003c5b8     mfc100:mfc100.dll
 0002:000005bc       __imp_?GetBuffer@?$CSimpleStringT@D$00@ATL@@QAEPADXZ 1003c5bc     mfc100:mfc100.dll
 0002:000005c0       __imp_?Compare@?$CStringT@DV?$StrTraitMFC_DLL@DV?$ChTraitsCRT@D@ATL@@@@@ATL@@QBEHPBD@Z 1003c5c0     mfc100:mfc100.dll
 0002:000005c4       __imp_?SetSize@CPtrArray@@QAEXHH@Z 1003c5c4     mfc100:mfc100.dll
 0002:000005c8       __imp_?RemoveAt@CPtrArray@@QAEXHH@Z 1003c5c8     mfc100:mfc100.dll
 0002:000005cc       __imp_?SetAtGrow@CPtrArray@@QAEXHPAX@Z 1003c5cc     mfc100:mfc100.dll
 0002:000005d0       __imp_??0CPtrArray@@QAE@XZ 1003c5d0     mfc100:mfc100.dll
 0002:000005d4       __imp_??1CPtrArray@@UAE@XZ 1003c5d4     mfc100:mfc100.dll
 0002:000005d8       __imp_?Delete@CException@@QAEXXZ 1003c5d8     mfc100:mfc100.dll
 0002:000005dc       __imp_??1CFile@@UAE@XZ     1003c5dc     mfc100:mfc100.dll
 0002:000005e0       __imp_?Close@CFile@@UAEXXZ 1003c5e0     mfc100:mfc100.dll
 0002:000005e4       __imp_?Write@CFile@@UAEXPBXI@Z 1003c5e4     mfc100:mfc100.dll
 0002:000005e8       __imp_?Open@CFile@@UAEHPBDIPAVCFileException@@@Z 1003c5e8     mfc100:mfc100.dll
 0002:000005ec       __imp_??0CFile@@QAE@XZ     1003c5ec     mfc100:mfc100.dll
 0002:000005f0       __imp_?Create@CWnd@@UAEHPBD0KABUtagRECT@@PAV1@IPAUCCreateContext@@@Z 1003c5f0     mfc100:mfc100.dll
 0002:000005f4       \177mfc100_NULL_THUNK_DATA 1003c5f4     mfc100:mfc100.dll
 0002:000005f8       __imp__OleRun@4            1003c5f8     ole32:ole32.dll
 0002:000005fc       __imp__CoCreateInstance@20 1003c5fc     ole32:ole32.dll
 0002:00000600       \177ole32_NULL_THUNK_DATA  1003c600     ole32:ole32.dll
 0002:00000604       ___xc_a                    1003c604     msvcrt:cinitexe.obj
 0002:00000634       ___xc_z                    1003c634     msvcrt:cinitexe.obj
 0002:00000638       ___xi_a                    1003c638     msvcrt:cinitexe.obj
 0002:00000644       ___xi_z                    1003c644     msvcrt:cinitexe.obj
 0002:00000738       ??_C@_01NEMOKFLO@?$DN?$AA@ 1003c738     Base64.obj
 0002:0000073c       ??_C@_02EGOFBIJA@?$DN?$DN?$AA@ 1003c73c     Base64.obj
 0002:00000740       ??_C@_02PCIJFNDE@?$AN?6?$AA@ 1003c740     Base64.obj
 0002:00000744       ?npos@?$basic_string@DU?$char_traits@D@std@@V?$allocator@D@2@@std@@2IB 1003c744     Base64.obj
 0002:00000748       ??_C@_0BI@CFPLBAOH@invalid?5string?5position?$AA@ 1003c748     Base64.obj
 0002:00000760       ??_C@_0BA@JFNIOLAK@string?5too?5long?$AA@ 1003c760     Base64.obj
 0002:00000774       ??_7bad_alloc@std@@6B@     1003c774     Base64.obj
 0002:0000077c       ??_C@_01LOCGONAA@?$AA?$AA@ 1003c77c     sha1.obj
 0002:00000780       ??_C@_01IFKFHFEL@?$IA?$AA@ 1003c780     sha1.obj
 0002:00000788       ??_C@_0BM@MLLIJMKO@Sec?9WebSocket?9Version?3?513?$AN?6?$AA@ 1003c788     WebSocketAssitInterface.obj
 0002:000007a4       ??_C@_0BG@FHMIDDAA@Connection?3?5Upgrade?$AN?6?$AA@ 1003c7a4     WebSocketAssitInterface.obj
 0002:000007bc       ??_C@_0BH@IMEJNJMG@Sec?9WebSocket?9Accept?3?5?$AA@ 1003c7bc     WebSocketAssitInterface.obj
 0002:000007d4       ??_C@_0CF@DPPCDNJI@258EAFA5?9E914?947DA?995CA?9C5AB0DC8@ 1003c7d4     WebSocketAssitInterface.obj
 0002:000007fc       ??_C@_0BF@GNLHKLOJ@Upgrade?3?5WebSocket?$AN?6?$AA@ 1003c7fc     WebSocketAssitInterface.obj
 0002:00000814       ??_C@_0CD@LIKLDGFH@HTTP?11?41?5101?5Switching?5Protocols@ 1003c814     WebSocketAssitInterface.obj
 0002:00000837       ??_C@_00CNPNBAHC@?$AA@     1003c837     WebSocketAssitInterface.obj
 0002:00000838       ??_C@_0BD@OLBABOEK@vector?$DMT?$DO?5too?5long?$AA@ 1003c838     WebSocketAssitInterface.obj
 0002:0000084c       ??_C@_01MNNFJEPP@?$DM?$AA@ 1003c84c     tinyxml2.obj
 0002:00000850       ??_C@_09BLLNCBLF@?$DM?$CB?$FLCDATA?$FL?$AA@ 1003c850     tinyxml2.obj
 0002:0000085c       ??_C@_02KBFACPPK@?$DM?$CB?$AA@ 1003c85c     tinyxml2.obj
 0002:00000860       ??_C@_04FFDNBKGC@?$DM?$CB?9?9?$AA@ 1003c860     tinyxml2.obj
 0002:00000868       ??_C@_02HFBBBACF@?$DM?$DP?$AA@ 1003c868     tinyxml2.obj
 0002:0000086c       ??_C@_02GHFEHLK@gt?$AA@    1003c86c     tinyxml2.obj
 0002:00000870       ??_C@_02KCAKIFL@lt?$AA@    1003c870     tinyxml2.obj
 0002:00000874       ??_C@_04LBCJFAKL@apos?$AA@ 1003c874     tinyxml2.obj
 0002:0000087c       ??_C@_03DCBBJBAA@amp?$AA@  1003c87c     tinyxml2.obj
 0002:00000880       ??_C@_04KJFGKBNM@quot?$AA@ 1003c880     tinyxml2.obj
 0002:000008e0       ??_C@_02DPKJAMEF@?$CFd?$AA@ 1003c8e0     tinyxml2.obj
 0002:000008ec       ??_7XMLText@tinyxml2@@6B@  1003c8ec     tinyxml2.obj
 0002:00000934       ??_7XMLNode@tinyxml2@@6B@  1003c934     tinyxml2.obj
 0002:00000978       ??_C@_03MCHNFBAC@?$FN?$FN?$DO?$AA@ 1003c978     tinyxml2.obj
 0002:00000984       ??_7XMLComment@tinyxml2@@6B@ 1003c984     tinyxml2.obj
 0002:000009c8       ??_C@_03PNLDJJMO@?9?9?$DO?$AA@ 1003c9c8     tinyxml2.obj
 0002:000009d4       ??_7XMLDeclaration@tinyxml2@@6B@ 1003c9d4     tinyxml2.obj
 0002:00000a18       ??_C@_02GOEMJPDN@?$DP?$DO?$AA@ 1003ca18     tinyxml2.obj
 0002:00000a24       ??_7XMLUnknown@tinyxml2@@6B@ 1003ca24     tinyxml2.obj
 0002:00000a68       ??_C@_01PPODPGHN@?$DO?$AA@ 1003ca68     tinyxml2.obj
 0002:00000a74       ??_7XMLElement@tinyxml2@@6B@ 1003ca74     tinyxml2.obj
 0002:00000abc       ??_7XMLAttribute@tinyxml2@@6B@ 1003cabc     tinyxml2.obj
 0002:00000ac4       ??_7XMLDocument@tinyxml2@@6B@ 1003cac4     tinyxml2.obj
 0002:00000b08       ??_C@_0CD@MCGGMGEP@xml?5version?$DN?$CC1?40?$CC?5encoding?$DN?$CCUTF?9@ 1003cb08     tinyxml2.obj
 0002:00000b2c       ??_C@_02JDPG@rb?$AA@       1003cb2c     tinyxml2.obj
 0002:00000b30       ??_C@_02DKCKIIND@?$CFs?$AA@ 1003cb30     tinyxml2.obj
 0002:00000b34       ??_C@_01EEMJAFIK@?6?$AA@   1003cb34     tinyxml2.obj
 0002:00000b38       ??_C@_01BJJEKLCA@?$CC?$AA@ 1003cb38     tinyxml2.obj
 0002:00000b40       ??_7?$MemPoolT@$0DE@@tinyxml2@@6B@ 1003cb40     tinyxml2.obj
 0002:00000b58       ??_7MemPool@tinyxml2@@6B@  1003cb58     tinyxml2.obj
 0002:00000b70       ??_7?$MemPoolT@$0CE@@tinyxml2@@6B@ 1003cb70     tinyxml2.obj
 0002:00000b88       ??_7?$MemPoolT@$0DA@@tinyxml2@@6B@ 1003cb88     tinyxml2.obj
 0002:00000ba0       ??_7?$MemPoolT@$0CM@@tinyxml2@@6B@ 1003cba0     tinyxml2.obj
 0002:00000bb4       __pRawDllMain              1003cbb4     AFCComDllEx.obj
 0002:00000bb8       ?OLE_DATETIME_HALFSECOND@COleDateTimeSpan@ATL@@2NB 1003cbb8     AFCDataBase.obj
 0002:00000bc4       ??_7CAFCException@@6B@     1003cbc4     AFCDataBase.obj
 0002:00000bd8       ??_7CDataBaseHandle@@6B@   1003cbd8     AFCDataBase.obj
 0002:00000be8       ??_7IDataBaseHandleService@@6B@ 1003cbe8     AFCDataBase.obj
 0002:00000bf4       ??_7CUDPSocket@@6B@        1003cbf4     AFCDataBase.obj
 0002:00000bfc       ??_7CListenSocket@@6B@     1003cbfc     AFCDataBase.obj
 0002:00000c04       ??_7CTCPSocket@@6B@        1003cc04     AFCDataBase.obj
 0002:00000c0c       ??_7CTCPSocketForZ@@6B@    1003cc0c     AFCDataBase.obj
 0002:00000c10       __GUID_00000535_0000_0010_8000_00aa006d2ea4 1003cc10     AFCDataBase.obj
 0002:00000c20       __GUID_00000514_0000_0010_8000_00aa006d2ea4 1003cc20     AFCDataBase.obj
 0002:00000c34       ??_7CAFCDataBaseManage@@6B@ 1003cc34     AFCDataBase.obj
 0002:00000c38       ??_C@_0DI@POGKFIHK@CAFCDataBaseManage?3?3Start?5DataSe@ 1003cc38     AFCDataBase.obj
 0002:00000c70       ??_C@_0DD@HKNMCALB@CAFCDataBaseManage?3?3Start?5m_hCom@ 1003cc70     AFCDataBase.obj
 0002:00000ca4       ??_C@_0CH@BFHFHBOK@CAFCDataBaseManage?3?3Start?5?J?B?$LM?$PO?$LN?$KI@ 1003cca4     AFCDataBase.obj
 0002:00000ccc       ??_C@_0CJ@IHBFJBIE@CAFCDataBaseManage?3?3Start?5?C?$LL?S?P?$LD?u@ 1003cccc     AFCDataBase.obj
 0002:00000cf8       ??_C@_0CO@CHMBFGE@CAFCDataBaseManage?3?3Start?5?A?$KM?$LN?S?$LB?$LO@ 1003ccf8     AFCDataBase.obj
 0002:00000d28       ??_C@_03LEIBKMN@?0?$CFd?$AA@ 1003cd28     AFCDataBase.obj
 0002:00000d2c       ??_C@_0L@NFINNCPK@DBPASSWORD?$AA@ 1003cd2c     AFCDataBase.obj
 0002:00000d38       ??_C@_09OAPLMGBF@DBACCOUNT?$AA@ 1003cd38     AFCDataBase.obj
 0002:00000d44       ??_C@_08IOEOHAJM@DATABASE?$AA@ 1003cd44     AFCDataBase.obj
 0002:00000d50       ??_C@_06NKMMDPKC@DBPORT?$AA@ 1003cd50     AFCDataBase.obj
 0002:00000d58       ??_C@_03ICHNJLJF@key?$AA@  1003cd58     AFCDataBase.obj
 0002:00000d5c       ??_C@_08OOPBKIBH@DBSERVER?$AA@ 1003cd5c     AFCDataBase.obj
 0002:00000d68       ??_C@_0BP@IABCKAOC@Load?5HNGameLocal?4xml?5Error?90?91?$AA@ 1003cd68     AFCDataBase.obj
 0002:00000d88       ??_C@_09EKIMPMII@SQLSERVER?$AA@ 1003cd88     AFCDataBase.obj
 0002:00000d94       ??_C@_0BN@IFMGFPEF@Load?5HNGameLocal?4xml?5Error?90?$AA@ 1003cd94     AFCDataBase.obj
 0002:00000db4       ??_C@_0BA@FLDMFENM@HNGameLocal?4xml?$AA@ 1003cdb4     AFCDataBase.obj
 0002:00000dc4       ??_C@_0CO@CJFBEGKH@CAFCDataBaseManage?3?3Start?5?A?$KM?$LN?S?$LB?$LO@ 1003cdc4     AFCDataBase.obj
 0002:00000df4       ??_C@_0CE@GHMPBMF@ycl?3?3dklSQLEngineCreate?3?$CFs?5?$CFs?5?$CFs@ 1003cdf4     AFCDataBase.obj
 0002:00000e18       ??_C@_0BP@DIKOMHIH@Load?5HNGameLocal?4xml?5Error?91?91?$AA@ 1003ce18     AFCDataBase.obj
 0002:00000e38       ??_C@_0BN@JMNNGOAE@Load?5HNGameLocal?4xml?5Error?91?$AA@ 1003ce38     AFCDataBase.obj
 0002:00000e58       ??_C@_0CG@MAKKOJI@CAFCDataBaseManage?3?3Init?5?W?$LE?L?$KM?P?$KH?Q@ 1003ce58     AFCDataBase.obj
 0002:00000e80       __GUID_00000000_0000_0000_c000_000000000046 1003ce80     AFCDataBase.obj
 0002:00000e90       __GUID_00001550_0000_0010_8000_00aa006d2ea4 1003ce90     AFCDataBase.obj
 0002:00000ea0       __GUID_00001556_0000_0010_8000_00aa006d2ea4 1003cea0     AFCDataBase.obj
 0002:00000eb0       __real@40f5180000000000    1003ceb0     AFCDataBase.obj
 0002:00000eb8       __real@414b964c80000000    1003ceb8     AFCDataBase.obj
 0002:00000ec0       __real@c14b964c80000000    1003cec0     AFCDataBase.obj
 0002:00000ec8       ??_C@_06DAIGMDCJ@?S?N?O?$LH?V?P?$AA@ 1003cec8     AFCDataBase.obj
 0002:00000ed0       ??_C@_04BECHADKL@?$LG?O?O?$NP?$AA@ 1003ced0     AFCDataBase.obj
 0002:00000ed8       ??_C@_08OAAKLPBD@?$LE?s?L?$PM?M?$KM?R?b?$AA@ 1003ced8     AFCDataBase.obj
 0002:00000ee4       ??_C@_04BJFNJIMM@?E?T?$LJ?$NL?$AA@ 1003cee4     AFCDataBase.obj
 0002:00000eec       ??_C@_04MNKAPCAF@?M?$KM?R?b?$AA@ 1003ceec     AFCDataBase.obj
 0002:00000ef4       ??_C@_04CCOFPBFC@?W?x?O?B?$AA@ 1003cef4     AFCDataBase.obj
 0002:00000efc       ??_C@_06LDHANIFK@?$LP?U?O?P?V?P?$AA@ 1003cefc     AFCDataBase.obj
 0002:00000f04       ??_C@_0N@DCEJJMIB@?C?$LL?S?P?R?l?$LD?$KD?P?E?O?$KC?$AA@ 1003cf04     AFCException.obj
 0002:00000f14       ??_C@_0BB@DLAKPGHO@?R?l?$LD?$KD?$LE?m?N?s?P?E?O?$KC?L?$KL?$LD?$KE?$AA@ 1003cf14     AFCException.obj
 0002:0000183c       ??_7MD5_CTX@@6B@           1003d83c     AFCSocket.obj
 0002:00001840       ??_C@_04NOJCDH@?$CF02x?$AA@ 1003d840     AFCSocket.obj
 0002:00001848       ??_C@_01MCMALHOG@a?$AA@    1003d848     AFCSocket.obj
 0002:0000184c       ??_C@_0N@GEDOKDFJ@Accept?5False?$AA@ 1003d84c     AFCSocket.obj
 0002:00001864       ??_7CTCPClientSocket@@6B@  1003d864     AFCSocket.obj
 0002:000019cc       ??_C@_0L@PJEKJDGD@?J?$PN?$LO?$NN?$LA?$PM?$LJ?$PN?$LE?s?$AA@ 1003d9cc     AFCSocket.obj
 0002:000019d8       ??_C@_0N@COKEJIOJ@?J?$PN?$LO?$NN?$LE?$KG?$MA?m?J?$KH?$LA?$NM?$AA@ 1003d9d8     AFCSocket.obj
 0002:000019e8       ??_C@_0L@CGBOKMKC@?J?$PN?$LO?$NN?$LA?$PM?L?$KL?$LE?s?$AA@ 1003d9e8     AFCSocket.obj
 0002:000019f4       ??_C@_0L@OKPJCMDE@?$LH?G?$LH?$KI?J?$PN?$LO?$NN?$LA?$PM?$AA@ 1003d9f4     AFCSocket.obj
 0002:00001a04       ??_7CTCPSocketManage@@6B@  1003da04     AFCSocket.obj
 0002:00001a1c       ??_C@_0BG@CNMHMKAC@CTCPSocket?5?$LD?u?J?$LM?$LL?$KP?J?$KH?$LA?$NM?$AA@ 1003da1c     AFCSocket.obj
 0002:00001a34       ??_C@_0CE@CADCCFFL@CTCPSocketManage?3?3Init?5?I?j?G?k?D?Z?$LE?f?J@ 1003da34     AFCSocket.obj
 0002:00001a58       ??_C@_0CI@GOEDNMPG@CTCPSocketManage?3?3Init?5?J?d?H?k?$LC?N?J?$PN?P@ 1003da58     AFCSocket.obj
 0002:00001a80       ??_C@_0CE@KHPNLBF@CTCPSocketManage?3?3Init?5?W?$LE?L?$KM?P?$KH?Q?i?J@ 1003da80     AFCSocket.obj
 0002:00001aa4       ??_C@_0DF@PMFJPMEO@CTCPSocketManage?3?3Start?5ThreadBa@ 1003daa4     AFCSocket.obj
 0002:00001adc       ??_C@_0DG@OBMFNDCG@CTCPSocketManage?3?3Start?5ThreadKe@ 1003dadc     AFCSocket.obj
 0002:00001b14       ??_C@_0DC@OMIAEAON@CTCPSocketManage?3?3Start?5ThreadAc@ 1003db14     AFCSocket.obj
 0002:00001b48       ??_C@_0CF@DPEOGBB@CTCPSocketManage?3?3Start?5?M?x?B?g?$LM?$OA?L?$PN@ 1003db48     AFCSocket.obj
 0002:00001b70       ??_C@_0CF@DKPDFOM@CTCPSocketManage?3?3Start?5?M?x?B?g?$LA?s?$LG?$KI@ 1003db70     AFCSocket.obj
 0002:00001b98       ??_C@_0CF@HCPIPAOI@CTCPSocketManage?3?3Start?5?M?x?B?g?$LN?$KI?A?$KC@ 1003db98     AFCSocket.obj
 0002:00001bc0       ??_C@_0DF@KJFNEIBK@CTCPSocketManage?3?3Start?5ThreadSt@ 1003dbc0     AFCSocket.obj
 0002:00001bf8       ??_C@_0DI@NFIFAPKB@CTCPSocketManage?3?3Start?5m_hCompl@ 1003dbf8     AFCSocket.obj
 0002:00001c30       ??_C@_0DF@BEAPCAGC@CTCPSocketManage?3?3Start?5m_hCompl@ 1003dc30     AFCSocket.obj
 0002:00001c68       ??_C@_0DA@HNPCFLHI@CTCPSocketManage?3?3Start?5m_hEvent@ 1003dc68     AFCSocket.obj
 0002:00001c98       ??_C@_0CH@BMNPBBFB@CTCPSocketManage?3?3Start?5?C?$LL?S?P?$LD?u?J?$LM@ 1003dc98     AFCSocket.obj
 0002:00001cc0       ??_C@_0M@PCENNPGA@?$CFd?4?$CFd?4?$CFd?4?$CFd?$AA@ 1003dcc0     AFCSocket.obj
 0002:00001ccc       ??_C@_01LFCBOECM@?4?$AA@   1003dccc     AFCSocket.obj
 0002:00001cd4       ??_7CTCPSocketManageForZ@@6B@ 1003dcd4     AFCSocket.obj
 0002:00001cec       ??_C@_0BK@KCDHMCHE@CTCPSocketForZ?5?$LD?u?J?$LM?$LL?$KP?J?$KH?$LA?$NM?$AA@ 1003dcec     AFCSocket.obj
 0002:00001d08       ??_C@_0CI@IPCKKOMK@CTCPSocketManageForZ?3?3Init?5?I?j?G?k?D@ 1003dd08     AFCSocket.obj
 0002:00001d30       ??_C@_0CM@ECKNIIHG@CTCPSocketManageForZ?3?3Init?5?J?d?H?k?$LC@ 1003dd30     AFCSocket.obj
 0002:00001d5c       ??_C@_0CI@KFGHFAIE@CTCPSocketManageForZ?3?3Init?5?W?$LE?L?$KM?P@ 1003dd5c     AFCSocket.obj
 0002:00001d84       ??_C@_0DJ@EFOCHPDA@CTCPSocketManageForZ?3?3Start?5Thre@ 1003dd84     AFCSocket.obj
 0002:00001dc0       ??_C@_0DJ@EDGMNDNF@CTCPSocketManageForZ?3?3Start?5Thre@ 1003ddc0     AFCSocket.obj
 0002:00001dfc       ??_C@_0DK@IGKHKMMF@CTCPSocketManageForZ?3?3Start?5Thre@ 1003ddfc     AFCSocket.obj
 0002:00001e38       ??_C@_0DG@LLHMDNCN@CTCPSocketManageForZ?3?3Start?5Thre@ 1003de38     AFCSocket.obj
 0002:00001e70       ??_C@_0CJ@IEFDFNEI@CTCPSocketManageForZ?3?3Start?5?M?x?B?g@ 1003de70     AFCSocket.obj
 0002:00001e9c       ??_C@_0CJ@IEAIIOLF@CTCPSocketManageForZ?3?3Start?5?M?x?B?g@ 1003de9c     AFCSocket.obj
 0002:00001ec8       ??_C@_0CJ@PFFPELLB@CTCPSocketManageForZ?3?3Start?5?M?x?B?g@ 1003dec8     AFCSocket.obj
 0002:00001ef4       ??_C@_0DJ@BGGIGHIB@CTCPSocketManageForZ?3?3Start?5Thre@ 1003def4     AFCSocket.obj
 0002:00001f30       ??_C@_0DM@PHAPMBIE@CTCPSocketManageForZ?3?3Start?5m_hC@ 1003df30     AFCSocket.obj
 0002:00001f6c       ??_C@_0DM@GAGMKEEB@CTCPSocketManageForZ?3?3Start?5m_hC@ 1003df6c     AFCSocket.obj
 0002:00001fa8       ??_C@_0DJ@KLDKAPPJ@CTCPSocketManageForZ?3?3Start?5m_hC@ 1003dfa8     AFCSocket.obj
 0002:00001fe4       ??_C@_0DE@NBCMKLPB@CTCPSocketManageForZ?3?3Start?5m_hE@ 1003dfe4     AFCSocket.obj
 0002:00002018       ??_C@_0CL@CLBFBKOP@CTCPSocketManageForZ?3?3Start?5?C?$LL?S?P@ 1003e018     AFCSocket.obj
 0002:00002044       ??_C@_0BM@PAPJHAGI@invalid?5map?1set?$DMT?$DO?5iterator?$AA@ 1003e044     AFCSocket.obj
 0002:00002060       ??_C@_0BE@JONHPENG@map?1set?$DMT?$DO?5too?5long?$AA@ 1003e060     AFCSocket.obj
 0002:00002078       ??_7CTCPSocketForWeb@@6B@  1003e078     AFCWebSocket.obj
 0002:0000207c       ??_C@_0L@CKGFCAJM@?$LJ?X?$LB?U?J?$PN?$LO?$NN?$LA?$PM?$AA@ 1003e07c     AFCWebSocket.obj
 0002:00002088       ??_C@_0BC@DFHBMDHG@Sec?9WebSocket?9Key?$AA@ 1003e088     AFCWebSocket.obj
 0002:0000209c       ??_C@_02NBHMMMHK@13?$AA@   1003e09c     AFCWebSocket.obj
 0002:000020a0       ??_C@_0BG@HAPKGHFG@Sec?9WebSocket?9Version?$AA@ 1003e0a0     AFCWebSocket.obj
 0002:000020b8       ??_C@_0N@GNGABOGO@?1HNWEBSERVER?$AA@ 1003e0b8     AFCWebSocket.obj
 0002:000020c8       ??_C@_04FMMHFHOO@?$AN?6?$AN?6?$AA@ 1003e0c8     AFCWebSocket.obj
 0002:000020d0       ??_C@_03HAPOJHBM@GET?$AA@  1003e0d0     AFCWebSocket.obj
 0002:000020d4       ??_C@_01CLKCMJKC@?5?$AA@   1003e0d4     AFCWebSocket.obj
 0002:000020d8       ??_C@_01JLIPDDHJ@?3?$AA@   1003e0d8     AFCWebSocket.obj
 0002:000020e0       ??_7CTCPSocketManageForWeb@@6B@ 1003e0e0     AFCWebSocket.obj
 0002:000020f8       ??_C@_0CK@EOBAKJFB@CTCPSocketManageForWeb?3?3Init?5?I?j?G@ 1003e0f8     AFCWebSocket.obj
 0002:00002124       ??_C@_0CO@OEGJNEAJ@CTCPSocketManageForWeb?3?3Init?5?J?d?H@ 1003e124     AFCWebSocket.obj
 0002:00002154       ??_C@_0CK@GEFNFHBP@CTCPSocketManageForWeb?3?3Init?5?W?$LE?L@ 1003e154     AFCWebSocket.obj
 0002:00002180       ??_C@_0DL@FCKPEIIN@CTCPSocketManageForWeb?3?3Start?5Th@ 1003e180     AFCWebSocket.obj
 0002:000021bc       ??_C@_0DM@ODAGLGJI@CTCPSocketManageForWeb?3?3Start?5Th@ 1003e1bc     AFCWebSocket.obj
 0002:000021f8       ??_C@_0DI@PCMPPOMD@CTCPSocketManageForWeb?3?3Start?5Th@ 1003e1f8     AFCWebSocket.obj
 0002:00002230       ??_C@_0CL@ODEPCNID@CTCPSocketManageForWeb?3?3Start?5?M?x@ 1003e230     AFCWebSocket.obj
 0002:0000225c       ??_C@_0CL@ODBEPOHO@CTCPSocketManageForWeb?3?3Start?5?M?x@ 1003e25c     AFCWebSocket.obj
 0002:00002288       ??_C@_0CL@JCEDDLHK@CTCPSocketManageForWeb?3?3Start?5?M?x@ 1003e288     AFCWebSocket.obj
 0002:000022b4       ??_C@_0DL@HKLPMNJ@CTCPSocketManageForWeb?3?3Start?5Th@ 1003e2b4     AFCWebSocket.obj
 0002:000022f0       ??_C@_0DO@JCBLBLID@CTCPSocketManageForWeb?3?3Start?5m_@ 1003e2f0     AFCWebSocket.obj
 0002:00002330       ??_C@_0DL@LKPJJEKB@CTCPSocketManageForWeb?3?3Start?5m_@ 1003e330     AFCWebSocket.obj
 0002:0000236c       ??_C@_0DG@DFDHJNJK@CTCPSocketManageForWeb?3?3Start?5m_@ 1003e36c     AFCWebSocket.obj
 0002:000023a4       ??_C@_0CN@FDBOACEK@CTCPSocketManageForWeb?3?3Start?5?C?$LL@ 1003e3a4     AFCWebSocket.obj
 0002:000023d8       ??_7CDataLine@@6B@         1003e3d8     DataLine.obj
 0002:000023e8       ??_7?$CList@PAUListItemData@@PAU1@@@6B@ 1003e3e8     DataLine.obj
 0002:000023fc       ??_C@_0N@CMEHNJLK@keywords?4txt?$AA@ 1003e3fc     HNFilter.obj
 0002:0000240c       ??_C@_02FKAPCJPD@?$CK?$CK?$AA@ 1003e40c     HNFilter.obj
 0002:00002414       ??_7?$basic_ifstream@DU?$char_traits@D@std@@@std@@6B@ 1003e414     HNFilter.obj
 0002:00002418       ??_8?$basic_ifstream@DU?$char_traits@D@std@@@std@@7B@ 1003e418     HNFilter.obj
 0002:00002424       ??_7?$basic_filebuf@DU?$char_traits@D@std@@@std@@6B@ 1003e424     HNFilter.obj
 0002:00002460       ??_C@_08EPJLHIJG@bad?5cast?$AA@ 1003e460     HNFilter.obj
 0002:0000246c       ?_Stz@?$fpos@H@std@@0HB    1003e46c     HNFilter.obj
 0002:00002470       ??_C@_09LIEONEIM@?$FL?$CFs?5?$CFs?$FN?9?9?$AA@ 1003e470     HNLog.obj
 0002:0000247c       ??_C@_0BG@CEDGLAEB@?$CFs?2HNLog?2?$CFs_?$CFd_?$CFs?4txt?$AA@ 1003e47c     HNLog.obj
 0002:00002494       ??_C@_0BD@KACOCFKM@?$CFs?2HNLog?2?$CFs_?$CFs?4txt?$AA@ 1003e494     HNLog.obj
 0002:000024a8       ??_C@_0L@FFIMBEKI@yyyy?9MM?9dd?$AA@ 1003e4a8     HNLog.obj
 0002:000024b4       ??_C@_08JCCMCCIL@HH?3mm?3ss?$AA@ 1003e4b4     HNLog.obj
 0002:000024c4       ??_7HNRC4@HN@@6B@          1003e4c4     HNRC4.obj
 0002:0000250c       ??_C@_03JNFCLBAP@535?$AA@  1003e50c     HNSmtp.obj
 0002:00002510       ??_C@_03OEKIDJPI@550?$AA@  1003e510     HNSmtp.obj
 0002:00002514       ??_C@_0N@PBIADBBH@AUTH?5LOGIN?$AN?6?$AA@ 1003e514     HNSmtp.obj
 0002:00002524       ??_C@_05EGKLNPNB@EHLO?5?$AA@ 1003e524     HNSmtp.obj
 0002:0000252c       ??_C@_06KNPIFKI@DATA?$AN?6?$AA@ 1003e52c     HNSmtp.obj
 0002:00002534       ??_C@_0L@DEDALBCA@RCPT?5TO?3?5?$DM?$AA@ 1003e534     HNSmtp.obj
 0002:00002540       ??_C@_03DMHINEKI@?$DO?$AN?6?$AA@ 1003e540     HNSmtp.obj
 0002:00002544       ??_C@_0N@NLGDMBLP@MAIL?5FROM?3?5?$DM?$AA@ 1003e544     HNSmtp.obj
 0002:00002554       ??_C@_0DC@CPOLMDJK@Content?9Type?3?5multipart?1mixed?$DLbo@ 1003e554     HNSmtp.obj
 0002:00002588       ??_C@_0BC@IOKEKJJ@MIME?9Version?3?51?40?$AA@ 1003e588     HNSmtp.obj
 0002:0000259c       ??_C@_09JHOEHIGO@Subject?3?5?$AA@ 1003e59c     HNSmtp.obj
 0002:000025a8       ??_C@_04CLHDMCFI@To?3?5?$AA@ 1003e5a8     HNSmtp.obj
 0002:000025b0       ??_C@_06GNPEEHKO@From?3?5?$AA@ 1003e5b0     HNSmtp.obj
 0002:000025b8       ??_C@_0BF@CFPELLID@charset?$DN?$CCgb2312?$CC?$AN?6?$AN?6?$AA@ 1003e5b8     HNSmtp.obj
 0002:000025d0       ??_C@_0BK@IFJGCGME@Content?9Type?3?5text?1plain?$DL?$AA@ 1003e5d0     HNSmtp.obj
 0002:000025ec       ??_C@_0P@MPGHJIAJ@?9?9qwertyuiop?$AN?6?$AA@ 1003e5ec     HNSmtp.obj
 0002:000025fc       ??_C@_0O@NPGPJECN@?N?D?$LM?$PO?$LE?$KL?K?M?$LD?v?$LE?m?$CB?$AA@ 1003e5fc     HNSmtp.obj
 0002:0000260c       ??_C@_0M@NFKOCCKP@?5filename?$DN?$CC?$AA@ 1003e60c     HNSmtp.obj
 0002:00002618       ??_C@_0CD@FOEOKFBM@Content?9Disposition?3?5attachment?$DL@ 1003e618     HNSmtp.obj
 0002:0000263c       ??_C@_0CE@HELJGHDP@Content?9Transfer?9Encoding?3?5base6@ 1003e63c     HNSmtp.obj
 0002:00002660       ??_C@_07JNNBCNKJ@?5name?$DN?$CC?$AA@ 1003e660     HNSmtp.obj
 0002:00002668       ??_C@_0CK@MEHIGMNJ@Content?9Type?3?5application?1octet?9@ 1003e668     HNSmtp.obj
 0002:00002694       ??_C@_0BD@BIAJECBN@Please?5be?5patient?$CB?$AA@ 1003e694     HNSmtp.obj
 0002:000026a8       ??_C@_0BM@DEJNFDN@Attachment?5is?5sending?5?$HO?$HO?$HO?$HO?$HO?$AA@ 1003e6a8     HNSmtp.obj
 0002:000026c4       ??_C@_06FIMJICNC@QUIT?$AN?6?$AA@ 1003e6c4     HNSmtp.obj
 0002:000026cc       ??_C@_05KMJPGPH@?$AN?6?4?$AN?6?$AA@ 1003e6cc     HNSmtp.obj
 0002:000026d4       ??_C@_0P@CNOPGMIM@?9?9qwertyuiop?9?9?$AA@ 1003e6d4     HNSmtp.obj
 0002:000026e4       ??_C@_01KICIPPFI@?2?$AA@   1003e6e4     HNSmtp.obj
 0002:000026e8       ??_C@_0BB@MOGOBHAF@list?$DMT?$DO?5too?5long?$AA@ 1003e6e8     HNSmtp.obj
 0002:000026fc       ??_C@_05LLAMLEHD@?$CFI64d?$AA@ 1003e6fc     MainManage.obj
 0002:00002708       ??_7CBcfKeyItem@@6B@       1003e708     MainManage.obj
 0002:00002714       ??_7CBcfListItem@@6B@      1003e714     MainManage.obj
 0002:00002720       ??_7CBcfSectionItem@@6B@   1003e720     MainManage.obj
 0002:0000272c       ??_7CBcfFileNameItem@@6B@  1003e72c     MainManage.obj
 0002:00002738       ??_7CBaseMainManage@@6BIDataBaseResultService@@@ 1003e738     MainManage.obj
 0002:00002744       ??_7CBaseMainManage@@6BIServerSocketService@@@ 1003e744     MainManage.obj
 0002:0000278c       ??_7IServerSocketService@@6B@ 1003e78c     MainManage.obj
 0002:00002798       ??_7IDataBaseResultService@@6B@ 1003e798     MainManage.obj
 0002:0000279c       ??_C@_0CG@PINOCIPJ@CBaseMainManage?3?3Init?5OnInit?5?$LK?$KP?J@ 1003e79c     MainManage.obj
 0002:000027c4       ??_C@_0DE@KHHBPJNK@CBaseMainManage?3?3Init?5PreInitPar@ 1003e7c4     MainManage.obj
 0002:000027f8       ??_C@_0CI@OFILLFEH@CBaseMainManage?3?3Start?5OnStart?5?$LK@ 1003e7f8     MainManage.obj
 0002:00002820       ??_C@_0DJ@BDELNDNM@CBaseMainManage?3?3Start?5LineDataH@ 1003e820     MainManage.obj
 0002:0000285c       ??_C@_0DA@HLKAFGNO@CBaseMainManage?3?3Start?5m_hComple@ 1003e85c     MainManage.obj
 0002:0000288c       ??_C@_0CE@LAIAPMED@CBaseMainManage?3?3Start?5?J?B?$LM?$PO?$LN?$KI?A?$KC?J@ 1003e88c     MainManage.obj
 0002:000028b0       ??_C@_0DN@PKMFMCEL@CBaseMainManage?3?3AFCKernelStart?5@ 1003e8b0     MainManage.obj
 0002:000028f0       ??_C@_0CN@BPAPPMHA@CBaseMainManage?3?3AFCKernelStart?5@ 1003e8f0     MainManage.obj
 0002:00002920       ??_C@_0N@CHIINBO@?$LE?$LA?$LP?Z?$LN?$KI?A?$KC?J?$KH?$LA?$NM?$AA@ 1003e920     MainManage.obj
 0002:00002930       ??_C@_0BC@MONGMNOK@CMainManageWindow?$AA@ 1003e930     MainManage.obj
 0002:00002948       ??_7CBaseMainManageForWeb@@6BIDataBaseResultService@@@ 1003e948     MainManageForWeb.obj
 0002:00002954       ??_7CBaseMainManageForWeb@@6BIServerSocketServiceForWeb@@@ 1003e954     MainManageForWeb.obj
 0002:0000299c       ??_7IServerSocketServiceForWeb@@6B@ 1003e99c     MainManageForWeb.obj
 0002:000029a4       ??_C@_0CM@HKOBGNFL@CBaseMainManageForWeb?3?3Init?5OnIn@ 1003e9a4     MainManageForWeb.obj
 0002:000029d0       ??_C@_0DK@OBJKKNNO@CBaseMainManageForWeb?3?3Init?5PreI@ 1003e9d0     MainManageForWeb.obj
 0002:00002a0c       ??_C@_0CO@HPAMFMAM@CBaseMainManageForWeb?3?3Start?5OnS@ 1003ea0c     MainManageForWeb.obj
 0002:00002a3c       ??_C@_0DP@KBDADKCL@CBaseMainManageForWeb?3?3Start?5Lin@ 1003ea3c     MainManageForWeb.obj
 0002:00002a7c       ??_C@_0DG@BGMHAHA@CBaseMainManageForWeb?3?3Start?5m_h@ 1003ea7c     MainManageForWeb.obj
 0002:00002ab4       ??_C@_0CK@NJNIFKKI@CBaseMainManageForWeb?3?3Start?5?J?B?$LM@ 1003eab4     MainManageForWeb.obj
 0002:00002ae0       ??_C@_0ED@KOODHFOH@CBaseMainManageForWeb?3?3AFCKernel@ 1003eae0     MainManageForWeb.obj
 0002:00002b24       ??_C@_0DD@PEIPPEAP@CBaseMainManageForWeb?3?3AFCKernel@ 1003eb24     MainManageForWeb.obj
 0002:00002b5c       ??_7CBaseMainManageForZ@@6BIDataBaseResultService@@@ 1003eb5c     MainManageForZ.obj
 0002:00002b64       ??_7CBaseMainManageForZ@@6BIServerSocketServiceForZ@@@ 1003eb64     MainManageForZ.obj
 0002:00002ba8       ??_7IServerSocketServiceForZ@@6B@ 1003eba8     MainManageForZ.obj
 0002:00002bb0       ??_C@_0CK@HALJEGC@CBaseMainManageForZ?3?3Init?5OnInit@ 1003ebb0     MainManageForZ.obj
 0002:00002bdc       ??_C@_0DI@OOAFLBCM@CBaseMainManageForZ?3?3Init?5PreIni@ 1003ebdc     MainManageForZ.obj
 0002:00002c14       ??_C@_0CM@LFOJOGOE@CBaseMainManageForZ?3?3Start?5OnSta@ 1003ec14     MainManageForZ.obj
 0002:00002c40       ??_C@_0DN@PINMDCDD@CBaseMainManageForZ?3?3Start?5LineD@ 1003ec40     MainManageForZ.obj
 0002:00002c80       ??_C@_0DE@DAHACEAB@CBaseMainManageForZ?3?3Start?5m_hCo@ 1003ec80     MainManageForZ.obj
 0002:00002cb4       ??_C@_0CI@GNDPFCI@CBaseMainManageForZ?3?3Start?5?J?B?$LM?$PO?$LN@ 1003ecb4     MainManageForZ.obj
 0002:00002ce0       ??_C@_0EB@NFCBAOJP@CBaseMainManageForZ?3?3AFCKernelSt@ 1003ece0     MainManageForZ.obj
 0002:00002d24       ??_C@_0DB@NIPLGA@CBaseMainManageForZ?3?3AFCKernelSt@ 1003ed24     MainManageForZ.obj
 0002:00002d58       ??_C@_08IAFLFDMO@AFCComEx?$AA@ 1003ed58     MainManageForZ.obj
 0002:00002d64       ??_C@_0BE@IKNKIIOI@HD_TIMER_MESSAGE?5?$CFd?$AA@ 1003ed64     MainManageForZ.obj
 0002:00002d78       ??_C@_0BH@CKEEMHIL@?M?x?B?g?J?$PN?$LO?$NN?$LA?$PM?$LE?$KG?$MA?m?$LD?v?O?V?R?l?$LD?$KD?$AA@ 1003ed78     MainManageForZ.obj
 0002:00002d90       ??_C@_06JBKGCNBB@Delete?$AA@ 1003ed90     stdafx.obj
 0002:00002d98       ??_C@_08KAAPDIAN@NoRemove?$AA@ 1003ed98     stdafx.obj
 0002:00002da4       ??_C@_0M@DBGDLGLL@ForceRemove?$AA@ 1003eda4     stdafx.obj
 0002:00002db0       ??_C@_03LAIAPFCB@Val?$AA@  1003edb0     stdafx.obj
 0002:00002db4       ??_C@_01HMGJMAIH@B?$AA@    1003edb4     stdafx.obj
 0002:00002db8       ??_C@_01CKDDGHAB@D?$AA@    1003edb8     stdafx.obj
 0002:00002dbc       ??_C@_01PLPBNMEI@M?$AA@    1003edbc     stdafx.obj
 0002:00002dc0       ??_C@_01CPLAODJH@S?$AA@    1003edc0     stdafx.obj
 0002:00002de4       ??_C@_0BA@EKHFAKLM@HNLog?2?$CFd?9?$CFd?4txt?$AA@ 1003ede4     WriteLog.obj
 0002:00002df4       ??_C@_0M@NJKOGFLB@iValue?5?$DN?5?$CFd?$AA@ 1003edf4     WriteLog.obj
 0002:00002e00       ??_C@_0N@LDDNNCGE@iValue?5?$DN?5?$CFld?$AA@ 1003ee00     WriteLog.obj
 0002:00002e10       ??_C@_0BJ@OIBOCAP@?$CFs?2HNLog?2Error?$CFd?9?$CFd?4txt?$AA?$AA@ 1003ee10     WriteLog.obj
 0002:00002e2c       ??_C@_01EOFPKCAF@?$EA?$AA@ 1003ee2c     HNTree.obj
 0002:00002e30       ??_C@_05KKCIMGE@error?$AA@ 1003ee30     HNTreeNode.obj
 0002:00003a38       ??_C@_04OPPIOAF@1111?$AA@  1003fa38     yxyDES.obj
 0002:00003a40       ??_C@_04BHOELPEE@1110?$AA@ 1003fa40     yxyDES.obj
 0002:00003a48       ??_C@_04PDNOEDC@1101?$AA@  1003fa48     yxyDES.obj
 0002:00003a50       ??_C@_04BGCGNFHD@1100?$AA@ 1003fa50     yxyDES.obj
 0002:00003a58       ??_C@_04LGEDOJGA@1011?$AA@ 1003fa58     yxyDES.obj
 0002:00003a60       ??_C@_04KPFINICB@1010?$AA@ 1003fa60     yxyDES.obj
 0002:00003a68       ??_C@_04LHIBIDFH@1001?$AA@ 1003fa68     yxyDES.obj
 0002:00003a70       ??_C@_04KOJKLCBG@1000?$AA@ 1003fa70     yxyDES.obj
 0002:00003a78       ??_C@_04DDJPKHLF@0111?$AA@ 1003fa78     yxyDES.obj
 0002:00003a80       ??_C@_04CKIEJGPE@0110?$AA@ 1003fa80     yxyDES.obj
 0002:00003a88       ??_C@_04DCFNMNIC@0101?$AA@ 1003fa88     yxyDES.obj
 0002:00003a90       ??_C@_04CLEGPMMD@0100?$AA@ 1003fa90     yxyDES.obj
 0002:00003a98       ??_C@_04ILCDMANA@0011?$AA@ 1003fa98     yxyDES.obj
 0002:00003aa0       ??_C@_04JCDIPBJB@0010?$AA@ 1003faa0     yxyDES.obj
 0002:00003aa8       ??_C@_04IKOBKKOH@0001?$AA@ 1003faa8     yxyDES.obj
 0002:00003ab0       ??_C@_04JDPKJLKG@0000?$AA@ 1003fab0     yxyDES.obj
 0002:00003ab8       __real@4000000000000000    1003fab8     yxyDES.obj
 0002:00003ac0       __real@4020000000000000    1003fac0     yxyDES.obj
 0002:00003ac8       ??_C@_01GBGANLPD@0?$AA@    1003fac8     yxyDES.obj
 0002:00003ad0       __real@4030000000000000    1003fad0     yxyDES.obj
 0002:00003ad8       ??_C@_0BP@MNMGHEI@?$LE?$PN?$LN?b?C?$NM?W?V?$LH?$PL?$LD?$KE?$LG?H?$LB?X?P?k?N?$KK16?$LF?D?$LB?$LG?J?$PN?$KD?$KB?$AA@ 1003fad8     yxyDES.obj
 0002:00003b3c       ??_7type_info@@6B@         1003fb3c     msvcrt:ti_inst.obj
 0002:00003b40       __pDefaultRawDllMain       1003fb40     msvcrt:crtdll.obj
 0002:00003b50       __load_config_used         1003fb50     msvcrt:loadcfg.obj
 0002:00003bf4       ??_R4bad_alloc@std@@6B@    1003fbf4     Base64.obj
 0002:00003c08       ??_R3bad_alloc@std@@8      1003fc08     Base64.obj
 0002:00003c18       ??_R2bad_alloc@std@@8      1003fc18     Base64.obj
 0002:00003c24       ??_R1A@?0A@EA@bad_alloc@std@@8 1003fc24     Base64.obj
 0002:00003c40       ??_R1A@?0A@EA@exception@std@@8 1003fc40     Base64.obj
 0002:00003c5c       ??_R3exception@std@@8      1003fc5c     Base64.obj
 0002:00003c6c       ??_R2exception@std@@8      1003fc6c     Base64.obj
 0002:00003c74       ??_R4XMLText@tinyxml2@@6B@ 1003fc74     tinyxml2.obj
 0002:00003c88       ??_R3XMLText@tinyxml2@@8   1003fc88     tinyxml2.obj
 0002:00003c98       ??_R2XMLText@tinyxml2@@8   1003fc98     tinyxml2.obj
 0002:00003ca4       ??_R1A@?0A@EA@XMLText@tinyxml2@@8 1003fca4     tinyxml2.obj
 0002:00003cc0       ??_R1A@?0A@EA@XMLNode@tinyxml2@@8 1003fcc0     tinyxml2.obj
 0002:00003cdc       ??_R3XMLNode@tinyxml2@@8   1003fcdc     tinyxml2.obj
 0002:00003cec       ??_R2XMLNode@tinyxml2@@8   1003fcec     tinyxml2.obj
 0002:00003cf4       ??_R4XMLNode@tinyxml2@@6B@ 1003fcf4     tinyxml2.obj
 0002:00003d08       ??_R4XMLComment@tinyxml2@@6B@ 1003fd08     tinyxml2.obj
 0002:00003d1c       ??_R3XMLComment@tinyxml2@@8 1003fd1c     tinyxml2.obj
 0002:00003d2c       ??_R2XMLComment@tinyxml2@@8 1003fd2c     tinyxml2.obj
 0002:00003d38       ??_R1A@?0A@EA@XMLComment@tinyxml2@@8 1003fd38     tinyxml2.obj
 0002:00003d54       ??_R4XMLDeclaration@tinyxml2@@6B@ 1003fd54     tinyxml2.obj
 0002:00003d68       ??_R3XMLDeclaration@tinyxml2@@8 1003fd68     tinyxml2.obj
 0002:00003d78       ??_R2XMLDeclaration@tinyxml2@@8 1003fd78     tinyxml2.obj
 0002:00003d84       ??_R1A@?0A@EA@XMLDeclaration@tinyxml2@@8 1003fd84     tinyxml2.obj
 0002:00003da0       ??_R4XMLUnknown@tinyxml2@@6B@ 1003fda0     tinyxml2.obj
 0002:00003db4       ??_R3XMLUnknown@tinyxml2@@8 1003fdb4     tinyxml2.obj
 0002:00003dc4       ??_R2XMLUnknown@tinyxml2@@8 1003fdc4     tinyxml2.obj
 0002:00003dd0       ??_R1A@?0A@EA@XMLUnknown@tinyxml2@@8 1003fdd0     tinyxml2.obj
 0002:00003dec       ??_R4XMLElement@tinyxml2@@6B@ 1003fdec     tinyxml2.obj
 0002:00003e00       ??_R3XMLElement@tinyxml2@@8 1003fe00     tinyxml2.obj
 0002:00003e10       ??_R2XMLElement@tinyxml2@@8 1003fe10     tinyxml2.obj
 0002:00003e1c       ??_R1A@?0A@EA@XMLElement@tinyxml2@@8 1003fe1c     tinyxml2.obj
 0002:00003e38       ??_R4XMLAttribute@tinyxml2@@6B@ 1003fe38     tinyxml2.obj
 0002:00003e4c       ??_R3XMLAttribute@tinyxml2@@8 1003fe4c     tinyxml2.obj
 0002:00003e5c       ??_R2XMLAttribute@tinyxml2@@8 1003fe5c     tinyxml2.obj
 0002:00003e64       ??_R1A@?0A@EA@XMLAttribute@tinyxml2@@8 1003fe64     tinyxml2.obj
 0002:00003e80       ??_R4XMLDocument@tinyxml2@@6B@ 1003fe80     tinyxml2.obj
 0002:00003e94       ??_R3XMLDocument@tinyxml2@@8 1003fe94     tinyxml2.obj
 0002:00003ea4       ??_R2XMLDocument@tinyxml2@@8 1003fea4     tinyxml2.obj
 0002:00003eb0       ??_R1A@?0A@EA@XMLDocument@tinyxml2@@8 1003feb0     tinyxml2.obj
 0002:00003ecc       ??_R4?$MemPoolT@$0DE@@tinyxml2@@6B@ 1003fecc     tinyxml2.obj
 0002:00003ee0       ??_R3?$MemPoolT@$0DE@@tinyxml2@@8 1003fee0     tinyxml2.obj
 0002:00003ef0       ??_R2?$MemPoolT@$0DE@@tinyxml2@@8 1003fef0     tinyxml2.obj
 0002:00003efc       ??_R1A@?0A@EA@?$MemPoolT@$0DE@@tinyxml2@@8 1003fefc     tinyxml2.obj
 0002:00003f18       ??_R1A@?0A@EA@MemPool@tinyxml2@@8 1003ff18     tinyxml2.obj
 0002:00003f34       ??_R3MemPool@tinyxml2@@8   1003ff34     tinyxml2.obj
 0002:00003f44       ??_R2MemPool@tinyxml2@@8   1003ff44     tinyxml2.obj
 0002:00003f4c       ??_R4MemPool@tinyxml2@@6B@ 1003ff4c     tinyxml2.obj
 0002:00003f60       ??_R4?$MemPoolT@$0CE@@tinyxml2@@6B@ 1003ff60     tinyxml2.obj
 0002:00003f74       ??_R3?$MemPoolT@$0CE@@tinyxml2@@8 1003ff74     tinyxml2.obj
 0002:00003f84       ??_R2?$MemPoolT@$0CE@@tinyxml2@@8 1003ff84     tinyxml2.obj
 0002:00003f90       ??_R1A@?0A@EA@?$MemPoolT@$0CE@@tinyxml2@@8 1003ff90     tinyxml2.obj
 0002:00003fac       ??_R4?$MemPoolT@$0DA@@tinyxml2@@6B@ 1003ffac     tinyxml2.obj
 0002:00003fc0       ??_R3?$MemPoolT@$0DA@@tinyxml2@@8 1003ffc0     tinyxml2.obj
 0002:00003fd0       ??_R2?$MemPoolT@$0DA@@tinyxml2@@8 1003ffd0     tinyxml2.obj
 0002:00003fdc       ??_R1A@?0A@EA@?$MemPoolT@$0DA@@tinyxml2@@8 1003ffdc     tinyxml2.obj
 0002:00003ff8       ??_R4?$MemPoolT@$0CM@@tinyxml2@@6B@ 1003fff8     tinyxml2.obj
 0002:0000400c       ??_R3?$MemPoolT@$0CM@@tinyxml2@@8 1004000c     tinyxml2.obj
 0002:0000401c       ??_R2?$MemPoolT@$0CM@@tinyxml2@@8 1004001c     tinyxml2.obj
 0002:00004028       ??_R1A@?0A@EA@?$MemPoolT@$0CM@@tinyxml2@@8 10040028     tinyxml2.obj
 0002:00004044       ??_R4CAFCException@@6B@    10040044     AFCDataBase.obj
 0002:00004058       ??_R3CAFCException@@8      10040058     AFCDataBase.obj
 0002:00004068       ??_R2CAFCException@@8      10040068     AFCDataBase.obj
 0002:00004070       ??_R1A@?0A@EA@CAFCException@@8 10040070     AFCDataBase.obj
 0002:0000408c       ??_R4CDataBaseHandle@@6B@  1004008c     AFCDataBase.obj
 0002:000040a0       ??_R3CDataBaseHandle@@8    100400a0     AFCDataBase.obj
 0002:000040b0       ??_R2CDataBaseHandle@@8    100400b0     AFCDataBase.obj
 0002:000040bc       ??_R1A@?0A@EA@CDataBaseHandle@@8 100400bc     AFCDataBase.obj
 0002:000040d8       ??_R1A@?0A@EA@IDataBaseHandleService@@8 100400d8     AFCDataBase.obj
 0002:000040f4       ??_R3IDataBaseHandleService@@8 100400f4     AFCDataBase.obj
 0002:00004104       ??_R2IDataBaseHandleService@@8 10040104     AFCDataBase.obj
 0002:0000410c       ??_R4IDataBaseHandleService@@6B@ 1004010c     AFCDataBase.obj
 0002:00004120       ??_R4CUDPSocket@@6B@       10040120     AFCDataBase.obj
 0002:00004134       ??_R3CUDPSocket@@8         10040134     AFCDataBase.obj
 0002:00004144       ??_R2CUDPSocket@@8         10040144     AFCDataBase.obj
 0002:0000414c       ??_R1A@?0A@EA@CUDPSocket@@8 1004014c     AFCDataBase.obj
 0002:00004168       ??_R4CListenSocket@@6B@    10040168     AFCDataBase.obj
 0002:0000417c       ??_R3CListenSocket@@8      1004017c     AFCDataBase.obj
 0002:0000418c       ??_R2CListenSocket@@8      1004018c     AFCDataBase.obj
 0002:00004194       ??_R1A@?0A@EA@CListenSocket@@8 10040194     AFCDataBase.obj
 0002:000041b0       ??_R4CTCPSocket@@6B@       100401b0     AFCDataBase.obj
 0002:000041c4       ??_R3CTCPSocket@@8         100401c4     AFCDataBase.obj
 0002:000041d4       ??_R2CTCPSocket@@8         100401d4     AFCDataBase.obj
 0002:000041dc       ??_R1A@?0A@EA@CTCPSocket@@8 100401dc     AFCDataBase.obj
 0002:000041f8       ??_R4CTCPSocketForZ@@6B@   100401f8     AFCDataBase.obj
 0002:0000420c       ??_R3CTCPSocketForZ@@8     1004020c     AFCDataBase.obj
 0002:0000421c       ??_R2CTCPSocketForZ@@8     1004021c     AFCDataBase.obj
 0002:00004224       ??_R1A@?0A@EA@CTCPSocketForZ@@8 10040224     AFCDataBase.obj
 0002:00004240       ??_R4CAFCDataBaseManage@@6B@ 10040240     AFCDataBase.obj
 0002:00004254       ??_R3CAFCDataBaseManage@@8 10040254     AFCDataBase.obj
 0002:00004264       ??_R2CAFCDataBaseManage@@8 10040264     AFCDataBase.obj
 0002:0000426c       ??_R1A@?0A@EA@CAFCDataBaseManage@@8 1004026c     AFCDataBase.obj
 0002:00004288       ??_R4MD5_CTX@@6B@          10040288     AFCSocket.obj
 0002:0000429c       ??_R3MD5_CTX@@8            1004029c     AFCSocket.obj
 0002:000042ac       ??_R2MD5_CTX@@8            100402ac     AFCSocket.obj
 0002:000042b4       ??_R1A@?0A@EA@MD5_CTX@@8   100402b4     AFCSocket.obj
 0002:000042d0       ??_R4CTCPClientSocket@@6B@ 100402d0     AFCSocket.obj
 0002:000042e4       ??_R3CTCPClientSocket@@8   100402e4     AFCSocket.obj
 0002:000042f4       ??_R2CTCPClientSocket@@8   100402f4     AFCSocket.obj
 0002:00004308       ??_R1A@?0A@EA@CTCPClientSocket@@8 10040308     AFCSocket.obj
 0002:00004324       ??_R1A@?0A@EA@CWnd@@8      10040324     AFCSocket.obj
 0002:00004340       ??_R3CWnd@@8               10040340     AFCSocket.obj
 0002:00004350       ??_R2CWnd@@8               10040350     AFCSocket.obj
 0002:00004360       ??_R1A@?0A@EA@CCmdTarget@@8 10040360     AFCSocket.obj
 0002:0000437c       ??_R3CCmdTarget@@8         1004037c     AFCSocket.obj
 0002:0000438c       ??_R2CCmdTarget@@8         1004038c     AFCSocket.obj
 0002:00004398       ??_R1A@?0A@EA@CObject@@8   10040398     AFCSocket.obj
 0002:000043b4       ??_R3CObject@@8            100403b4     AFCSocket.obj
 0002:000043c4       ??_R2CObject@@8            100403c4     AFCSocket.obj
 0002:000043cc       ??_R4CTCPSocketManage@@6B@ 100403cc     AFCSocket.obj
 0002:000043e0       ??_R3CTCPSocketManage@@8   100403e0     AFCSocket.obj
 0002:000043f0       ??_R2CTCPSocketManage@@8   100403f0     AFCSocket.obj
 0002:000043f8       ??_R1A@?0A@EA@CTCPSocketManage@@8 100403f8     AFCSocket.obj
 0002:00004414       ??_R4CTCPSocketManageForZ@@6B@ 10040414     AFCSocket.obj
 0002:00004428       ??_R3CTCPSocketManageForZ@@8 10040428     AFCSocket.obj
 0002:00004438       ??_R2CTCPSocketManageForZ@@8 10040438     AFCSocket.obj
 0002:00004440       ??_R1A@?0A@EA@CTCPSocketManageForZ@@8 10040440     AFCSocket.obj
 0002:0000445c       ??_R4CTCPSocketForWeb@@6B@ 1004045c     AFCWebSocket.obj
 0002:00004470       ??_R3CTCPSocketForWeb@@8   10040470     AFCWebSocket.obj
 0002:00004480       ??_R2CTCPSocketForWeb@@8   10040480     AFCWebSocket.obj
 0002:00004488       ??_R1A@?0A@EA@CTCPSocketForWeb@@8 10040488     AFCWebSocket.obj
 0002:000044a4       ??_R4CTCPSocketManageForWeb@@6B@ 100404a4     AFCWebSocket.obj
 0002:000044b8       ??_R3CTCPSocketManageForWeb@@8 100404b8     AFCWebSocket.obj
 0002:000044c8       ??_R2CTCPSocketManageForWeb@@8 100404c8     AFCWebSocket.obj
 0002:000044d0       ??_R1A@?0A@EA@CTCPSocketManageForWeb@@8 100404d0     AFCWebSocket.obj
 0002:000044ec       ??_R4CDataLine@@6B@        100404ec     DataLine.obj
 0002:00004500       ??_R3CDataLine@@8          10040500     DataLine.obj
 0002:00004510       ??_R2CDataLine@@8          10040510     DataLine.obj
 0002:00004518       ??_R1A@?0A@EA@CDataLine@@8 10040518     DataLine.obj
 0002:00004534       ??_R4?$CList@PAUListItemData@@PAU1@@@6B@ 10040534     DataLine.obj
 0002:00004548       ??_R3?$CList@PAUListItemData@@PAU1@@@8 10040548     DataLine.obj
 0002:00004558       ??_R2?$CList@PAUListItemData@@PAU1@@@8 10040558     DataLine.obj
 0002:00004564       ??_R1A@?0A@EA@?$CList@PAUListItemData@@PAU1@@@8 10040564     DataLine.obj
 0002:00004580       ??_R4?$basic_ifstream@DU?$char_traits@D@std@@@std@@6B@ 10040580     HNFilter.obj
 0002:00004594       ??_R3?$basic_ifstream@DU?$char_traits@D@std@@@std@@8 10040594     HNFilter.obj
 0002:000045a4       ??_R2?$basic_ifstream@DU?$char_traits@D@std@@@std@@8 100405a4     HNFilter.obj
 0002:000045bc       ??_R1A@?0A@EA@?$basic_ifstream@DU?$char_traits@D@std@@@std@@8 100405bc     HNFilter.obj
 0002:000045d8       ??_R1A@?0A@EA@?$basic_istream@DU?$char_traits@D@std@@@std@@8 100405d8     HNFilter.obj
 0002:000045f4       ??_R3?$basic_istream@DU?$char_traits@D@std@@@std@@8 100405f4     HNFilter.obj
 0002:00004604       ??_R2?$basic_istream@DU?$char_traits@D@std@@@std@@8 10040604     HNFilter.obj
 0002:00004618       ??_R1A@A@3FA@?$basic_ios@DU?$char_traits@D@std@@@std@@8 10040618     HNFilter.obj
 0002:00004634       ??_R3?$basic_ios@DU?$char_traits@D@std@@@std@@8 10040634     HNFilter.obj
 0002:00004644       ??_R2?$basic_ios@DU?$char_traits@D@std@@@std@@8 10040644     HNFilter.obj
 0002:00004654       ??_R1A@?0A@EA@?$basic_ios@DU?$char_traits@D@std@@@std@@8 10040654     HNFilter.obj
 0002:00004670       ??_R1A@?0A@EA@ios_base@std@@8 10040670     HNFilter.obj
 0002:0000468c       ??_R3ios_base@std@@8       1004068c     HNFilter.obj
 0002:0000469c       ??_R2ios_base@std@@8       1004069c     HNFilter.obj
 0002:000046a8       ??_R17?0A@EA@?$_Iosb@H@std@@8 100406a8     HNFilter.obj
 0002:000046c4       ??_R3?$_Iosb@H@std@@8      100406c4     HNFilter.obj
 0002:000046d4       ??_R2?$_Iosb@H@std@@8      100406d4     HNFilter.obj
 0002:000046dc       ??_R1A@?0A@EA@?$_Iosb@H@std@@8 100406dc     HNFilter.obj
 0002:000046f8       ??_R1A@A@3EA@ios_base@std@@8 100406f8     HNFilter.obj
 0002:00004714       ??_R17A@3EA@?$_Iosb@H@std@@8 10040714     HNFilter.obj
 0002:00004730       ??_R4?$basic_filebuf@DU?$char_traits@D@std@@@std@@6B@ 10040730     HNFilter.obj
 0002:00004744       ??_R3?$basic_filebuf@DU?$char_traits@D@std@@@std@@8 10040744     HNFilter.obj
 0002:00004754       ??_R2?$basic_filebuf@DU?$char_traits@D@std@@@std@@8 10040754     HNFilter.obj
 0002:00004760       ??_R1A@?0A@EA@?$basic_filebuf@DU?$char_traits@D@std@@@std@@8 10040760     HNFilter.obj
 0002:0000477c       ??_R1A@?0A@EA@?$basic_streambuf@DU?$char_traits@D@std@@@std@@8 1004077c     HNFilter.obj
 0002:00004798       ??_R3?$basic_streambuf@DU?$char_traits@D@std@@@std@@8 10040798     HNFilter.obj
 0002:000047a8       ??_R2?$basic_streambuf@DU?$char_traits@D@std@@@std@@8 100407a8     HNFilter.obj
 0002:000047b0       ??_R4HNRC4@HN@@6B@         100407b0     HNRC4.obj
 0002:000047c4       ??_R3HNRC4@HN@@8           100407c4     HNRC4.obj
 0002:000047d4       ??_R2HNRC4@HN@@8           100407d4     HNRC4.obj
 0002:000047dc       ??_R1A@?0A@EA@HNRC4@HN@@8  100407dc     HNRC4.obj
 0002:000047f8       ??_R4CBcfKeyItem@@6B@      100407f8     MainManage.obj
 0002:0000480c       ??_R3CBcfKeyItem@@8        1004080c     MainManage.obj
 0002:0000481c       ??_R2CBcfKeyItem@@8        1004081c     MainManage.obj
 0002:00004828       ??_R1A@?0A@EA@CBcfKeyItem@@8 10040828     MainManage.obj
 0002:00004844       ??_R1A@?0A@EA@CBcfListItem@@8 10040844     MainManage.obj
 0002:00004860       ??_R3CBcfListItem@@8       10040860     MainManage.obj
 0002:00004870       ??_R2CBcfListItem@@8       10040870     MainManage.obj
 0002:00004878       ??_R4CBcfListItem@@6B@     10040878     MainManage.obj
 0002:0000488c       ??_R4CBcfSectionItem@@6B@  1004088c     MainManage.obj
 0002:000048a0       ??_R3CBcfSectionItem@@8    100408a0     MainManage.obj
 0002:000048b0       ??_R2CBcfSectionItem@@8    100408b0     MainManage.obj
 0002:000048bc       ??_R1A@?0A@EA@CBcfSectionItem@@8 100408bc     MainManage.obj
 0002:000048d8       ??_R4CBcfFileNameItem@@6B@ 100408d8     MainManage.obj
 0002:000048ec       ??_R3CBcfFileNameItem@@8   100408ec     MainManage.obj
 0002:000048fc       ??_R2CBcfFileNameItem@@8   100408fc     MainManage.obj
 0002:00004908       ??_R1A@?0A@EA@CBcfFileNameItem@@8 10040908     MainManage.obj
 0002:00004924       ??_R4CBaseMainManage@@6BIServerSocketService@@@ 10040924     MainManage.obj
 0002:00004938       ??_R3CBaseMainManage@@8    10040938     MainManage.obj
 0002:00004948       ??_R2CBaseMainManage@@8    10040948     MainManage.obj
 0002:00004958       ??_R1A@?0A@EA@CBaseMainManage@@8 10040958     MainManage.obj
 0002:00004974       ??_R1A@?0A@EA@IServerSocketService@@8 10040974     MainManage.obj
 0002:00004990       ??_R3IServerSocketService@@8 10040990     MainManage.obj
 0002:000049a0       ??_R2IServerSocketService@@8 100409a0     MainManage.obj
 0002:000049a8       ??_R13?0A@EA@IDataBaseResultService@@8 100409a8     MainManage.obj
 0002:000049c4       ??_R3IDataBaseResultService@@8 100409c4     MainManage.obj
 0002:000049d4       ??_R2IDataBaseResultService@@8 100409d4     MainManage.obj
 0002:000049dc       ??_R1A@?0A@EA@IDataBaseResultService@@8 100409dc     MainManage.obj
 0002:000049f8       ??_R4CBaseMainManage@@6BIDataBaseResultService@@@ 100409f8     MainManage.obj
 0002:00004a0c       ??_R4IServerSocketService@@6B@ 10040a0c     MainManage.obj
 0002:00004a20       ??_R4IDataBaseResultService@@6B@ 10040a20     MainManage.obj
 0002:00004a34       ??_R4CBaseMainManageForWeb@@6BIServerSocketServiceForWeb@@@ 10040a34     MainManageForWeb.obj
 0002:00004a48       ??_R3CBaseMainManageForWeb@@8 10040a48     MainManageForWeb.obj
 0002:00004a58       ??_R2CBaseMainManageForWeb@@8 10040a58     MainManageForWeb.obj
 0002:00004a68       ??_R1A@?0A@EA@CBaseMainManageForWeb@@8 10040a68     MainManageForWeb.obj
 0002:00004a84       ??_R1A@?0A@EA@IServerSocketServiceForWeb@@8 10040a84     MainManageForWeb.obj
 0002:00004aa0       ??_R3IServerSocketServiceForWeb@@8 10040aa0     MainManageForWeb.obj
 0002:00004ab0       ??_R2IServerSocketServiceForWeb@@8 10040ab0     MainManageForWeb.obj
 0002:00004ab8       ??_R4CBaseMainManageForWeb@@6BIDataBaseResultService@@@ 10040ab8     MainManageForWeb.obj
 0002:00004acc       ??_R4IServerSocketServiceForWeb@@6B@ 10040acc     MainManageForWeb.obj
 0002:00004ae0       ??_R4CBaseMainManageForZ@@6BIServerSocketServiceForZ@@@ 10040ae0     MainManageForZ.obj
 0002:00004af4       ??_R3CBaseMainManageForZ@@8 10040af4     MainManageForZ.obj
 0002:00004b04       ??_R2CBaseMainManageForZ@@8 10040b04     MainManageForZ.obj
 0002:00004b14       ??_R1A@?0A@EA@CBaseMainManageForZ@@8 10040b14     MainManageForZ.obj
 0002:00004b30       ??_R1A@?0A@EA@IServerSocketServiceForZ@@8 10040b30     MainManageForZ.obj
 0002:00004b4c       ??_R3IServerSocketServiceForZ@@8 10040b4c     MainManageForZ.obj
 0002:00004b5c       ??_R2IServerSocketServiceForZ@@8 10040b5c     MainManageForZ.obj
 0002:00004b64       ??_R4CBaseMainManageForZ@@6BIDataBaseResultService@@@ 10040b64     MainManageForZ.obj
 0002:00004b78       ??_R4IServerSocketServiceForZ@@6B@ 10040b78     MainManageForZ.obj
 0002:00004b8c       ??_R4type_info@@6B@        10040b8c     msvcrt:ti_inst.obj
 0002:00004ba0       ??_R3type_info@@8          10040ba0     msvcrt:ti_inst.obj
 0002:00004bb0       ??_R2type_info@@8          10040bb0     msvcrt:ti_inst.obj
 0002:00004bb8       ??_R1A@?0A@EA@type_info@@8 10040bb8     msvcrt:ti_inst.obj
 0002:00004be0       ___safe_se_handler_table   10040be0     <linker-defined>
 0002:00004e84       ___rtc_iaa                 10040e84     msvcrt:_initsect_.obj
 0002:00004e88       ___rtc_izz                 10040e88     msvcrt:_initsect_.obj
 0002:00004e8c       ___rtc_taa                 10040e8c     msvcrt:_initsect_.obj
 0002:00004e90       ___rtc_tzz                 10040e90     msvcrt:_initsect_.obj
 0002:00004f58       __TI2?AVbad_alloc@std@@    10040f58     Base64.obj
 0002:00004f68       __CTA2?AVbad_alloc@std@@   10040f68     Base64.obj
 0002:00004f74       __CT??_R0?AVbad_alloc@std@@@8??0bad_alloc@std@@QAE@ABV01@@Z12 10040f74     Base64.obj
 0002:00004f90       __CT??_R0?AVexception@std@@@8??0exception@std@@QAE@ABV01@@Z12 10040f90     Base64.obj
 0002:00005304       __TI2PAVCAFCException@@    10041304     AFCDataBase.obj
 0002:00005360       __CTA2PAVCAFCException@@   10041360     AFCDataBase.obj
 0002:0000536c       __CT??_R0PAVCAFCException@@@84 1004136c     AFCDataBase.obj
 0002:00005388       __CT??_R0PAX@84            10041388     AFCDataBase.obj
 0002:0000557c       __TI2PAD                   1004157c     AFCSocket.obj
 0002:000055e4       __CTA2PAD                  100415e4     AFCSocket.obj
 0002:000055f0       __CT??_R0PAD@84            100415f0     AFCSocket.obj
 0002:00006b14       __TI2?AVbad_cast@std@@     10042b14     HNFilter.obj
 0002:00006b50       __CTA2?AVbad_cast@std@@    10042b50     HNFilter.obj
 0002:00006b5c       __CT??_R0?AVbad_cast@std@@@8??0bad_cast@std@@QAE@ABV01@@Z12 10042b5c     HNFilter.obj
 0002:00007db8       __IMPORT_DESCRIPTOR_WS2_32 10043db8     Ws2_32:WS2_32.dll
 0002:00007dcc       __IMPORT_DESCRIPTOR_CfgEngine 10043dcc     cfgEngine:CfgEngine.dll
 0002:00007de0       __IMPORT_DESCRIPTOR_HNlibSqlEngine 10043de0     HNlibSqlEngine:HNlibSqlEngine.dll
 0002:00007df4       __IMPORT_DESCRIPTOR_mfc100 10043df4     mfc100:mfc100.dll
 0002:00007e08       __IMPORT_DESCRIPTOR_MSVCR100 10043e08     msvcrt:MSVCR100.dll
 0002:00007e1c       __IMPORT_DESCRIPTOR_KERNEL32 10043e1c     kernel32:KERNEL32.dll
 0002:00007e30       __IMPORT_DESCRIPTOR_USER32 10043e30     user32:USER32.dll
 0002:00007e44       __IMPORT_DESCRIPTOR_GDI32  10043e44     gdi32:GDI32.dll
 0002:00007e58       __IMPORT_DESCRIPTOR_ole32  10043e58     ole32:ole32.dll
 0002:00007e6c       __IMPORT_DESCRIPTOR_OLEAUT32 10043e6c     oleaut32:OLEAUT32.dll
 0002:00007e80       __IMPORT_DESCRIPTOR_MSVCP100 10043e80     msvcprt:MSVCP100.dll
 0002:00007e94       __NULL_IMPORT_DESCRIPTOR   10043e94     Ws2_32:WS2_32.dll
 0003:00000000       ??_R0?AVbad_alloc@std@@@8  1004d000     Base64.obj
 0003:0000001c       ??_R0?AVexception@std@@@8  1004d01c     Base64.obj
 0003:0000004c       ??_R0?AVXMLText@tinyxml2@@@8 1004d04c     tinyxml2.obj
 0003:0000006c       ??_R0?AVXMLNode@tinyxml2@@@8 1004d06c     tinyxml2.obj
 0003:0000008c       ??_R0?AVXMLComment@tinyxml2@@@8 1004d08c     tinyxml2.obj
 0003:000000b0       ??_R0?AVXMLDeclaration@tinyxml2@@@8 1004d0b0     tinyxml2.obj
 0003:000000d8       ??_R0?AVXMLUnknown@tinyxml2@@@8 1004d0d8     tinyxml2.obj
 0003:000000fc       ??_R0?AVXMLElement@tinyxml2@@@8 1004d0fc     tinyxml2.obj
 0003:00000120       ??_R0?AVXMLAttribute@tinyxml2@@@8 1004d120     tinyxml2.obj
 0003:00000144       ??_R0?AVXMLDocument@tinyxml2@@@8 1004d144     tinyxml2.obj
 0003:00000168       ??_R0?AV?$MemPoolT@$0DE@@tinyxml2@@@8 1004d168     tinyxml2.obj
 0003:00000190       ??_R0?AVMemPool@tinyxml2@@@8 1004d190     tinyxml2.obj
 0003:000001b0       ??_R0?AV?$MemPoolT@$0CE@@tinyxml2@@@8 1004d1b0     tinyxml2.obj
 0003:000001d8       ??_R0?AV?$MemPoolT@$0DA@@tinyxml2@@@8 1004d1d8     tinyxml2.obj
 0003:00000200       ??_R0?AV?$MemPoolT@$0CM@@tinyxml2@@@8 1004d200     tinyxml2.obj
 0003:00000228       ??_R0?AVCAFCException@@@8  1004d228     AFCDataBase.obj
 0003:00000244       ??_R0?AVCDataBaseHandle@@@8 1004d244     AFCDataBase.obj
 0003:00000264       ??_R0?AUIDataBaseHandleService@@@8 1004d264     AFCDataBase.obj
 0003:0000028c       ??_R0?AVCUDPSocket@@@8     1004d28c     AFCDataBase.obj
 0003:000002a8       ??_R0?AVCListenSocket@@@8  1004d2a8     AFCDataBase.obj
 0003:000002c4       ??_R0?AVCTCPSocket@@@8     1004d2c4     AFCDataBase.obj
 0003:000002e0       ??_R0?AVCTCPSocketForZ@@@8 1004d2e0     AFCDataBase.obj
 0003:00000300       ??_R0?AVCAFCDataBaseManage@@@8 1004d300     AFCDataBase.obj
 0003:00000324       ??_R0PAVCAFCException@@@8  1004d324     AFCDataBase.obj
 0003:00000340       ??_R0PAX@8                 1004d340     AFCDataBase.obj
 0003:00000350       ??_R0?AVMD5_CTX@@@8        1004d350     AFCSocket.obj
 0003:00000368       ??_R0PAD@8                 1004d368     AFCSocket.obj
 0003:00000378       ??_R0?AVCTCPClientSocket@@@8 1004d378     AFCSocket.obj
 0003:00000398       ??_R0?AVCWnd@@@8           1004d398     AFCSocket.obj
 0003:000003ac       ??_R0?AVCCmdTarget@@@8     1004d3ac     AFCSocket.obj
 0003:000003c8       ??_R0?AVCObject@@@8        1004d3c8     AFCSocket.obj
 0003:000003e0       ??_R0?AVCTCPSocketManage@@@8 1004d3e0     AFCSocket.obj
 0003:00000400       ?dwBaseID@?1??GetHandleID@CTCPSocketManage@@CAKXZ@4JA 1004d400     AFCSocket.obj
 0003:00000404       ??_R0?AVCTCPSocketManageForZ@@@8 1004d404     AFCSocket.obj
 0003:00000428       ?dwBaseID@?1??GetHandleID@CTCPSocketManageForZ@@CAKXZ@4JA 1004d428     AFCSocket.obj
 0003:0000042c       ??_R0?AVCTCPSocketForWeb@@@8 1004d42c     AFCWebSocket.obj
 0003:0000044c       ??_R0?AVCTCPSocketManageForWeb@@@8 1004d44c     AFCWebSocket.obj
 0003:00000474       ?dwBaseID@?1??GetHandleID@CTCPSocketManageForWeb@@CAKXZ@4JA 1004d474     AFCWebSocket.obj
 0003:00000478       ??_R0?AVCDataLine@@@8      1004d478     DataLine.obj
 0003:00000490       ??_R0?AV?$CList@PAUListItemData@@PAU1@@@@8 1004d490     DataLine.obj
 0003:000004c0       ??_R0?AV?$basic_ifstream@DU?$char_traits@D@std@@@std@@@8 1004d4c0     HNFilter.obj
 0003:000004fc       ??_R0?AV?$basic_istream@DU?$char_traits@D@std@@@std@@@8 1004d4fc     HNFilter.obj
 0003:00000538       ??_R0?AV?$basic_ios@DU?$char_traits@D@std@@@std@@@8 1004d538     HNFilter.obj
 0003:00000570       ??_R0?AVios_base@std@@@8   1004d570     HNFilter.obj
 0003:0000058c       ??_R0?AV?$_Iosb@H@std@@@8  1004d58c     HNFilter.obj
 0003:000005a8       ??_R0?AV?$basic_filebuf@DU?$char_traits@D@std@@@std@@@8 1004d5a8     HNFilter.obj
 0003:000005e4       ??_R0?AV?$basic_streambuf@DU?$char_traits@D@std@@@std@@@8 1004d5e4     HNFilter.obj
 0003:00000620       ??_R0?AVbad_cast@std@@@8   1004d620     HNFilter.obj
 0003:0000063c       ??_R0?AVHNRC4@HN@@@8       1004d63c     HNRC4.obj
 0003:00000654       ??_R0?AVCBcfKeyItem@@@8    1004d654     MainManage.obj
 0003:00000670       ??_R0?AVCBcfListItem@@@8   1004d670     MainManage.obj
 0003:0000068c       ??_R0?AVCBcfSectionItem@@@8 1004d68c     MainManage.obj
 0003:000006ac       ??_R0?AVCBcfFileNameItem@@@8 1004d6ac     MainManage.obj
 0003:000006cc       ??_R0?AVCBaseMainManage@@@8 1004d6cc     MainManage.obj
 0003:000006ec       ??_R0?AUIServerSocketService@@@8 1004d6ec     MainManage.obj
 0003:00000710       ??_R0?AUIDataBaseResultService@@@8 1004d710     MainManage.obj
 0003:00000738       ??_R0?AVCBaseMainManageForWeb@@@8 1004d738     MainManageForWeb.obj
 0003:0000075c       ??_R0?AUIServerSocketServiceForWeb@@@8 1004d75c     MainManageForWeb.obj
 0003:00000788       ??_R0?AVCBaseMainManageForZ@@@8 1004d788     MainManageForZ.obj
 0003:000007ac       ??_R0?AUIServerSocketServiceForZ@@@8 1004d7ac     MainManageForZ.obj
 0003:000007d4       ??_R0PAVCException@@@8     1004d7d4     WriteLog.obj
 0003:000007f0       ___security_cookie         1004d7f0     msvcrt:gs_cookie.obj
 0003:000007f4       ___security_cookie_complement 1004d7f4     msvcrt:gs_cookie.obj
 0003:000007f8       ??_R0?AVtype_info@@@8      1004d7f8     msvcrt:ti_inst.obj
 0003:00000810       ___native_dllmain_reason   1004d810     msvcrt:natstart.obj
 0003:00000814       ___native_vcclrit_reason   1004d814     msvcrt:natstart.obj
 0003:00000820       __afxForceEXTDLL           1004d820     AFCComDllEx.obj
 0003:00000868       ?m_bShowError@CAFCException@@1_NA 1004d868     AFCException.obj
 0003:00000870       ?g_chSecretKey@@3PAEA      1004d870     AFCSocket.obj
 0003:000008f4       ?g_StrSecretKey@@3V?$CStringT@DV?$StrTraitMFC_DLL@DV?$ChTraitsCRT@D@ATL@@@@@ATL@@A 1004d8f4     AFCSocket.obj
 0003:000008f8       ?_Stinit@?1??_Init@?$basic_filebuf@DU?$char_traits@D@std@@@std@@IAEXPAU_iobuf@@W4_Initfl@23@@Z@4HA 1004d8f8     HNFilter.obj
 0003:000008fc       ?_Psave@?$_Facetptr@V?$codecvt@DDH@std@@@std@@2PBVfacet@locale@2@B 1004d8fc     HNFilter.obj
 0003:00000a28       ?mapFile@CBcfFile@@0V?$map@V?$CStringT@DV?$StrTraitMFC_DLL@DV?$ChTraitsCRT@D@ATL@@@@@ATL@@PAVCBcfFileNameItem@@U?$less@V?$CStringT@DV?$StrTraitMFC_DLL@DV?$ChTraitsCRT@D@ATL@@@@@ATL@@@std@@V?$allocator@U?$pair@$$CBV?$CStringT@DV?$StrTraitMFC_DLL@DV?$ChTraitsCRT@D@ATL@@@@@ATL@@PAVCBcfFileNameItem@@@std@@@5@@std@@A 1004da28     MainManage.obj
 0003:00000a78       ?g_bInit@CProcessManage@@1_NA 1004da78     ProcessManage.obj
 0003:00000a7c       ?g_pManageArray@CProcessManage@@1VCPtrArray@@A 1004da7c     ProcessManage.obj
 0003:00000a90       ?g_Lock@CProcessManage@@1VCAFCSignedLock@@A 1004da90     ProcessManage.obj
 0003:00000aac       ___@@_PchSym_@00@UsmhxrvmgUjshvieviUkozgulinUhvieviUzuxxlnvcUivovzhvUhgwzucOlyq@ 1004daac     stdafx.obj
 0003:00000ab0       ?endchar@@3V?$basic_string@DU?$char_traits@D@std@@V?$allocator@D@2@@std@@A 1004dab0     HNTree.obj
 0003:00000acc       __afxForceEXCLUDE          1004dacc     mfcs100:nolib.obj
 0003:00000ad0       __afxForceSTDAFX           1004dad0     mfcs100:stdafx.obj
 0003:00000dfc       ?__type_info_root_node@@3U__type_info_node@@A 1004ddfc     msvcrt:tncleanup.obj
 0003:00000e0c       ___native_startup_state    1004de0c     <common>
 0003:00000e10       ___native_startup_lock     1004de10     <common>
 0003:00000e14       ___sse2_available          1004de14     <common>
 0003:00000e18       ___dyn_tls_init_callback   1004de18     <common>
 0003:00000e1c       ___onexitend               1004de1c     <common>
 0003:00000e20       ___onexitbegin             1004de20     <common>

 entry point at        0001:00037332

 Static symbols

 0001:000000a0       ?base64EncodeImpl@HN@@YAIPBDIAAV?$basic_string@DU?$char_traits@D@std@@V?$allocator@D@2@@std@@@Z 100010a0 f   Base64.obj
 0001:00000de3       __catch$?_Copy@?$basic_string@DU?$char_traits@D@std@@V?$allocator@D@2@@std@@QAEXII@Z$0 10001de3 f i Base64.obj
 0001:00000e0d       __catch$?_Copy@?$basic_string@DU?$char_traits@D@std@@V?$allocator@D@2@@std@@QAEXII@Z$1 10001e0d f i Base64.obj
 0001:00003e40       ?IsBigEnd@@YA_NXZ          10004e40 f   WebSocketAssitInterface.obj
 0001:00004c5e       __catch$?reserve@?$vector@DV?$allocator@D@std@@@std@@QAEXI@Z$0 10005c5e f i WebSocketAssitInterface.obj
 0001:0000b128       __catch$?DataServiceThread@CAFCDataBaseManage@@CGIPAX@Z$0 1000c128 f   AFCDataBase.obj
 0001:0000e427       __catch$?ThreadAccept@CTCPSocketManage@@CGIPAX@Z$0 1000f427 f i AFCSocket.obj
 0001:0000e870       __catch$?InitSocketWnd@CTCPClientSocket@@QAE_NXZ$0 1000f870 f i AFCSocket.obj
 0001:0000ece2       __catch$?OnSocketNotifyMesage@CTCPClientSocket@@AAEJIJ@Z$0 1000fce2 f i AFCSocket.obj
 0001:000103e7       __catch$?OnRecvCompleted@CTCPSocket@@IAE_NK@Z$0 100113e7 f i AFCSocket.obj
 0001:0001076a       __catch$??1CTCPSocketManage@@UAE@XZ$0 1001176a f   AFCSocket.obj
 0001:00010b8a       __catch$?UnInit@CTCPSocketManage@@UAE_NXZ$0 10011b8a f   AFCSocket.obj
 0001:00011ca4       __catch$?ThreadRSSocket@CTCPSocketManage@@CGIPAX@Z$0 10012ca4 f i AFCSocket.obj
 0001:00011e97       __catch$?ThreadBatchSend@CTCPSocketManage@@CGIPAX@Z$0 10012e97 f i AFCSocket.obj
 0001:00012477       __catch$?ThreadAccept@CTCPSocketManageForZ@@CGIPAX@Z$0 10013477 f i AFCSocket.obj
 0001:000134a4       __catch$?OnRecvCompleted@CTCPSocketForZ@@IAE_NK@Z$0 100144a4 f i AFCSocket.obj
 0001:0001386a       __catch$??1CTCPSocketManageForZ@@UAE@XZ$0 1001486a f   AFCSocket.obj
 0001:00013ce0       __catch$?UnInit@CTCPSocketManageForZ@@UAE_NXZ$0 10014ce0 f   AFCSocket.obj
 0001:00015314       __catch$?ThreadRSSocket@CTCPSocketManageForZ@@CGIPAX@Z$0 10016314 f i AFCSocket.obj
 0001:0001550a       __catch$?ThreadBatchSend@CTCPSocketManageForZ@@CGIPAX@Z$0 1001650a f i AFCSocket.obj
 0001:000157ff       __catch$?ThreadUnionSend@CTCPSocketManageForZ@@CGIPAX@Z$0 100167ff f i AFCSocket.obj
 0001:000171ae       __catch$?reserve@?$vector@HV?$allocator@H@std@@@std@@QAEXI@Z$0 100181ae f i AFCSocket.obj
 0001:000177e7       __catch$?Init@?$CAFCPtrArray@VCTCPSocket@@@@QAE_NII@Z$0 100187e7 f i AFCSocket.obj
 0001:00017a37       __catch$?Init@?$CAFCPtrArray@VCTCPSocketForZ@@@@QAE_NII@Z$0 10018a37 f i AFCSocket.obj
 0001:00017abd       __catch$?UnInit@?$CAFCPtrArray@VCTCPSocketForZ@@@@QAE_NXZ$0 10018abd f i AFCSocket.obj
 0001:00017abd       __catch$?UnInit@?$CAFCPtrArray@VCTCPSocketForWeb@@@@QAE_NXZ$0 10018abd f i AFCSocket.obj
 0001:00017abd       __catch$?UnInit@?$CAFCPtrArray@VCTCPSocket@@@@QAE_NXZ$0 10018abd f i AFCSocket.obj
 0001:00017af9       __catch$?UnInit@?$CAFCPtrArray@VCTCPSocketForZ@@@@QAE_NXZ$2 10018af9 f i AFCSocket.obj
 0001:00017af9       __catch$?UnInit@?$CAFCPtrArray@VCTCPSocket@@@@QAE_NXZ$2 10018af9 f i AFCSocket.obj
 0001:00017af9       __catch$?UnInit@?$CAFCPtrArray@VCTCPSocketForWeb@@@@QAE_NXZ$2 10018af9 f i AFCSocket.obj
 0001:00017b82       __catch$?UnInit@?$CAFCPtrArray@VCTCPSocket@@@@QAE_NXZ$4 10018b82 f i AFCSocket.obj
 0001:00017b82       __catch$?UnInit@?$CAFCPtrArray@VCTCPSocketForWeb@@@@QAE_NXZ$4 10018b82 f i AFCSocket.obj
 0001:00017b82       __catch$?UnInit@?$CAFCPtrArray@VCTCPSocketForZ@@@@QAE_NXZ$4 10018b82 f i AFCSocket.obj
 0001:000188c7       __catch$??$_Buynode@U?$pair@HV?$vector@HV?$allocator@H@std@@@std@@@std@@@?$_Tree_val@V?$_Tmap_traits@HV?$vector@HV?$allocator@H@std@@@std@@U?$less@H@2@V?$allocator@U?$pair@$$CBHV?$vector@HV?$allocator@H@std@@@std@@@std@@@2@$0A@@std@@@std@@QAEPAU_Node@?$_Tree_nod@V?$_Tmap_traits@HV?$vector@HV?$allocator@H@std@@@std@@U?$less@H@2@V?$allocator@U?$pair@$$CBHV?$vector@HV?$allocator@H@std@@@std@@@std@@@2@$0A@@std@@@1@$$QAU?$pair@HV?$vector@HV?$allocator@H@std@@@std@@@1@@Z$0 100198c7 f i AFCSocket.obj
 0001:00018bd2       __catch$??0?$vector@HV?$allocator@H@std@@@std@@QAE@ABV01@@Z$0 10019bd2 f i AFCSocket.obj
 0001:00018f66       __catch$??$_Uninit_copy@V?$_Vector_const_iterator@V?$_Vector_val@HV?$allocator@H@std@@@std@@@std@@PAHV?$allocator@H@2@@std@@YAPAHV?$_Vector_const_iterator@V?$_Vector_val@HV?$allocator@H@std@@@std@@@0@0PAHAAV?$allocator@H@0@U_Nonscalar_ptr_iterator_tag@0@@Z$0 10019f66 f i AFCSocket.obj
 0001:00019ee0       _time                      1001aee0 f   AFCWebSocket.obj
 0001:00019ee0       _time                      1001aee0 f   AFCWebSocket.obj
 0001:0001babf       __catch$?OnRecvCompleted@CTCPSocketForWeb@@IAE_NK@Z$0 1001cabf f i AFCWebSocket.obj
 0001:0001c3d0       ?getHandShakeKeyValue@@YA?AV?$basic_string@DU?$char_traits@D@std@@V?$allocator@D@2@@std@@V12@PBD@Z 1001d3d0 f   AFCWebSocket.obj
 0001:0001c76a       __catch$??1CTCPSocketManageForWeb@@UAE@XZ$0 1001d76a f   AFCWebSocket.obj
 0001:0001cbb6       __catch$?UnInit@CTCPSocketManageForWeb@@UAE_NXZ$0 1001dbb6 f   AFCWebSocket.obj
 0001:0001df04       __catch$?ThreadRSSocket@CTCPSocketManageForWeb@@CGIPAX@Z$0 1001ef04 f i AFCWebSocket.obj
 0001:0001e0fa       __catch$?ThreadBatchSend@CTCPSocketManageForWeb@@CGIPAX@Z$0 1001f0fa f i AFCWebSocket.obj
 0001:0001e78e       __catch$?ThreadAccept@CTCPSocketManageForWeb@@CGIPAX@Z$0 1001f78e f i AFCWebSocket.obj
 0001:0001eaaf       __catch$?ThreadUnionSend@CTCPSocketManageForWeb@@CGIPAX@Z$0 1001faaf f i AFCWebSocket.obj
 0001:0001f437       __catch$?Init@?$CAFCPtrArray@VCTCPSocketForWeb@@@@QAE_NII@Z$0 10020437 f i AFCWebSocket.obj
 0001:00020480       ?fastlz1_compress@@YAHPBXHPAX@Z 10021480 f   fastlz.obj
 0001:00020c10       ?fastlz2_compress@@YAHPBXHPAX@Z 10021c10 f   fastlz.obj
 0001:00021600       ?fastlz1_decompress@@YAHPBXHPAXH@Z 10022600 f   fastlz.obj
 0001:00021990       ?fastlz2_decompress@@YAHPBXHPAXH@Z 10022990 f   fastlz.obj
 0001:00023a5f       __catch$??0?$_Tree@V?$_Tmap_traits@V?$basic_string@DU?$char_traits@D@std@@V?$allocator@D@2@@std@@VHNTreeNode@@U?$less@V?$basic_string@DU?$char_traits@D@std@@V?$allocator@D@2@@std@@@2@V?$allocator@U?$pair@$$CBV?$basic_string@DU?$char_traits@D@std@@V?$allocator@D@2@@std@@VHNTreeNode@@@std@@@2@$0A@@std@@@std@@QAE@ABV01@@Z$0 10024a5f f i HNFilter.obj
 0001:00024fdc       __catch$?_Copy@?$_Tree@V?$_Tmap_traits@V?$basic_string@DU?$char_traits@D@std@@V?$allocator@D@2@@std@@VHNTreeNode@@U?$less@V?$basic_string@DU?$char_traits@D@std@@V?$allocator@D@2@@std@@@2@V?$allocator@U?$pair@$$CBV?$basic_string@DU?$char_traits@D@std@@V?$allocator@D@2@@std@@VHNTreeNode@@@std@@@2@$0A@@std@@@std@@IAEPAU_Node@?$_Tree_nod@V?$_Tmap_traits@V?$basic_string@DU?$char_traits@D@std@@V?$allocator@D@2@@std@@VHNTreeNode@@U?$less@V?$basic_string@DU?$char_traits@D@std@@V?$allocator@D@2@@std@@@2@V?$allocator@U?$pair@$$CBV?$basic_string@DU?$char_traits@D@std@@V?$allocator@D@2@@std@@VHNTreeNode@@@std@@@2@$0A@@std@@@2@PAU342@0@Z$0 10025fdc f i HNFilter.obj
 0001:000257b7       __catch$??$_Buynode@AAU?$pair@$$CBV?$basic_string@DU?$char_traits@D@std@@V?$allocator@D@2@@std@@VHNTreeNode@@@std@@@?$_Tree_val@V?$_Tmap_traits@V?$basic_string@DU?$char_traits@D@std@@V?$allocator@D@2@@std@@VHNTreeNode@@U?$less@V?$basic_string@DU?$char_traits@D@std@@V?$allocator@D@2@@std@@@2@V?$allocator@U?$pair@$$CBV?$basic_string@DU?$char_traits@D@std@@V?$allocator@D@2@@std@@VHNTreeNode@@@std@@@2@$0A@@std@@@std@@QAEPAU_Node@?$_Tree_nod@V?$_Tmap_traits@V?$basic_string@DU?$char_traits@D@std@@V?$allocator@D@2@@std@@VHNTreeNode@@U?$less@V?$basic_string@DU?$char_traits@D@std@@V?$allocator@D@2@@std@@@2@V?$allocator@U?$pair@$$CBV?$basic_string@DU?$char_traits@D@std@@V?$allocator@D@2@@std@@VHNTreeNode@@@std@@@2@$0A@@std@@@1@AAU?$pair@$$CBV?$basic_string@DU?$char_traits@D@std@@V?$allocator@D@2@@std@@VHNTreeNode@@@1@@Z$0 100267b7 f i HNFilter.obj
 0001:000283cb       __catch$??$?6U?$char_traits@D@std@@@std@@YAAAV?$basic_ostream@DU?$char_traits@D@std@@@0@AAV10@PBD@Z$0 100293cb f i HNSmtp.obj
 0001:00028d8b       __catch$?_Buynode@?$_List_val@PAUFILEINFO@@V?$allocator@PAUFILEINFO@@@std@@@std@@QAEPAU_Node@?$_List_nod@PAUFILEINFO@@V?$allocator@PAUFILEINFO@@@std@@@2@PAU342@0ABQAUFILEINFO@@@Z$0 10029d8b f i HNSmtp.obj
 0001:00029280       ?GetAppPath@@YA?AV?$CStringT@DV?$StrTraitMFC_DLL@DV?$ChTraitsCRT@D@ATL@@@@@ATL@@_N@Z 1002a280 f i MainManage.obj
 0001:0002b907       __catch$?LineDataHandleThread@CBaseMainManage@@CGIPAX@Z$0 1002c907 f   MainManage.obj
 0001:0002e287       __catch$??$_Buynode@U?$pair@$$CBV?$CStringT@DV?$StrTraitMFC_DLL@DV?$ChTraitsCRT@D@ATL@@@@@ATL@@PAVCBcfListItem@@@std@@@?$_Tree_val@V?$_Tmap_traits@V?$CStringT@DV?$StrTraitMFC_DLL@DV?$ChTraitsCRT@D@ATL@@@@@ATL@@PAVCBcfListItem@@U?$less@V?$CStringT@DV?$StrTraitMFC_DLL@DV?$ChTraitsCRT@D@ATL@@@@@ATL@@@std@@V?$allocator@U?$pair@$$CBV?$CStringT@DV?$StrTraitMFC_DLL@DV?$ChTraitsCRT@D@ATL@@@@@ATL@@PAVCBcfListItem@@@std@@@5@$0A@@std@@@std@@QAEPAU_Node@?$_Tree_nod@V?$_Tmap_traits@V?$CStringT@DV?$StrTraitMFC_DLL@DV?$ChTraitsCRT@D@ATL@@@@@ATL@@PAVCBcfListItem@@U?$less@V?$CStringT@DV?$StrTraitMFC_DLL@DV?$ChTraitsCRT@D@ATL@@@@@ATL@@@std@@V?$allocator@U?$pair@$$CBV?$CStringT@DV?$StrTraitMFC_DLL@DV?$ChTraitsCRT@D@ATL@@@@@ATL@@PAVCBcfListItem@@@std@@@5@$0A@@std@@@1@$$QAU?$pair@$$CBV?$CStringT@DV?$StrTraitMFC_DLL@DV?$ChTraitsCRT@D@ATL@@@@@ATL@@PAVCBcfListItem@@@1@@Z$0 1002f287 f i MainManage.obj
 0001:0002e287       __catch$??$_Buynode@U?$pair@$$CBV?$CStringT@DV?$StrTraitMFC_DLL@DV?$ChTraitsCRT@D@ATL@@@@@ATL@@PAVCBcfFileNameItem@@@std@@@?$_Tree_val@V?$_Tmap_traits@V?$CStringT@DV?$StrTraitMFC_DLL@DV?$ChTraitsCRT@D@ATL@@@@@ATL@@PAVCBcfFileNameItem@@U?$less@V?$CStringT@DV?$StrTraitMFC_DLL@DV?$ChTraitsCRT@D@ATL@@@@@ATL@@@std@@V?$allocator@U?$pair@$$CBV?$CStringT@DV?$StrTraitMFC_DLL@DV?$ChTraitsCRT@D@ATL@@@@@ATL@@PAVCBcfFileNameItem@@@std@@@5@$0A@@std@@@std@@QAEPAU_Node@?$_Tree_nod@V?$_Tmap_traits@V?$CStringT@DV?$StrTraitMFC_DLL@DV?$ChTraitsCRT@D@ATL@@@@@ATL@@PAVCBcfFileNameItem@@U?$less@V?$CStringT@DV?$StrTraitMFC_DLL@DV?$ChTraitsCRT@D@ATL@@@@@ATL@@@std@@V?$allocator@U?$pair@$$CBV?$CStringT@DV?$StrTraitMFC_DLL@DV?$ChTraitsCRT@D@ATL@@@@@ATL@@PAVCBcfFileNameItem@@@std@@@5@$0A@@std@@@1@$$QAU?$pair@$$CBV?$CStringT@DV?$StrTraitMFC_DLL@DV?$ChTraitsCRT@D@ATL@@@@@ATL@@PAVCBcfFileNameItem@@@1@@Z$0 1002f287 f i MainManage.obj
 0001:0002f907       __catch$?LineDataHandleThread@CBaseMainManageForWeb@@CGIPAX@Z$0 10030907 f   MainManageForWeb.obj
 0001:00030974       __catch$?LineDataHandleThread@CBaseMainManageForZ@@CGIPAX@Z$0 10031974 f   MainManageForZ.obj
 0001:00030a4d       __catch$?LineDataHandleThread@CBaseMainManageForZ@@CGIPAX@Z$2 10031a4d f   MainManageForZ.obj
 0001:00030bed       __catch$?WindowMsgThread@CBaseMainManage@@CGIPAX@Z$0 10031bed f   MainManageForZ.obj
 0001:00030bed       __catch$?WindowMsgThread@CBaseMainManageForZ@@CGIPAX@Z$0 10031bed f   MainManageForZ.obj
 0001:00030bed       __catch$?WindowMsgThread@CBaseMainManageForWeb@@CGIPAX@Z$0 10031bed f   MainManageForZ.obj
 0001:00032593       __catch$??0?$list@PAUFILEINFO@@V?$allocator@PAUFILEINFO@@@std@@@std@@QAE@ABV01@@Z$0 10033593 f i stdafx.obj
 0001:000327cc       __catch$??$_Insert@V?$_List_const_iterator@V?$_List_val@PAUFILEINFO@@V?$allocator@PAUFILEINFO@@@std@@@std@@@std@@@?$list@PAUFILEINFO@@V?$allocator@PAUFILEINFO@@@std@@@std@@QAEXV?$_List_const_iterator@V?$_List_val@PAUFILEINFO@@V?$allocator@PAUFILEINFO@@@std@@@std@@@1@00Uforward_iterator_tag@1@@Z$0 100337cc f i stdafx.obj
 0001:0003291c       __catch$?Dellog@@YAXHH@Z$0 1003391c f   WriteLog.obj
 0001:00032a3b       __catch$?WriteStr@@YAXPADHH@Z$0 10033a3b f   WriteLog.obj
 0001:00032c8b       __catch$?WriteError@@YAXPADHH@Z$0 10033c8b f   WriteLog.obj
 0001:00034237       __catch$??$_Buynode@U?$pair@V?$basic_string@DU?$char_traits@D@std@@V?$allocator@D@2@@std@@VHNTreeNode@@@std@@@?$_Tree_val@V?$_Tmap_traits@V?$basic_string@DU?$char_traits@D@std@@V?$allocator@D@2@@std@@VHNTreeNode@@U?$less@V?$basic_string@DU?$char_traits@D@std@@V?$allocator@D@2@@std@@@2@V?$allocator@U?$pair@$$CBV?$basic_string@DU?$char_traits@D@std@@V?$allocator@D@2@@std@@VHNTreeNode@@@std@@@2@$0A@@std@@@std@@QAEPAU_Node@?$_Tree_nod@V?$_Tmap_traits@V?$basic_string@DU?$char_traits@D@std@@V?$allocator@D@2@@std@@VHNTreeNode@@U?$less@V?$basic_string@DU?$char_traits@D@std@@V?$allocator@D@2@@std@@@2@V?$allocator@U?$pair@$$CBV?$basic_string@DU?$char_traits@D@std@@V?$allocator@D@2@@std@@VHNTreeNode@@@std@@@2@$0A@@std@@@1@$$QAU?$pair@V?$basic_string@DU?$char_traits@D@std@@V?$allocator@D@2@@std@@VHNTreeNode@@@1@@Z$0 10035237 f i HNTreeNode.obj
 0001:00036fc4       _pre_c_init                10037fc4 f   msvcrt:crtdll.obj
 0001:0003721c       ___DllMainCRTStartup       1003821c f   msvcrt:crtdll.obj
 0001:00037880       __unwindfunclet$??$?HDU?$char_traits@D@std@@V?$allocator@D@1@@std@@YA?AV?$basic_string@DU?$char_traits@D@std@@V?$allocator@D@2@@0@PBDABV10@@Z$0 10038880 f   Base64.obj
 0001:00037880       __unwindfunclet$?base64Encode@HN@@YA?AV?$basic_string@DU?$char_traits@D@std@@V?$allocator@D@2@@std@@PBDI@Z$0 10038880 f   Base64.obj
 0001:00037888       __unwindfunclet$?base64Encode@HN@@YA?AV?$basic_string@DU?$char_traits@D@std@@V?$allocator@D@2@@std@@PBDI@Z$1 10038888 f   Base64.obj
 0001:00037888       __unwindfunclet$??$?HDU?$char_traits@D@std@@V?$allocator@D@1@@std@@YA?AV?$basic_string@DU?$char_traits@D@std@@V?$allocator@D@2@@0@PBDABV10@@Z$1 10038888 f   Base64.obj
 0001:000378a1       __ehhandler$?base64Encode@HN@@YA?AV?$basic_string@DU?$char_traits@D@std@@V?$allocator@D@2@@std@@PBDI@Z 100388a1 f   Base64.obj
 0001:000378a1       __ehhandler$??$?HDU?$char_traits@D@std@@V?$allocator@D@1@@std@@YA?AV?$basic_string@DU?$char_traits@D@std@@V?$allocator@D@2@@0@PBDABV10@@Z 100388a1 f   Base64.obj
 0001:000378d0       __ehhandler$?_Copy@?$basic_string@DU?$char_traits@D@std@@V?$allocator@D@2@@std@@QAEXII@Z 100388d0 f   Base64.obj
 0001:000378f0       __unwindfunclet$?makeHandshakeResponse@HN@@YA?AV?$basic_string@DU?$char_traits@D@std@@V?$allocator@D@2@@std@@PBD@Z$0 100388f0 f   WebSocketAssitInterface.obj
 0001:000378f8       __unwindfunclet$?makeHandshakeResponse@HN@@YA?AV?$basic_string@DU?$char_traits@D@std@@V?$allocator@D@2@@std@@PBD@Z$1 100388f8 f   WebSocketAssitInterface.obj
 0001:00037900       __unwindfunclet$?makeHandshakeResponse@HN@@YA?AV?$basic_string@DU?$char_traits@D@std@@V?$allocator@D@2@@std@@PBD@Z$2 10038900 f   WebSocketAssitInterface.obj
 0001:0003790b       __unwindfunclet$?makeHandshakeResponse@HN@@YA?AV?$basic_string@DU?$char_traits@D@std@@V?$allocator@D@2@@std@@PBD@Z$3 1003890b f   WebSocketAssitInterface.obj
 0001:00037916       __unwindfunclet$?makeHandshakeResponse@HN@@YA?AV?$basic_string@DU?$char_traits@D@std@@V?$allocator@D@2@@std@@PBD@Z$4 10038916 f   WebSocketAssitInterface.obj
 0001:00037921       __unwindfunclet$?makeHandshakeResponse@HN@@YA?AV?$basic_string@DU?$char_traits@D@std@@V?$allocator@D@2@@std@@PBD@Z$5 10038921 f   WebSocketAssitInterface.obj
 0001:0003792c       __unwindfunclet$?makeHandshakeResponse@HN@@YA?AV?$basic_string@DU?$char_traits@D@std@@V?$allocator@D@2@@std@@PBD@Z$6 1003892c f   WebSocketAssitInterface.obj
 0001:0003794b       __ehhandler$?makeHandshakeResponse@HN@@YA?AV?$basic_string@DU?$char_traits@D@std@@V?$allocator@D@2@@std@@PBD@Z 1003894b f   WebSocketAssitInterface.obj
 0001:00037980       __ehhandler$?reserve@?$vector@DV?$allocator@D@std@@@std@@QAEXI@Z 10038980 f   WebSocketAssitInterface.obj
 0001:000379a0       __unwindfunclet$??$_Construct@HABH@std@@YAXPAHABH@Z$0 100389a0 f   WebSocketAssitInterface.obj
 0001:000379a0       __unwindfunclet$??$_Construct@DABD@std@@YAXPADABD@Z$0 100389a0 f   WebSocketAssitInterface.obj
 0001:000379a0       __unwindfunclet$??$_Construct@PAUFILEINFO@@ABQAU1@@std@@YAXPAPAUFILEINFO@@ABQAU1@@Z$0 100389a0 f   WebSocketAssitInterface.obj
 0001:000379b1       __ehhandler$??$_Construct@PAUFILEINFO@@ABQAU1@@std@@YAXPAPAUFILEINFO@@ABQAU1@@Z 100389b1 f   WebSocketAssitInterface.obj
 0001:000379b1       __ehhandler$??$_Construct@HABH@std@@YAXPAHABH@Z 100389b1 f   WebSocketAssitInterface.obj
 0001:000379b1       __ehhandler$??$_Construct@DABD@std@@YAXPADABD@Z 100389b1 f   WebSocketAssitInterface.obj
 0001:000379d0       __unwindfunclet$?Identify@XMLDocument@tinyxml2@@QAEPADPADPAPAVXMLNode@2@@Z$0 100389d0 f   tinyxml2.obj
 0001:000379e7       __unwindfunclet$?Identify@XMLDocument@tinyxml2@@QAEPADPADPAPAVXMLNode@2@@Z$1 100389e7 f   tinyxml2.obj
 0001:000379fe       __unwindfunclet$?Identify@XMLDocument@tinyxml2@@QAEPADPADPAPAVXMLNode@2@@Z$2 100389fe f   tinyxml2.obj
 0001:00037a15       __unwindfunclet$?Identify@XMLDocument@tinyxml2@@QAEPADPADPAPAVXMLNode@2@@Z$3 10038a15 f   tinyxml2.obj
 0001:00037a26       __unwindfunclet$?Identify@XMLDocument@tinyxml2@@QAEPADPADPAPAVXMLNode@2@@Z$4 10038a26 f   tinyxml2.obj
 0001:00037a37       __unwindfunclet$?Identify@XMLDocument@tinyxml2@@QAEPADPADPAPAVXMLNode@2@@Z$5 10038a37 f   tinyxml2.obj
 0001:00037a48       __ehhandler$?Identify@XMLDocument@tinyxml2@@QAEPADPADPAPAVXMLNode@2@@Z 10038a48 f   tinyxml2.obj
 0001:00037a70       __unwindfunclet$??1XMLNode@tinyxml2@@MAE@XZ$0 10038a70 f   tinyxml2.obj
 0001:00037a7b       __ehhandler$??1XMLNode@tinyxml2@@MAE@XZ 10038a7b f   tinyxml2.obj
 0001:00037aa0       __unwindfunclet$?ParseDeep@XMLNode@tinyxml2@@UAEPADPADPAVStrPair@2@@Z$0 10038aa0 f   tinyxml2.obj
 0001:00037aa8       __ehhandler$?ParseDeep@XMLNode@tinyxml2@@UAEPADPADPAVStrPair@2@@Z 10038aa8 f   tinyxml2.obj
 0001:00037ad0       __unwindfunclet$??1XMLElement@tinyxml2@@EAE@XZ$0 10038ad0 f   tinyxml2.obj
 0001:00037ad8       __ehhandler$??1XMLElement@tinyxml2@@EAE@XZ 10038ad8 f   tinyxml2.obj
 0001:00037b00       __unwindfunclet$?FindOrCreateAttribute@XMLElement@tinyxml2@@AAEPAVXMLAttribute@2@PBD@Z$0 10038b00 f   tinyxml2.obj
 0001:00037b11       __ehhandler$?FindOrCreateAttribute@XMLElement@tinyxml2@@AAEPAVXMLAttribute@2@PBD@Z 10038b11 f   tinyxml2.obj
 0001:00037b30       __unwindfunclet$??0XMLAttribute@tinyxml2@@AAE@XZ$0 10038b30 f   tinyxml2.obj
 0001:00037b30       __unwindfunclet$??1XMLAttribute@tinyxml2@@EAE@XZ$0 10038b30 f   tinyxml2.obj
 0001:00037b3b       __ehhandler$??0XMLAttribute@tinyxml2@@AAE@XZ 10038b3b f   tinyxml2.obj
 0001:00037b3b       __ehhandler$??1XMLAttribute@tinyxml2@@EAE@XZ 10038b3b f   tinyxml2.obj
 0001:00037b60       __unwindfunclet$?ParseAttributes@XMLElement@tinyxml2@@AAEPADPAD@Z$0 10038b60 f   tinyxml2.obj
 0001:00037b71       __ehhandler$?ParseAttributes@XMLElement@tinyxml2@@AAEPADPAD@Z 10038b71 f   tinyxml2.obj
 0001:00037b90       __unwindfunclet$??0XMLDocument@tinyxml2@@QAE@_NW4Whitespace@1@@Z$0 10038b90 f   tinyxml2.obj
 0001:00037b98       __unwindfunclet$??0XMLDocument@tinyxml2@@QAE@_NW4Whitespace@1@@Z$1 10038b98 f   tinyxml2.obj
 0001:00037ba3       __unwindfunclet$??0XMLDocument@tinyxml2@@QAE@_NW4Whitespace@1@@Z$2 10038ba3 f   tinyxml2.obj
 0001:00037bb1       __unwindfunclet$??0XMLDocument@tinyxml2@@QAE@_NW4Whitespace@1@@Z$3 10038bb1 f   tinyxml2.obj
 0001:00037bbf       __ehhandler$??0XMLDocument@tinyxml2@@QAE@_NW4Whitespace@1@@Z 10038bbf f   tinyxml2.obj
 0001:00037be0       __unwindfunclet$??1XMLDocument@tinyxml2@@UAE@XZ$0 10038be0 f   tinyxml2.obj
 0001:00037be8       __unwindfunclet$??1XMLDocument@tinyxml2@@UAE@XZ$1 10038be8 f   tinyxml2.obj
 0001:00037bf3       __unwindfunclet$??1XMLDocument@tinyxml2@@UAE@XZ$2 10038bf3 f   tinyxml2.obj
 0001:00037c01       __unwindfunclet$??1XMLDocument@tinyxml2@@UAE@XZ$3 10038c01 f   tinyxml2.obj
 0001:00037c0f       __unwindfunclet$??1XMLDocument@tinyxml2@@UAE@XZ$4 10038c0f f   tinyxml2.obj
 0001:00037c1d       __ehhandler$??1XMLDocument@tinyxml2@@UAE@XZ 10038c1d f   tinyxml2.obj
 0001:00037c40       __unwindfunclet$?NewComment@XMLDocument@tinyxml2@@QAEPAVXMLComment@2@PBD@Z$0 10038c40 f   tinyxml2.obj
 0001:00037c40       __unwindfunclet$?NewElement@XMLDocument@tinyxml2@@QAEPAVXMLElement@2@PBD@Z$0 10038c40 f   tinyxml2.obj
 0001:00037c40       __unwindfunclet$?NewText@XMLDocument@tinyxml2@@QAEPAVXMLText@2@PBD@Z$0 10038c40 f   tinyxml2.obj
 0001:00037c40       __unwindfunclet$?NewUnknown@XMLDocument@tinyxml2@@QAEPAVXMLUnknown@2@PBD@Z$0 10038c40 f   tinyxml2.obj
 0001:00037c40       __unwindfunclet$?NewDeclaration@XMLDocument@tinyxml2@@QAEPAVXMLDeclaration@2@PBD@Z$0 10038c40 f   tinyxml2.obj
 0001:00037c51       __ehhandler$?NewElement@XMLDocument@tinyxml2@@QAEPAVXMLElement@2@PBD@Z 10038c51 f   tinyxml2.obj
 0001:00037c51       __ehhandler$?NewDeclaration@XMLDocument@tinyxml2@@QAEPAVXMLDeclaration@2@PBD@Z 10038c51 f   tinyxml2.obj
 0001:00037c51       __ehhandler$?NewText@XMLDocument@tinyxml2@@QAEPAVXMLText@2@PBD@Z 10038c51 f   tinyxml2.obj
 0001:00037c51       __ehhandler$?NewUnknown@XMLDocument@tinyxml2@@QAEPAVXMLUnknown@2@PBD@Z 10038c51 f   tinyxml2.obj
 0001:00037c51       __ehhandler$?NewComment@XMLDocument@tinyxml2@@QAEPAVXMLComment@2@PBD@Z 10038c51 f   tinyxml2.obj
 0001:00037c70       __unwindfunclet$??0?$MemPoolT@$0DE@@tinyxml2@@QAE@XZ$0 10038c70 f   tinyxml2.obj
 0001:00037c70       __unwindfunclet$??0?$MemPoolT@$0CE@@tinyxml2@@QAE@XZ$0 10038c70 f   tinyxml2.obj
 0001:00037c70       __unwindfunclet$??0?$MemPoolT@$0DA@@tinyxml2@@QAE@XZ$0 10038c70 f   tinyxml2.obj
 0001:00037c70       __unwindfunclet$??0?$MemPoolT@$0CM@@tinyxml2@@QAE@XZ$0 10038c70 f   tinyxml2.obj
 0001:00037c78       __ehhandler$??0?$MemPoolT@$0CE@@tinyxml2@@QAE@XZ 10038c78 f   tinyxml2.obj
 0001:00037c78       __ehhandler$??0?$MemPoolT@$0DA@@tinyxml2@@QAE@XZ 10038c78 f   tinyxml2.obj
 0001:00037c78       __ehhandler$??0?$MemPoolT@$0CM@@tinyxml2@@QAE@XZ 10038c78 f   tinyxml2.obj
 0001:00037c78       __ehhandler$??0?$MemPoolT@$0DE@@tinyxml2@@QAE@XZ 10038c78 f   tinyxml2.obj
 0001:00037ca0       __unwindfunclet$??1?$MemPoolT@$0CE@@tinyxml2@@UAE@XZ$0 10038ca0 f   tinyxml2.obj
 0001:00037ca0       __unwindfunclet$??1?$MemPoolT@$0DA@@tinyxml2@@UAE@XZ$0 10038ca0 f   tinyxml2.obj
 0001:00037ca0       __unwindfunclet$??1?$MemPoolT@$0CM@@tinyxml2@@UAE@XZ$0 10038ca0 f   tinyxml2.obj
 0001:00037ca0       __unwindfunclet$??1?$MemPoolT@$0DE@@tinyxml2@@UAE@XZ$0 10038ca0 f   tinyxml2.obj
 0001:00037ca8       __unwindfunclet$??1?$MemPoolT@$0CE@@tinyxml2@@UAE@XZ$1 10038ca8 f   tinyxml2.obj
 0001:00037ca8       __unwindfunclet$??1?$MemPoolT@$0DA@@tinyxml2@@UAE@XZ$1 10038ca8 f   tinyxml2.obj
 0001:00037ca8       __unwindfunclet$??1?$MemPoolT@$0DE@@tinyxml2@@UAE@XZ$1 10038ca8 f   tinyxml2.obj
 0001:00037ca8       __unwindfunclet$??1?$MemPoolT@$0CM@@tinyxml2@@UAE@XZ$1 10038ca8 f   tinyxml2.obj
 0001:00037cb3       __ehhandler$??1?$MemPoolT@$0CM@@tinyxml2@@UAE@XZ 10038cb3 f   tinyxml2.obj
 0001:00037cb3       __ehhandler$??1?$MemPoolT@$0CE@@tinyxml2@@UAE@XZ 10038cb3 f   tinyxml2.obj
 0001:00037cb3       __ehhandler$??1?$MemPoolT@$0DA@@tinyxml2@@UAE@XZ 10038cb3 f   tinyxml2.obj
 0001:00037cb3       __ehhandler$??1?$MemPoolT@$0DE@@tinyxml2@@UAE@XZ 10038cb3 f   tinyxml2.obj
 0001:00037cd0       __unwindfunclet$?Start@CAFCDataBaseManage@@QAE_NXZ$0 10038cd0 f   AFCDataBase.obj
 0001:00037cde       __unwindfunclet$?Start@CAFCDataBaseManage@@QAE_NXZ$1 10038cde f   AFCDataBase.obj
 0001:00037ce6       __unwindfunclet$?Start@CAFCDataBaseManage@@QAE_NXZ$2 10038ce6 f   AFCDataBase.obj
 0001:00037cf4       __unwindfunclet$?Start@CAFCDataBaseManage@@QAE_NXZ$3 10038cf4 f   AFCDataBase.obj
 0001:00037cff       __unwindfunclet$?Start@CAFCDataBaseManage@@QAE_NXZ$4 10038cff f   AFCDataBase.obj
 0001:00037d0a       __ehhandler$?Start@CAFCDataBaseManage@@QAE_NXZ 10038d0a f   AFCDataBase.obj
 0001:00037d30       __ehhandler$?DataServiceThread@CAFCDataBaseManage@@CGIPAX@Z 10038d30 f   AFCDataBase.obj
 0001:00037d60       __unwindfunclet$?SQLConnectReset@CAFCDataBaseManage@@QAE_NXZ$0 10038d60 f   AFCDataBase.obj
 0001:00037d6b       __unwindfunclet$?SQLConnectReset@CAFCDataBaseManage@@QAE_NXZ$2 10038d6b f   AFCDataBase.obj
 0001:00037d77       __unwindfunclet$?SQLConnectReset@CAFCDataBaseManage@@QAE_NXZ$3 10038d77 f   AFCDataBase.obj
 0001:00037d83       __unwindfunclet$?SQLConnectReset@CAFCDataBaseManage@@QAE_NXZ$4 10038d83 f   AFCDataBase.obj
 0001:00037d8f       __unwindfunclet$?SQLConnectReset@CAFCDataBaseManage@@QAE_NXZ$5 10038d8f f   AFCDataBase.obj
 0001:00037d9d       __ehhandler$?SQLConnectReset@CAFCDataBaseManage@@QAE_NXZ 10038d9d f   AFCDataBase.obj
 0001:00037dd0       __unwindfunclet$?SQLConnect@CAFCDataBaseManage@@QAEXXZ$0 10038dd0 f   AFCDataBase.obj
 0001:00037ddb       __unwindfunclet$?SQLConnect@CAFCDataBaseManage@@QAEXXZ$2 10038ddb f   AFCDataBase.obj
 0001:00037de7       __unwindfunclet$?SQLConnect@CAFCDataBaseManage@@QAEXXZ$3 10038de7 f   AFCDataBase.obj
 0001:00037df3       __unwindfunclet$?SQLConnect@CAFCDataBaseManage@@QAEXXZ$4 10038df3 f   AFCDataBase.obj
 0001:00037dff       __unwindfunclet$?SQLConnect@CAFCDataBaseManage@@QAEXXZ$5 10038dff f   AFCDataBase.obj
 0001:00037e0b       __unwindfunclet$?SQLConnect@CAFCDataBaseManage@@QAEXXZ$6 10038e0b f   AFCDataBase.obj
 0001:00037e19       __ehhandler$?SQLConnect@CAFCDataBaseManage@@QAEXXZ 10038e19 f   AFCDataBase.obj
 0001:00037e50       __unwindfunclet$?Init@CAFCDataBaseManage@@QAE_NPAUManageInfoStruct@@PAUKernelInfoStruct@@PAUIDataBaseHandleService@@PAUIDataBaseResultService@@@Z$0 10038e50 f   AFCDataBase.obj
 0001:00037e5b       __ehhandler$?Init@CAFCDataBaseManage@@QAE_NPAUManageInfoStruct@@PAUKernelInfoStruct@@PAUIDataBaseHandleService@@PAUIDataBaseResultService@@@Z 10038e5b f   AFCDataBase.obj
 0001:00037e80       __unwindfunclet$??HATL@@YA?AV?$CStringT@DV?$StrTraitMFC_DLL@DV?$ChTraitsCRT@D@ATL@@@@@0@ABV10@0@Z$0 10038e80 f   AFCDataBase.obj
 0001:00037e89       __ehhandler$??HATL@@YA?AV?$CStringT@DV?$StrTraitMFC_DLL@DV?$ChTraitsCRT@D@ATL@@@@@0@ABV10@0@Z 10038e89 f   AFCDataBase.obj
 0001:00037eb0       __unwindfunclet$??__EUSER_STATESTRING@@YAXXZ$0 10038eb0 f   AFCDataBase.obj
 0001:00037ebb       __unwindfunclet$??__EUSER_STATESTRING@@YAXXZ$1 10038ebb f   AFCDataBase.obj
 0001:00037ec6       __unwindfunclet$??__EUSER_STATESTRING@@YAXXZ$2 10038ec6 f   AFCDataBase.obj
 0001:00037ed1       __unwindfunclet$??__EUSER_STATESTRING@@YAXXZ$3 10038ed1 f   AFCDataBase.obj
 0001:00037edc       __unwindfunclet$??__EUSER_STATESTRING@@YAXXZ$4 10038edc f   AFCDataBase.obj
 0001:00037ee7       __unwindfunclet$??__EUSER_STATESTRING@@YAXXZ$5 10038ee7 f   AFCDataBase.obj
 0001:00037ef2       __unwindfunclet$??__EUSER_STATESTRING@@YAXXZ$6 10038ef2 f   AFCDataBase.obj
 0001:00037efd       __ehhandler$??__EUSER_STATESTRING@@YAXXZ 10038efd f   AFCDataBase.obj
 0001:00037f20       __unwindfunclet$?GeneratorSecretKey@@YAXXZ$0 10038f20 f   AFCSocket.obj
 0001:00037f2b       __ehhandler$?GeneratorSecretKey@@YAXXZ 10038f2b f   AFCSocket.obj
 0001:00037f60       __ehhandler$?ThreadAccept@CTCPSocketManage@@CGIPAX@Z 10038f60 f   AFCSocket.obj
 0001:00037f90       __unwindfunclet$??1CTCPClientSocket@@UAE@XZ$0 10038f90 f   AFCSocket.obj
 0001:00037f90       __unwindfunclet$??0CTCPClientSocket@@QAE@PAUIClientSocketService@@@Z$0 10038f90 f   AFCSocket.obj
 0001:00037f98       __ehhandler$??0CTCPClientSocket@@QAE@PAUIClientSocketService@@@Z 10038f98 f   AFCSocket.obj
 0001:00037f98       __ehhandler$??1CTCPClientSocket@@UAE@XZ 10038f98 f   AFCSocket.obj
 0001:00037fc0       __ehhandler$?InitSocketWnd@CTCPClientSocket@@QAE_NXZ 10038fc0 f   AFCSocket.obj
 0001:00037ff0       __unwindfunclet$?OnSocketNotifyMesage@CTCPClientSocket@@AAEJIJ@Z$2 10038ff0 f   AFCSocket.obj
 0001:00037ffb       __ehhandler$?OnSocketNotifyMesage@CTCPClientSocket@@AAEJIJ@Z 10038ffb f   AFCSocket.obj
 0001:00038030       __unwindfunclet$?SendData@CTCPClientSocket@@QAEHPAXIEEE@Z$0 10039030 f   AFCSocket.obj
 0001:0003803b       __ehhandler$?SendData@CTCPClientSocket@@QAEHPAXIEEE@Z 1003903b f   AFCSocket.obj
 0001:00038070       __unwindfunclet$??0CTCPSocket@@QAE@XZ$0 10039070 f   AFCSocket.obj
 0001:0003807e       __ehhandler$??0CTCPSocket@@QAE@XZ 1003907e f   AFCSocket.obj
 0001:000380a0       __unwindfunclet$??1CTCPSocket@@UAE@XZ$0 100390a0 f   AFCSocket.obj
 0001:000380ae       __unwindfunclet$??1CTCPSocket@@UAE@XZ$1 100390ae f   AFCSocket.obj
 0001:000380bc       __ehhandler$??1CTCPSocket@@UAE@XZ 100390bc f   AFCSocket.obj
 0001:000380e0       __unwindfunclet$?OnRecvCompleted@CTCPSocket@@IAE_NK@Z$2 100390e0 f   AFCSocket.obj
 0001:000380e8       __unwindfunclet$?OnRecvCompleted@CTCPSocket@@IAE_NK@Z$3 100390e8 f   AFCSocket.obj
 0001:000380f3       __ehhandler$?OnRecvCompleted@CTCPSocket@@IAE_NK@Z 100390f3 f   AFCSocket.obj
 0001:00038120       __unwindfunclet$??0CTCPSocketManage@@QAE@XZ$0 10039120 f   AFCSocket.obj
 0001:0003812b       __unwindfunclet$??0CTCPSocketManage@@QAE@XZ$1 1003912b f   AFCSocket.obj
 0001:00038136       __ehhandler$??0CTCPSocketManage@@QAE@XZ 10039136 f   AFCSocket.obj
 0001:00038160       __unwindfunclet$??1CTCPSocketManage@@UAE@XZ$2 10039160 f   AFCSocket.obj
 0001:0003816b       __unwindfunclet$??1CTCPSocketManage@@UAE@XZ$3 1003916b f   AFCSocket.obj
 0001:00038176       __ehhandler$??1CTCPSocketManage@@UAE@XZ 10039176 f   AFCSocket.obj
 0001:000381a0       __ehhandler$?UnInit@CTCPSocketManage@@UAE_NXZ 100391a0 f   AFCSocket.obj
 0001:000381c0       __unwindfunclet$?Start@CTCPSocketManage@@UAE_NII@Z$0 100391c0 f   AFCSocket.obj
 0001:000381ce       __unwindfunclet$?Start@CTCPSocketManage@@UAE_NII@Z$1 100391ce f   AFCSocket.obj
 0001:000381dc       __unwindfunclet$?Start@CTCPSocketManage@@UAE_NII@Z$2 100391dc f   AFCSocket.obj
 0001:000381ea       __unwindfunclet$?Start@CTCPSocketManage@@UAE_NII@Z$3 100391ea f   AFCSocket.obj
 0001:000381f8       __unwindfunclet$?Start@CTCPSocketManage@@UAE_NII@Z$4 100391f8 f   AFCSocket.obj
 0001:00038206       __unwindfunclet$?Start@CTCPSocketManage@@UAE_NII@Z$5 10039206 f   AFCSocket.obj
 0001:00038214       __unwindfunclet$?Start@CTCPSocketManage@@UAE_NII@Z$6 10039214 f   AFCSocket.obj
 0001:00038222       __unwindfunclet$?Start@CTCPSocketManage@@UAE_NII@Z$7 10039222 f   AFCSocket.obj
 0001:00038230       __unwindfunclet$?Start@CTCPSocketManage@@UAE_NII@Z$8 10039230 f   AFCSocket.obj
 0001:0003823e       __unwindfunclet$?Start@CTCPSocketManage@@UAE_NII@Z$9 1003923e f   AFCSocket.obj
 0001:0003824c       __unwindfunclet$?Start@CTCPSocketManage@@UAE_NII@Z$10 1003924c f   AFCSocket.obj
 0001:0003825a       __ehhandler$?Start@CTCPSocketManage@@UAE_NII@Z 1003925a f   AFCSocket.obj
 0001:00038280       __unwindfunclet$?CloseSocket@CTCPSocketManage@@QAE_NPAVCTCPSocket@@K@Z$0 10039280 f   AFCSocket.obj
 0001:00038280       __unwindfunclet$?CloseSocket@CTCPSocketManageForWeb@@QAE_NPAVCTCPSocketForWeb@@K@Z$0 10039280 f   AFCSocket.obj
 0001:00038280       __unwindfunclet$?CloseSocket@CTCPSocketManageForZ@@QAE_NPAVCTCPSocketForZ@@K@Z$0 10039280 f   AFCSocket.obj
 0001:00038288       __unwindfunclet$?CloseSocket@CTCPSocketManageForZ@@QAE_NPAVCTCPSocketForZ@@K@Z$1 10039288 f   AFCSocket.obj
 0001:00038288       __unwindfunclet$?CloseSocket@CTCPSocketManageForWeb@@QAE_NPAVCTCPSocketForWeb@@K@Z$1 10039288 f   AFCSocket.obj
 0001:00038288       __unwindfunclet$?CloseSocket@CTCPSocketManage@@QAE_NPAVCTCPSocket@@K@Z$1 10039288 f   AFCSocket.obj
 0001:00038290       __ehhandler$?CloseSocket@CTCPSocketManageForZ@@QAE_NPAVCTCPSocketForZ@@K@Z 10039290 f   AFCSocket.obj
 0001:00038290       __ehhandler$?CloseSocket@CTCPSocketManage@@QAE_NPAVCTCPSocket@@K@Z 10039290 f   AFCSocket.obj
 0001:00038290       __ehhandler$?CloseSocket@CTCPSocketManageForWeb@@QAE_NPAVCTCPSocketForWeb@@K@Z 10039290 f   AFCSocket.obj
 0001:000382b0       __ehhandler$?ThreadRSSocket@CTCPSocketManage@@CGIPAX@Z 100392b0 f   AFCSocket.obj
 0001:000382d0       __ehhandler$?ThreadBatchSend@CTCPSocketManage@@CGIPAX@Z 100392d0 f   AFCSocket.obj
 0001:000382f0       __unwindfunclet$?GetServerInfo@CTCPSocketManage@@QAE?AV?$basic_string@DU?$char_traits@D@std@@V?$allocator@D@2@@std@@I@Z$0 100392f0 f   AFCSocket.obj
 0001:000382f0       __unwindfunclet$?GetServerInfo@CTCPSocketManageForWeb@@QAE?AV?$basic_string@DU?$char_traits@D@std@@V?$allocator@D@2@@std@@I@Z$0 100392f0 f   AFCSocket.obj
 0001:000382f8       __unwindfunclet$?GetServerInfo@CTCPSocketManageForWeb@@QAE?AV?$basic_string@DU?$char_traits@D@std@@V?$allocator@D@2@@std@@I@Z$1 100392f8 f   AFCSocket.obj
 0001:000382f8       __unwindfunclet$?GetServerInfo@CTCPSocketManage@@QAE?AV?$basic_string@DU?$char_traits@D@std@@V?$allocator@D@2@@std@@I@Z$1 100392f8 f   AFCSocket.obj
 0001:00038311       __ehhandler$?GetServerInfo@CTCPSocketManageForWeb@@QAE?AV?$basic_string@DU?$char_traits@D@std@@V?$allocator@D@2@@std@@I@Z 10039311 f   AFCSocket.obj
 0001:00038311       __ehhandler$?GetServerInfo@CTCPSocketManage@@QAE?AV?$basic_string@DU?$char_traits@D@std@@V?$allocator@D@2@@std@@I@Z 10039311 f   AFCSocket.obj
 0001:00038340       __ehhandler$?ThreadAccept@CTCPSocketManageForZ@@CGIPAX@Z 10039340 f   AFCSocket.obj
 0001:00038370       __unwindfunclet$??0CTCPSocketForZ@@QAE@XZ$0 10039370 f   AFCSocket.obj
 0001:0003837e       __ehhandler$??0CTCPSocketForZ@@QAE@XZ 1003937e f   AFCSocket.obj
 0001:000383a0       __unwindfunclet$??1CTCPSocketForZ@@UAE@XZ$0 100393a0 f   AFCSocket.obj
 0001:000383ae       __unwindfunclet$??1CTCPSocketForZ@@UAE@XZ$1 100393ae f   AFCSocket.obj
 0001:000383bc       __ehhandler$??1CTCPSocketForZ@@UAE@XZ 100393bc f   AFCSocket.obj
 0001:000383e0       __unwindfunclet$?SendData@CTCPSocket@@QAEHPAXIEEEK@Z$0 100393e0 f   AFCSocket.obj
 0001:000383e0       __unwindfunclet$?SendData@CTCPSocketForZ@@QAEHPAXIEEEK@Z$0 100393e0 f   AFCSocket.obj
 0001:000383e0       __unwindfunclet$?SendDataForNormal@CTCPSocketForWeb@@AAEHPAXIEEEK@Z$0 100393e0 f   AFCSocket.obj
 0001:000383e8       __unwindfunclet$?SendDataForNormal@CTCPSocketForWeb@@AAEHPAXIEEEK@Z$1 100393e8 f   AFCSocket.obj
 0001:000383e8       __unwindfunclet$?SendData@CTCPSocket@@QAEHPAXIEEEK@Z$1 100393e8 f   AFCSocket.obj
 0001:000383e8       __unwindfunclet$?SendData@CTCPSocketForZ@@QAEHPAXIEEEK@Z$1 100393e8 f   AFCSocket.obj
 0001:000383f3       __ehhandler$?SendData@CTCPSocketForZ@@QAEHPAXIEEEK@Z 100393f3 f   AFCSocket.obj
 0001:000383f3       __ehhandler$?SendDataForNormal@CTCPSocketForWeb@@AAEHPAXIEEEK@Z 100393f3 f   AFCSocket.obj
 0001:000383f3       __ehhandler$?SendData@CTCPSocket@@QAEHPAXIEEEK@Z 100393f3 f   AFCSocket.obj
 0001:00038420       __unwindfunclet$?TCPSocketDelete@CTCPSocketManageForZ@@AAE_NPAVCTCPSocketForZ@@@Z$0 10039420 f   AFCSocket.obj
 0001:00038420       __unwindfunclet$?TCPSocketNew@CTCPSocketManageForWeb@@AAEPAVCTCPSocketForWeb@@XZ$0 10039420 f   AFCSocket.obj
 0001:00038420       __unwindfunclet$?TCPSocketDelete@CTCPSocketManageForWeb@@AAE_NPAVCTCPSocketForWeb@@@Z$0 10039420 f   AFCSocket.obj
 0001:00038420       __unwindfunclet$?GetDataCount@CDataLine@@QAEHXZ$0 10039420 f   AFCSocket.obj
 0001:00038420       __unwindfunclet$?TCPSocketNew@CTCPSocketManage@@AAEPAVCTCPSocket@@XZ$0 10039420 f   AFCSocket.obj
 0001:00038420       __unwindfunclet$?OnSendCompleted@CTCPSocketForWeb@@IAE_NKK@Z$0 10039420 f   AFCSocket.obj
 0001:00038420       __unwindfunclet$?TCPSocketDelete@CTCPSocketManage@@AAE_NPAVCTCPSocket@@@Z$0 10039420 f   AFCSocket.obj
 0001:00038420       __unwindfunclet$?OnSendCompleted@CTCPSocketForZ@@IAE_NKK@Z$0 10039420 f   AFCSocket.obj
 0001:00038420       __unwindfunclet$?OnSendCompleted@CTCPSocket@@IAE_NKK@Z$0 10039420 f   AFCSocket.obj
 0001:00038420       __unwindfunclet$?TCPSocketNew@CTCPSocketManageForZ@@AAEPAVCTCPSocketForZ@@XZ$0 10039420 f   AFCSocket.obj
 0001:00038428       __ehhandler$?OnSendCompleted@CTCPSocket@@IAE_NKK@Z 10039428 f   AFCSocket.obj
 0001:00038428       __ehhandler$?TCPSocketNew@CTCPSocketManageForWeb@@AAEPAVCTCPSocketForWeb@@XZ 10039428 f   AFCSocket.obj
 0001:00038428       __ehhandler$?TCPSocketNew@CTCPSocketManageForZ@@AAEPAVCTCPSocketForZ@@XZ 10039428 f   AFCSocket.obj
 0001:00038428       __ehhandler$?OnSendCompleted@CTCPSocketForZ@@IAE_NKK@Z 10039428 f   AFCSocket.obj
 0001:00038428       __ehhandler$?TCPSocketDelete@CTCPSocketManageForZ@@AAE_NPAVCTCPSocketForZ@@@Z 10039428 f   AFCSocket.obj
 0001:00038428       __ehhandler$?TCPSocketNew@CTCPSocketManage@@AAEPAVCTCPSocket@@XZ 10039428 f   AFCSocket.obj
 0001:00038428       __ehhandler$?OnSendCompleted@CTCPSocketForWeb@@IAE_NKK@Z 10039428 f   AFCSocket.obj
 0001:00038428       __ehhandler$?TCPSocketDelete@CTCPSocketManage@@AAE_NPAVCTCPSocket@@@Z 10039428 f   AFCSocket.obj
 0001:00038428       __ehhandler$?TCPSocketDelete@CTCPSocketManageForWeb@@AAE_NPAVCTCPSocketForWeb@@@Z 10039428 f   AFCSocket.obj
 0001:00038428       __ehhandler$?GetDataCount@CDataLine@@QAEHXZ 10039428 f   AFCSocket.obj
 0001:00038450       __unwindfunclet$?OnRecvCompleted@CTCPSocketForZ@@IAE_NK@Z$2 10039450 f   AFCSocket.obj
 0001:00038458       __unwindfunclet$?OnRecvCompleted@CTCPSocketForZ@@IAE_NK@Z$3 10039458 f   AFCSocket.obj
 0001:00038463       __ehhandler$?OnRecvCompleted@CTCPSocketForZ@@IAE_NK@Z 10039463 f   AFCSocket.obj
 0001:00038490       __unwindfunclet$??1CTCPSocketManageForZ@@UAE@XZ$2 10039490 f   AFCSocket.obj
 0001:0003849b       __unwindfunclet$??1CTCPSocketManageForZ@@UAE@XZ$3 1003949b f   AFCSocket.obj
 0001:000384a6       __unwindfunclet$??1CTCPSocketManageForZ@@UAE@XZ$4 100394a6 f   AFCSocket.obj
 0001:000384b1       __unwindfunclet$??1CTCPSocketManageForZ@@UAE@XZ$5 100394b1 f   AFCSocket.obj
 0001:000384bf       __ehhandler$??1CTCPSocketManageForZ@@UAE@XZ 100394bf f   AFCSocket.obj
 0001:000384e0       __ehhandler$?UnInit@CTCPSocketManageForZ@@UAE_NXZ 100394e0 f   AFCSocket.obj
 0001:00038500       __unwindfunclet$?Start@CTCPSocketManageForWeb@@UAE_NII@Z$0 10039500 f   AFCSocket.obj
 0001:00038500       __unwindfunclet$?Start@CTCPSocketManageForZ@@UAE_NII@Z$0 10039500 f   AFCSocket.obj
 0001:0003850e       __unwindfunclet$?Start@CTCPSocketManageForZ@@UAE_NII@Z$1 1003950e f   AFCSocket.obj
 0001:0003850e       __unwindfunclet$?Start@CTCPSocketManageForWeb@@UAE_NII@Z$1 1003950e f   AFCSocket.obj
 0001:0003851c       __unwindfunclet$?Start@CTCPSocketManageForZ@@UAE_NII@Z$2 1003951c f   AFCSocket.obj
 0001:0003851c       __unwindfunclet$?Start@CTCPSocketManageForWeb@@UAE_NII@Z$2 1003951c f   AFCSocket.obj
 0001:0003852a       __unwindfunclet$?Start@CTCPSocketManageForZ@@UAE_NII@Z$3 1003952a f   AFCSocket.obj
 0001:0003852a       __unwindfunclet$?Start@CTCPSocketManageForWeb@@UAE_NII@Z$3 1003952a f   AFCSocket.obj
 0001:00038538       __unwindfunclet$?Start@CTCPSocketManageForWeb@@UAE_NII@Z$4 10039538 f   AFCSocket.obj
 0001:00038538       __unwindfunclet$?Start@CTCPSocketManageForZ@@UAE_NII@Z$4 10039538 f   AFCSocket.obj
 0001:00038546       __unwindfunclet$?Start@CTCPSocketManageForZ@@UAE_NII@Z$5 10039546 f   AFCSocket.obj
 0001:00038546       __unwindfunclet$?Start@CTCPSocketManageForWeb@@UAE_NII@Z$5 10039546 f   AFCSocket.obj
 0001:00038554       __unwindfunclet$?Start@CTCPSocketManageForWeb@@UAE_NII@Z$6 10039554 f   AFCSocket.obj
 0001:00038554       __unwindfunclet$?Start@CTCPSocketManageForZ@@UAE_NII@Z$6 10039554 f   AFCSocket.obj
 0001:00038562       __unwindfunclet$?Start@CTCPSocketManageForWeb@@UAE_NII@Z$7 10039562 f   AFCSocket.obj
 0001:00038562       __unwindfunclet$?Start@CTCPSocketManageForZ@@UAE_NII@Z$7 10039562 f   AFCSocket.obj
 0001:00038570       __unwindfunclet$?Start@CTCPSocketManageForZ@@UAE_NII@Z$8 10039570 f   AFCSocket.obj
 0001:00038570       __unwindfunclet$?Start@CTCPSocketManageForWeb@@UAE_NII@Z$8 10039570 f   AFCSocket.obj
 0001:0003857e       __unwindfunclet$?Start@CTCPSocketManageForZ@@UAE_NII@Z$9 1003957e f   AFCSocket.obj
 0001:0003857e       __unwindfunclet$?Start@CTCPSocketManageForWeb@@UAE_NII@Z$9 1003957e f   AFCSocket.obj
 0001:0003858c       __unwindfunclet$?Start@CTCPSocketManageForWeb@@UAE_NII@Z$10 1003958c f   AFCSocket.obj
 0001:0003858c       __unwindfunclet$?Start@CTCPSocketManageForZ@@UAE_NII@Z$10 1003958c f   AFCSocket.obj
 0001:0003859a       __unwindfunclet$?Start@CTCPSocketManageForWeb@@UAE_NII@Z$11 1003959a f   AFCSocket.obj
 0001:0003859a       __unwindfunclet$?Start@CTCPSocketManageForZ@@UAE_NII@Z$11 1003959a f   AFCSocket.obj
 0001:000385a8       __unwindfunclet$?Start@CTCPSocketManageForZ@@UAE_NII@Z$12 100395a8 f   AFCSocket.obj
 0001:000385a8       __unwindfunclet$?Start@CTCPSocketManageForWeb@@UAE_NII@Z$12 100395a8 f   AFCSocket.obj
 0001:000385b6       __ehhandler$?Start@CTCPSocketManageForWeb@@UAE_NII@Z 100395b6 f   AFCSocket.obj
 0001:000385b6       __ehhandler$?Start@CTCPSocketManageForZ@@UAE_NII@Z 100395b6 f   AFCSocket.obj
 0001:000385e0       __ehhandler$?ThreadRSSocket@CTCPSocketManageForZ@@CGIPAX@Z 100395e0 f   AFCSocket.obj
 0001:00038600       __ehhandler$?ThreadBatchSend@CTCPSocketManageForZ@@CGIPAX@Z 10039600 f   AFCSocket.obj
 0001:00038620       __ehhandler$?ThreadUnionSend@CTCPSocketManageForZ@@CGIPAX@Z 10039620 f   AFCSocket.obj
 0001:00038640       __ehhandler$?reserve@?$vector@HV?$allocator@H@std@@@std@@QAEXI@Z 10039640 f   AFCSocket.obj
 0001:00038660       __unwindfunclet$?Init@?$CAFCPtrArray@VCTCPSocket@@@@QAE_NII@Z$2 10039660 f   AFCSocket.obj
 0001:0003866b       __ehhandler$?Init@?$CAFCPtrArray@VCTCPSocket@@@@QAE_NII@Z 1003966b f   AFCSocket.obj
 0001:00038690       __unwindfunclet$??1?$CAFCPtrArray@VCTCPSocketForWeb@@@@QAE@XZ$0 10039690 f   AFCSocket.obj
 0001:00038690       __unwindfunclet$??1?$CAFCPtrArray@VCTCPSocket@@@@QAE@XZ$0 10039690 f   AFCSocket.obj
 0001:00038690       __unwindfunclet$??1?$CAFCPtrArray@VCTCPSocketForZ@@@@QAE@XZ$0 10039690 f   AFCSocket.obj
 0001:0003869b       __ehhandler$??1?$CAFCPtrArray@VCTCPSocketForZ@@@@QAE@XZ 1003969b f   AFCSocket.obj
 0001:0003869b       __ehhandler$??1?$CAFCPtrArray@VCTCPSocketForWeb@@@@QAE@XZ 1003969b f   AFCSocket.obj
 0001:0003869b       __ehhandler$??1?$CAFCPtrArray@VCTCPSocket@@@@QAE@XZ 1003969b f   AFCSocket.obj
 0001:000386c0       __unwindfunclet$?Init@?$CAFCPtrArray@VCTCPSocketForZ@@@@QAE_NII@Z$2 100396c0 f   AFCSocket.obj
 0001:000386cb       __ehhandler$?Init@?$CAFCPtrArray@VCTCPSocketForZ@@@@QAE_NII@Z 100396cb f   AFCSocket.obj
 0001:000386f0       __ehhandler$?UnInit@?$CAFCPtrArray@VCTCPSocketForWeb@@@@QAE_NXZ 100396f0 f   AFCSocket.obj
 0001:000386f0       __ehhandler$?UnInit@?$CAFCPtrArray@VCTCPSocketForZ@@@@QAE_NXZ 100396f0 f   AFCSocket.obj
 0001:000386f0       __ehhandler$?UnInit@?$CAFCPtrArray@VCTCPSocket@@@@QAE_NXZ 100396f0 f   AFCSocket.obj
 0001:00038710       __ehhandler$??$_Buynode@U?$pair@HV?$vector@HV?$allocator@H@std@@@std@@@std@@@?$_Tree_val@V?$_Tmap_traits@HV?$vector@HV?$allocator@H@std@@@std@@U?$less@H@2@V?$allocator@U?$pair@$$CBHV?$vector@HV?$allocator@H@std@@@std@@@std@@@2@$0A@@std@@@std@@QAEPAU_Node@?$_Tree_nod@V?$_Tmap_traits@HV?$vector@HV?$allocator@H@std@@@std@@U?$less@H@2@V?$allocator@U?$pair@$$CBHV?$vector@HV?$allocator@H@std@@@std@@@std@@@2@$0A@@std@@@1@$$QAU?$pair@HV?$vector@HV?$allocator@H@std@@@std@@@1@@Z 10039710 f   AFCSocket.obj
 0001:00038730       __unwindfunclet$??0?$vector@HV?$allocator@H@std@@@std@@QAE@ABV01@@Z$2 10039730 f   AFCSocket.obj
 0001:00038738       __ehhandler$??0?$vector@HV?$allocator@H@std@@@std@@QAE@ABV01@@Z 10039738 f   AFCSocket.obj
 0001:00038760       __ehhandler$??$_Uninit_copy@V?$_Vector_const_iterator@V?$_Vector_val@HV?$allocator@H@std@@@std@@@std@@PAHV?$allocator@H@2@@std@@YAPAHV?$_Vector_const_iterator@V?$_Vector_val@HV?$allocator@H@std@@@std@@@0@0PAHAAV?$allocator@H@0@U_Nonscalar_ptr_iterator_tag@0@@Z 10039760 f   AFCSocket.obj
 0001:00038780       __unwindfunclet$??0?$basic_string@DU?$char_traits@D@std@@V?$allocator@D@2@@std@@QAE@XZ$0 10039780 f   AFCSocket.obj
 0001:00038780       __unwindfunclet$??0?$basic_string@DU?$char_traits@D@std@@V?$allocator@D@2@@std@@QAE@ABV01@IIABV?$allocator@D@1@@Z$0 10039780 f   AFCSocket.obj
 0001:00038780       __unwindfunclet$??0?$basic_string@DU?$char_traits@D@std@@V?$allocator@D@2@@std@@QAE@ABV01@@Z$0 10039780 f   AFCSocket.obj
 0001:00038780       __unwindfunclet$??0?$basic_string@DU?$char_traits@D@std@@V?$allocator@D@2@@std@@QAE@$$QAV01@@Z$0 10039780 f   AFCSocket.obj
 0001:00038780       __unwindfunclet$??0?$basic_string@DU?$char_traits@D@std@@V?$allocator@D@2@@std@@QAE@PBD@Z$0 10039780 f   AFCSocket.obj
 0001:00038780       __unwindfunclet$??0?$vector@HV?$allocator@H@std@@@std@@QAE@$$QAV01@@Z$0 10039780 f   AFCSocket.obj
 0001:00038780       __unwindfunclet$??0?$basic_string@DU?$char_traits@D@std@@V?$allocator@D@2@@std@@QAE@ID@Z$0 10039780 f   AFCSocket.obj
 0001:00038788       __ehhandler$??0?$basic_string@DU?$char_traits@D@std@@V?$allocator@D@2@@std@@QAE@PBD@Z 10039788 f   AFCSocket.obj
 0001:00038788       __ehhandler$??0?$basic_string@DU?$char_traits@D@std@@V?$allocator@D@2@@std@@QAE@ABV01@IIABV?$allocator@D@1@@Z 10039788 f   AFCSocket.obj
 0001:00038788       __ehhandler$??0?$basic_string@DU?$char_traits@D@std@@V?$allocator@D@2@@std@@QAE@ID@Z 10039788 f   AFCSocket.obj
 0001:00038788       __ehhandler$??0?$basic_string@DU?$char_traits@D@std@@V?$allocator@D@2@@std@@QAE@XZ 10039788 f   AFCSocket.obj
 0001:00038788       __ehhandler$??0?$basic_string@DU?$char_traits@D@std@@V?$allocator@D@2@@std@@QAE@ABV01@@Z 10039788 f   AFCSocket.obj
 0001:00038788       __ehhandler$??0?$vector@HV?$allocator@H@std@@@std@@QAE@$$QAV01@@Z 10039788 f   AFCSocket.obj
 0001:00038788       __ehhandler$??0?$basic_string@DU?$char_traits@D@std@@V?$allocator@D@2@@std@@QAE@$$QAV01@@Z 10039788 f   AFCSocket.obj
 0001:000387b0       __unwindfunclet$??0CTCPSocketForWeb@@QAE@XZ$0 100397b0 f   AFCWebSocket.obj
 0001:000387be       __ehhandler$??0CTCPSocketForWeb@@QAE@XZ 100397be f   AFCWebSocket.obj
 0001:000387e0       __unwindfunclet$??1CTCPSocketForWeb@@UAE@XZ$0 100397e0 f   AFCWebSocket.obj
 0001:000387ee       __unwindfunclet$??1CTCPSocketForWeb@@UAE@XZ$1 100397ee f   AFCWebSocket.obj
 0001:000387fc       __ehhandler$??1CTCPSocketForWeb@@UAE@XZ 100397fc f   AFCWebSocket.obj
 0001:00038820       __unwindfunclet$?Attach@CTCPSocketForZ@@QAE_NIAAUsockaddr_in@@K@Z$0 10039820 f   AFCWebSocket.obj
 0001:00038820       __unwindfunclet$?Attach@CTCPSocket@@QAE_NIAAUsockaddr_in@@K@Z$0 10039820 f   AFCWebSocket.obj
 0001:00038820       __unwindfunclet$?Attach@CTCPSocketForWeb@@QAE_NIAAUsockaddr_in@@K@Z$0 10039820 f   AFCWebSocket.obj
 0001:00038828       __unwindfunclet$?Attach@CTCPSocketForWeb@@QAE_NIAAUsockaddr_in@@K@Z$1 10039828 f   AFCWebSocket.obj
 0001:00038828       __unwindfunclet$?Attach@CTCPSocketForZ@@QAE_NIAAUsockaddr_in@@K@Z$1 10039828 f   AFCWebSocket.obj
 0001:00038828       __unwindfunclet$?Attach@CTCPSocket@@QAE_NIAAUsockaddr_in@@K@Z$1 10039828 f   AFCWebSocket.obj
 0001:00038830       __ehhandler$?Attach@CTCPSocketForWeb@@QAE_NIAAUsockaddr_in@@K@Z 10039830 f   AFCWebSocket.obj
 0001:00038830       __ehhandler$?Attach@CTCPSocket@@QAE_NIAAUsockaddr_in@@K@Z 10039830 f   AFCWebSocket.obj
 0001:00038830       __ehhandler$?Attach@CTCPSocketForZ@@QAE_NIAAUsockaddr_in@@K@Z 10039830 f   AFCWebSocket.obj
 0001:00038850       __unwindfunclet$?CloseSocket@CTCPSocket@@IAE_NXZ$0 10039850 f   AFCWebSocket.obj
 0001:00038850       __unwindfunclet$?SendDataBatch@CTCPSocketManage@@QAEHPAXIEEE@Z$0 10039850 f   AFCWebSocket.obj
 0001:00038850       __unwindfunclet$?SendDataForNormal@CTCPSocketForWeb@@AAEHPBDI@Z$0 10039850 f   AFCWebSocket.obj
 0001:00038850       __unwindfunclet$?SendDataUnion@CTCPSocketManageForZ@@QAEHIPAXIEEE@Z$0 10039850 f   AFCWebSocket.obj
 0001:00038850       __unwindfunclet$?RecvData@CTCPSocket@@IAE_NXZ$0 10039850 f   AFCWebSocket.obj
 0001:00038850       __unwindfunclet$?SendData@CTCPSocket@@QAEHPBDI@Z$0 10039850 f   AFCWebSocket.obj
 0001:00038850       __unwindfunclet$?SendDataBatch@CTCPSocketManageForZ@@QAEHPAXIEEE@Z$0 10039850 f   AFCWebSocket.obj
 0001:00038850       __unwindfunclet$?CloseSocket@CTCPSocketForZ@@IAE_NXZ$0 10039850 f   AFCWebSocket.obj
 0001:00038850       __unwindfunclet$?RecvData@CTCPSocketForZ@@IAE_NXZ$0 10039850 f   AFCWebSocket.obj
 0001:00038850       __unwindfunclet$?CloseSocket@CTCPSocketForWeb@@IAE_NXZ$0 10039850 f   AFCWebSocket.obj
 0001:00038850       __unwindfunclet$?SendDataUnion@CTCPSocketManageForWeb@@QAEHIPAXIEEE@Z$0 10039850 f   AFCWebSocket.obj
 0001:00038850       __unwindfunclet$?RecvData@CTCPSocketForWeb@@IAE_NXZ$0 10039850 f   AFCWebSocket.obj
 0001:00038850       __unwindfunclet$?SendDataBatch@CTCPSocketManageForWeb@@QAEHPAXIEEE@Z$0 10039850 f   AFCWebSocket.obj
 0001:00038858       __ehhandler$?RecvData@CTCPSocketForZ@@IAE_NXZ 10039858 f   AFCWebSocket.obj
 0001:00038858       __ehhandler$?CloseSocket@CTCPSocketForWeb@@IAE_NXZ 10039858 f   AFCWebSocket.obj
 0001:00038858       __ehhandler$?RecvData@CTCPSocketForWeb@@IAE_NXZ 10039858 f   AFCWebSocket.obj
 0001:00038858       __ehhandler$?CloseSocket@CTCPSocketForZ@@IAE_NXZ 10039858 f   AFCWebSocket.obj
 0001:00038858       __ehhandler$?SendDataBatch@CTCPSocketManageForWeb@@QAEHPAXIEEE@Z 10039858 f   AFCWebSocket.obj
 0001:00038858       __ehhandler$?SendDataBatch@CTCPSocketManageForZ@@QAEHPAXIEEE@Z 10039858 f   AFCWebSocket.obj
 0001:00038858       __ehhandler$?SendDataBatch@CTCPSocketManage@@QAEHPAXIEEE@Z 10039858 f   AFCWebSocket.obj
 0001:00038858       __ehhandler$?SendDataForNormal@CTCPSocketForWeb@@AAEHPBDI@Z 10039858 f   AFCWebSocket.obj
 0001:00038858       __ehhandler$?RecvData@CTCPSocket@@IAE_NXZ 10039858 f   AFCWebSocket.obj
 0001:00038858       __ehhandler$?CloseSocket@CTCPSocket@@IAE_NXZ 10039858 f   AFCWebSocket.obj
 0001:00038858       __ehhandler$?SendData@CTCPSocket@@QAEHPBDI@Z 10039858 f   AFCWebSocket.obj
 0001:00038858       __ehhandler$?SendDataUnion@CTCPSocketManageForZ@@QAEHIPAXIEEE@Z 10039858 f   AFCWebSocket.obj
 0001:00038858       __ehhandler$?SendDataUnion@CTCPSocketManageForWeb@@QAEHIPAXIEEE@Z 10039858 f   AFCWebSocket.obj
 0001:00038880       __unwindfunclet$?SendDataForWeb@CTCPSocketForWeb@@AAEHPBDI@Z$0 10039880 f   AFCWebSocket.obj
 0001:00038880       __unwindfunclet$?SendDataForNormal@CTCPSocketForWeb@@AAEHEEEK@Z$0 10039880 f   AFCWebSocket.obj
 0001:00038880       __unwindfunclet$?SendData@CTCPSocketForZ@@QAEHEEEK@Z$0 10039880 f   AFCWebSocket.obj
 0001:00038880       __unwindfunclet$?SendData@CTCPSocket@@QAEHEEEK@Z$0 10039880 f   AFCWebSocket.obj
 0001:00038880       __unwindfunclet$?CleanLineData@CDataLine@@QAE_NXZ$0 10039880 f   AFCWebSocket.obj
 0001:00038888       __ehhandler$?SendDataForNormal@CTCPSocketForWeb@@AAEHEEEK@Z 10039888 f   AFCWebSocket.obj
 0001:00038888       __ehhandler$?SendData@CTCPSocket@@QAEHEEEK@Z 10039888 f   AFCWebSocket.obj
 0001:00038888       __ehhandler$?SendDataForWeb@CTCPSocketForWeb@@AAEHPBDI@Z 10039888 f   AFCWebSocket.obj
 0001:00038888       __ehhandler$?CleanLineData@CDataLine@@QAE_NXZ 10039888 f   AFCWebSocket.obj
 0001:00038888       __ehhandler$?SendData@CTCPSocketForZ@@QAEHEEEK@Z 10039888 f   AFCWebSocket.obj
 0001:000388b0       __unwindfunclet$?SendDataForWeb@CTCPSocketForWeb@@AAEHEEEK@Z$0 100398b0 f   AFCWebSocket.obj
 0001:000388b8       __ehhandler$?SendDataForWeb@CTCPSocketForWeb@@AAEHEEEK@Z 100398b8 f   AFCWebSocket.obj
 0001:000388e0       __unwindfunclet$?SendDataForWeb@CTCPSocketForWeb@@AAEHPAXIEEEK@Z$0 100398e0 f   AFCWebSocket.obj
 0001:000388e8       __ehhandler$?SendDataForWeb@CTCPSocketForWeb@@AAEHPAXIEEEK@Z 100398e8 f   AFCWebSocket.obj
 0001:00038910       __unwindfunclet$?CheckSendData@CTCPSocketForWeb@@IAE_NXZ$0 10039910 f   AFCWebSocket.obj
 0001:00038910       __unwindfunclet$?CheckSendData@CTCPSocket@@IAE_NXZ$0 10039910 f   AFCWebSocket.obj
 0001:00038910       __unwindfunclet$?CheckSendData@CTCPSocketForZ@@IAE_NXZ$0 10039910 f   AFCWebSocket.obj
 0001:00038918       __ehhandler$?CheckSendData@CTCPSocket@@IAE_NXZ 10039918 f   AFCWebSocket.obj
 0001:00038918       __ehhandler$?CheckSendData@CTCPSocketForZ@@IAE_NXZ 10039918 f   AFCWebSocket.obj
 0001:00038918       __ehhandler$?CheckSendData@CTCPSocketForWeb@@IAE_NXZ 10039918 f   AFCWebSocket.obj
 0001:00038940       __unwindfunclet$?OnRecvCompleted@CTCPSocketForWeb@@IAE_NK@Z$2 10039940 f   AFCWebSocket.obj
 0001:00038948       __unwindfunclet$?OnRecvCompleted@CTCPSocketForWeb@@IAE_NK@Z$3 10039948 f   AFCWebSocket.obj
 0001:00038950       __unwindfunclet$?OnRecvCompleted@CTCPSocketForWeb@@IAE_NK@Z$4 10039950 f   AFCWebSocket.obj
 0001:00038958       __unwindfunclet$?OnRecvCompleted@CTCPSocketForWeb@@IAE_NK@Z$5 10039958 f   AFCWebSocket.obj
 0001:00038963       __ehhandler$?OnRecvCompleted@CTCPSocketForWeb@@IAE_NK@Z 10039963 f   AFCWebSocket.obj
 0001:00038990       __unwindfunclet$?HandShake@CTCPSocketForWeb@@IAE_NXZ$0 10039990 f   AFCWebSocket.obj
 0001:00038998       __unwindfunclet$?HandShake@CTCPSocketForWeb@@IAE_NXZ$1 10039998 f   AFCWebSocket.obj
 0001:000389a0       __unwindfunclet$?HandShake@CTCPSocketForWeb@@IAE_NXZ$2 100399a0 f   AFCWebSocket.obj
 0001:000389a8       __unwindfunclet$?HandShake@CTCPSocketForWeb@@IAE_NXZ$4 100399a8 f   AFCWebSocket.obj
 0001:000389b3       __unwindfunclet$?HandShake@CTCPSocketForWeb@@IAE_NXZ$6 100399b3 f   AFCWebSocket.obj
 0001:000389be       __unwindfunclet$?HandShake@CTCPSocketForWeb@@IAE_NXZ$8 100399be f   AFCWebSocket.obj
 0001:000389c9       __unwindfunclet$?HandShake@CTCPSocketForWeb@@IAE_NXZ$9 100399c9 f   AFCWebSocket.obj
 0001:000389d4       __unwindfunclet$?HandShake@CTCPSocketForWeb@@IAE_NXZ$10 100399d4 f   AFCWebSocket.obj
 0001:000389df       __ehhandler$?HandShake@CTCPSocketForWeb@@IAE_NXZ 100399df f   AFCWebSocket.obj
 0001:00038a10       __unwindfunclet$?getHandShakeKeyValue@@YA?AV?$basic_string@DU?$char_traits@D@std@@V?$allocator@D@2@@std@@V12@PBD@Z$0 10039a10 f   AFCWebSocket.obj
 0001:00038a18       __unwindfunclet$?getHandShakeKeyValue@@YA?AV?$basic_string@DU?$char_traits@D@std@@V?$allocator@D@2@@std@@V12@PBD@Z$1 10039a18 f   AFCWebSocket.obj
 0001:00038a31       __unwindfunclet$?getHandShakeKeyValue@@YA?AV?$basic_string@DU?$char_traits@D@std@@V?$allocator@D@2@@std@@V12@PBD@Z$2 10039a31 f   AFCWebSocket.obj
 0001:00038a39       __ehhandler$?getHandShakeKeyValue@@YA?AV?$basic_string@DU?$char_traits@D@std@@V?$allocator@D@2@@std@@V12@PBD@Z 10039a39 f   AFCWebSocket.obj
 0001:00038a60       __unwindfunclet$??0CTCPSocketManageForZ@@QAE@XZ$0 10039a60 f   AFCWebSocket.obj
 0001:00038a60       __unwindfunclet$??0CTCPSocketManageForWeb@@QAE@XZ$0 10039a60 f   AFCWebSocket.obj
 0001:00038a6b       __unwindfunclet$??0CTCPSocketManageForZ@@QAE@XZ$1 10039a6b f   AFCWebSocket.obj
 0001:00038a6b       __unwindfunclet$??0CTCPSocketManageForWeb@@QAE@XZ$1 10039a6b f   AFCWebSocket.obj
 0001:00038a76       __unwindfunclet$??0CTCPSocketManageForZ@@QAE@XZ$2 10039a76 f   AFCWebSocket.obj
 0001:00038a76       __unwindfunclet$??0CTCPSocketManageForWeb@@QAE@XZ$2 10039a76 f   AFCWebSocket.obj
 0001:00038a81       __unwindfunclet$??0CTCPSocketManageForWeb@@QAE@XZ$3 10039a81 f   AFCWebSocket.obj
 0001:00038a81       __unwindfunclet$??0CTCPSocketManageForZ@@QAE@XZ$3 10039a81 f   AFCWebSocket.obj
 0001:00038a8f       __ehhandler$??0CTCPSocketManageForZ@@QAE@XZ 10039a8f f   AFCWebSocket.obj
 0001:00038a8f       __ehhandler$??0CTCPSocketManageForWeb@@QAE@XZ 10039a8f f   AFCWebSocket.obj
 0001:00038ab0       __unwindfunclet$??1CTCPSocketManageForWeb@@UAE@XZ$2 10039ab0 f   AFCWebSocket.obj
 0001:00038abb       __unwindfunclet$??1CTCPSocketManageForWeb@@UAE@XZ$3 10039abb f   AFCWebSocket.obj
 0001:00038ac6       __unwindfunclet$??1CTCPSocketManageForWeb@@UAE@XZ$4 10039ac6 f   AFCWebSocket.obj
 0001:00038ad1       __unwindfunclet$??1CTCPSocketManageForWeb@@UAE@XZ$5 10039ad1 f   AFCWebSocket.obj
 0001:00038adf       __ehhandler$??1CTCPSocketManageForWeb@@UAE@XZ 10039adf f   AFCWebSocket.obj
 0001:00038b00       __unwindfunclet$?Init@CTCPSocketManageForWeb@@UAE_NIIEEHPAUIServerSocketServiceForWeb@@@Z$0 10039b00 f   AFCWebSocket.obj
 0001:00038b00       __unwindfunclet$?Init@CTCPSocketManage@@UAE_NIIEEHPAUIServerSocketService@@@Z$0 10039b00 f   AFCWebSocket.obj
 0001:00038b00       __unwindfunclet$?Init@CTCPSocketManageForZ@@UAE_NIIEEHPAUIServerSocketServiceForZ@@@Z$0 10039b00 f   AFCWebSocket.obj
 0001:00038b0b       __unwindfunclet$?Init@CTCPSocketManage@@UAE_NIIEEHPAUIServerSocketService@@@Z$1 10039b0b f   AFCWebSocket.obj
 0001:00038b0b       __unwindfunclet$?Init@CTCPSocketManageForWeb@@UAE_NIIEEHPAUIServerSocketServiceForWeb@@@Z$1 10039b0b f   AFCWebSocket.obj
 0001:00038b0b       __unwindfunclet$?Init@CTCPSocketManageForZ@@UAE_NIIEEHPAUIServerSocketServiceForZ@@@Z$1 10039b0b f   AFCWebSocket.obj
 0001:00038b16       __unwindfunclet$?Init@CTCPSocketManageForZ@@UAE_NIIEEHPAUIServerSocketServiceForZ@@@Z$2 10039b16 f   AFCWebSocket.obj
 0001:00038b16       __unwindfunclet$?Init@CTCPSocketManage@@UAE_NIIEEHPAUIServerSocketService@@@Z$2 10039b16 f   AFCWebSocket.obj
 0001:00038b16       __unwindfunclet$?Init@CTCPSocketManageForWeb@@UAE_NIIEEHPAUIServerSocketServiceForWeb@@@Z$2 10039b16 f   AFCWebSocket.obj
 0001:00038b21       __unwindfunclet$?Init@CTCPSocketManageForZ@@UAE_NIIEEHPAUIServerSocketServiceForZ@@@Z$3 10039b21 f   AFCWebSocket.obj
 0001:00038b21       __unwindfunclet$?Init@CTCPSocketManage@@UAE_NIIEEHPAUIServerSocketService@@@Z$3 10039b21 f   AFCWebSocket.obj
 0001:00038b21       __unwindfunclet$?Init@CTCPSocketManageForWeb@@UAE_NIIEEHPAUIServerSocketServiceForWeb@@@Z$3 10039b21 f   AFCWebSocket.obj
 0001:00038b2c       __ehhandler$?Init@CTCPSocketManageForZ@@UAE_NIIEEHPAUIServerSocketServiceForZ@@@Z 10039b2c f   AFCWebSocket.obj
 0001:00038b2c       __ehhandler$?Init@CTCPSocketManage@@UAE_NIIEEHPAUIServerSocketService@@@Z 10039b2c f   AFCWebSocket.obj
 0001:00038b2c       __ehhandler$?Init@CTCPSocketManageForWeb@@UAE_NIIEEHPAUIServerSocketServiceForWeb@@@Z 10039b2c f   AFCWebSocket.obj
 0001:00038b50       __ehhandler$?UnInit@CTCPSocketManageForWeb@@UAE_NXZ 10039b50 f   AFCWebSocket.obj
 0001:00038b70       __ehhandler$?ThreadRSSocket@CTCPSocketManageForWeb@@CGIPAX@Z 10039b70 f   AFCWebSocket.obj
 0001:00038b90       __ehhandler$?ThreadBatchSend@CTCPSocketManageForWeb@@CGIPAX@Z 10039b90 f   AFCWebSocket.obj
 0001:00038bb0       __ehhandler$?ThreadAccept@CTCPSocketManageForWeb@@CGIPAX@Z 10039bb0 f   AFCWebSocket.obj
 0001:00038be0       __ehhandler$?ThreadUnionSend@CTCPSocketManageForWeb@@CGIPAX@Z 10039be0 f   AFCWebSocket.obj
 0001:00038c00       __unwindfunclet$?UnionAddUser@CTCPSocketManageForZ@@QAEHII@Z$0 10039c00 f   AFCWebSocket.obj
 0001:00038c00       __unwindfunclet$?UnionAddUser@CTCPSocketManageForWeb@@QAEHII@Z$0 10039c00 f   AFCWebSocket.obj
 0001:00038c08       __unwindfunclet$?UnionAddUser@CTCPSocketManageForWeb@@QAEHII@Z$1 10039c08 f   AFCWebSocket.obj
 0001:00038c08       __unwindfunclet$?UnionAddUser@CTCPSocketManageForZ@@QAEHII@Z$1 10039c08 f   AFCWebSocket.obj
 0001:00038c13       __ehhandler$?UnionAddUser@CTCPSocketManageForWeb@@QAEHII@Z 10039c13 f   AFCWebSocket.obj
 0001:00038c13       __ehhandler$?UnionAddUser@CTCPSocketManageForZ@@QAEHII@Z 10039c13 f   AFCWebSocket.obj
 0001:00038c40       __unwindfunclet$?Init@?$CAFCPtrArray@VCTCPSocketForWeb@@@@QAE_NII@Z$2 10039c40 f   AFCWebSocket.obj
 0001:00038c4b       __ehhandler$?Init@?$CAFCPtrArray@VCTCPSocketForWeb@@@@QAE_NII@Z 10039c4b f   AFCWebSocket.obj
 0001:00038c70       __unwindfunclet$??0CDataLine@@QAE@XZ$0 10039c70 f   DataLine.obj
 0001:00038c7b       __ehhandler$??0CDataLine@@QAE@XZ 10039c7b f   DataLine.obj
 0001:00038ca0       __unwindfunclet$??1CDataLine@@UAE@XZ$0 10039ca0 f   DataLine.obj
 0001:00038cab       __unwindfunclet$??1CDataLine@@UAE@XZ$1 10039cab f   DataLine.obj
 0001:00038cb6       __ehhandler$??1CDataLine@@UAE@XZ 10039cb6 f   DataLine.obj
 0001:00038ce0       __unwindfunclet$?AddData@CDataLine@@UAEIPAUDataLineHead@@IIPAXI@Z$0 10039ce0 f   DataLine.obj
 0001:00038ce8       __ehhandler$?AddData@CDataLine@@UAEIPAUDataLineHead@@IIPAXI@Z 10039ce8 f   DataLine.obj
 0001:00038d10       __unwindfunclet$?GetData@CDataLine@@UAEIPAUDataLineHead@@I@Z$0 10039d10 f   DataLine.obj
 0001:00038d18       __ehhandler$?GetData@CDataLine@@UAEIPAUDataLineHead@@I@Z 10039d18 f   DataLine.obj
 0001:00038d40       __unwindfunclet$??1?$CList@PAUListItemData@@PAU1@@@UAE@XZ$0 10039d40 f   DataLine.obj
 0001:00038d40       __unwindfunclet$??1?$basic_string@DU?$char_traits@D@std@@V?$allocator@D@2@@std@@QAE@XZ$0 10039d40 f   DataLine.obj
 0001:00038d40       __unwindfunclet$??1?$vector@DV?$allocator@D@std@@@std@@QAE@XZ$0 10039d40 f   DataLine.obj
 0001:00038d40       __unwindfunclet$??1?$vector@HV?$allocator@H@std@@@std@@QAE@XZ$0 10039d40 f   DataLine.obj
 0001:00038d48       __ehhandler$??1?$CList@PAUListItemData@@PAU1@@@UAE@XZ 10039d48 f   DataLine.obj
 0001:00038d48       __ehhandler$??1?$basic_string@DU?$char_traits@D@std@@V?$allocator@D@2@@std@@QAE@XZ 10039d48 f   DataLine.obj
 0001:00038d48       __ehhandler$??1?$vector@HV?$allocator@H@std@@@std@@QAE@XZ 10039d48 f   DataLine.obj
 0001:00038d48       __ehhandler$??1?$vector@DV?$allocator@D@std@@@std@@QAE@XZ 10039d48 f   DataLine.obj
 0001:00038d70       __unwindfunclet$??0HNFilter@@QAE@XZ$0 10039d70 f   HNFilter.obj
 0001:00038d78       __ehhandler$??0HNFilter@@QAE@XZ 10039d78 f   HNFilter.obj
 0001:00038da0       __unwindfunclet$??0HNTreeNode@@QAE@XZ$0 10039da0 f   HNFilter.obj
 0001:00038da8       __unwindfunclet$??0HNTreeNode@@QAE@XZ$1 10039da8 f   HNFilter.obj
 0001:00038db3       __ehhandler$??0HNTreeNode@@QAE@XZ 10039db3 f   HNFilter.obj
 0001:00038dd0       __unwindfunclet$?load@HNFilter@@QAEXPBD@Z$0 10039dd0 f   HNFilter.obj
 0001:00038ddb       __unwindfunclet$?load@HNFilter@@QAEXPBD@Z$1 10039ddb f   HNFilter.obj
 0001:00038de6       __unwindfunclet$?load@HNFilter@@QAEXPBD@Z$2 10039de6 f   HNFilter.obj
 0001:00038df1       __ehhandler$?load@HNFilter@@QAEXPBD@Z 10039df1 f   HNFilter.obj
 0001:00038e20       __unwindfunclet$?censor@HNFilter@@QAE_NAAV?$basic_string@DU?$char_traits@D@std@@V?$allocator@D@2@@std@@_N@Z$0 10039e20 f   HNFilter.obj
 0001:00038e28       __unwindfunclet$?censor@HNFilter@@QAE_NAAV?$basic_string@DU?$char_traits@D@std@@V?$allocator@D@2@@std@@_N@Z$1 10039e28 f   HNFilter.obj
 0001:00038e33       __ehhandler$?censor@HNFilter@@QAE_NAAV?$basic_string@DU?$char_traits@D@std@@V?$allocator@D@2@@std@@_N@Z 10039e33 f   HNFilter.obj
 0001:00038e60       __unwindfunclet$??0?$basic_ifstream@DU?$char_traits@D@std@@@std@@QAE@PBDHH@Z$0 10039e60 f   HNFilter.obj
 0001:00038e7d       __unwindfunclet$??0?$basic_ifstream@DU?$char_traits@D@std@@@std@@QAE@PBDHH@Z$1 10039e7d f   HNFilter.obj
 0001:00038e89       __unwindfunclet$??0?$basic_ifstream@DU?$char_traits@D@std@@@std@@QAE@PBDHH@Z$2 10039e89 f   HNFilter.obj
 0001:00038e94       __ehhandler$??0?$basic_ifstream@DU?$char_traits@D@std@@@std@@QAE@PBDHH@Z 10039e94 f   HNFilter.obj
 0001:00038eb0       __unwindfunclet$??1?$basic_ifstream@DU?$char_traits@D@std@@@std@@UAE@XZ$0 10039eb0 f   HNFilter.obj
 0001:00038ebc       __ehhandler$??1?$basic_ifstream@DU?$char_traits@D@std@@@std@@UAE@XZ 10039ebc f   HNFilter.obj
 0001:00038ee0       __unwindfunclet$??0?$basic_filebuf@DU?$char_traits@D@std@@@std@@QAE@PAU_iobuf@@@Z$0 10039ee0 f   HNFilter.obj
 0001:00038ee0       __unwindfunclet$??1?$basic_filebuf@DU?$char_traits@D@std@@@std@@UAE@XZ$0 10039ee0 f   HNFilter.obj
 0001:00038ee9       __ehhandler$??0?$basic_filebuf@DU?$char_traits@D@std@@@std@@QAE@PAU_iobuf@@@Z 10039ee9 f   HNFilter.obj
 0001:00038ee9       __ehhandler$??1?$basic_filebuf@DU?$char_traits@D@std@@@std@@UAE@XZ 10039ee9 f   HNFilter.obj
 0001:00038f10       __unwindfunclet$?overflow@?$basic_filebuf@DU?$char_traits@D@std@@@std@@MAEHH@Z$0 10039f10 f   HNFilter.obj
 0001:00038f18       __ehhandler$?overflow@?$basic_filebuf@DU?$char_traits@D@std@@@std@@MAEHH@Z 10039f18 f   HNFilter.obj
 0001:00038f40       __unwindfunclet$?uflow@?$basic_filebuf@DU?$char_traits@D@std@@@std@@MAEHXZ$0 10039f40 f   HNFilter.obj
 0001:00038f48       __ehhandler$?uflow@?$basic_filebuf@DU?$char_traits@D@std@@@std@@MAEHXZ 10039f48 f   HNFilter.obj
 0001:00038f70       __unwindfunclet$??0?$_Tree@V?$_Tmap_traits@V?$basic_string@DU?$char_traits@D@std@@V?$allocator@D@2@@std@@VHNTreeNode@@U?$less@V?$basic_string@DU?$char_traits@D@std@@V?$allocator@D@2@@std@@@2@V?$allocator@U?$pair@$$CBV?$basic_string@DU?$char_traits@D@std@@V?$allocator@D@2@@std@@VHNTreeNode@@@std@@@2@$0A@@std@@@std@@QAE@ABV01@@Z$2 10039f70 f   HNFilter.obj
 0001:00038f78       __ehhandler$??0?$_Tree@V?$_Tmap_traits@V?$basic_string@DU?$char_traits@D@std@@V?$allocator@D@2@@std@@VHNTreeNode@@U?$less@V?$basic_string@DU?$char_traits@D@std@@V?$allocator@D@2@@std@@@2@V?$allocator@U?$pair@$$CBV?$basic_string@DU?$char_traits@D@std@@V?$allocator@D@2@@std@@VHNTreeNode@@@std@@@2@$0A@@std@@@std@@QAE@ABV01@@Z 10039f78 f   HNFilter.obj
 0001:00038fa0       __unwindfunclet$?open@?$basic_filebuf@DU?$char_traits@D@std@@@std@@QAEPAV12@PBDHH@Z$0 10039fa0 f   HNFilter.obj
 0001:00038fa8       __ehhandler$?open@?$basic_filebuf@DU?$char_traits@D@std@@@std@@QAEPAV12@PBDHH@Z 10039fa8 f   HNFilter.obj
 0001:00038fd0       __unwindfunclet$?_Endwrite@?$basic_filebuf@DU?$char_traits@D@std@@@std@@IAE_NXZ$0 10039fd0 f   HNFilter.obj
 0001:00038fd8       __ehhandler$?_Endwrite@?$basic_filebuf@DU?$char_traits@D@std@@@std@@IAE_NXZ 10039fd8 f   HNFilter.obj
 0001:00039000       __ehhandler$?_Copy@?$_Tree@V?$_Tmap_traits@V?$basic_string@DU?$char_traits@D@std@@V?$allocator@D@2@@std@@VHNTreeNode@@U?$less@V?$basic_string@DU?$char_traits@D@std@@V?$allocator@D@2@@std@@@2@V?$allocator@U?$pair@$$CBV?$basic_string@DU?$char_traits@D@std@@V?$allocator@D@2@@std@@VHNTreeNode@@@std@@@2@$0A@@std@@@std@@IAEPAU_Node@?$_Tree_nod@V?$_Tmap_traits@V?$basic_string@DU?$char_traits@D@std@@V?$allocator@D@2@@std@@VHNTreeNode@@U?$less@V?$basic_string@DU?$char_traits@D@std@@V?$allocator@D@2@@std@@@2@V?$allocator@U?$pair@$$CBV?$basic_string@DU?$char_traits@D@std@@V?$allocator@D@2@@std@@VHNTreeNode@@@std@@@2@$0A@@std@@@2@PAU342@0@Z 1003a000 f   HNFilter.obj
 0001:00039020       __unwindfunclet$??$use_facet@V?$codecvt@DDH@std@@@std@@YAABV?$codecvt@DDH@0@ABVlocale@0@@Z$0 1003a020 f   HNFilter.obj
 0001:00039029       __ehhandler$??$use_facet@V?$codecvt@DDH@std@@@std@@YAABV?$codecvt@DDH@0@ABVlocale@0@@Z 1003a029 f   HNFilter.obj
 0001:00039050       __ehhandler$??$_Buynode@AAU?$pair@$$CBV?$basic_string@DU?$char_traits@D@std@@V?$allocator@D@2@@std@@VHNTreeNode@@@std@@@?$_Tree_val@V?$_Tmap_traits@V?$basic_string@DU?$char_traits@D@std@@V?$allocator@D@2@@std@@VHNTreeNode@@U?$less@V?$basic_string@DU?$char_traits@D@std@@V?$allocator@D@2@@std@@@2@V?$allocator@U?$pair@$$CBV?$basic_string@DU?$char_traits@D@std@@V?$allocator@D@2@@std@@VHNTreeNode@@@std@@@2@$0A@@std@@@std@@QAEPAU_Node@?$_Tree_nod@V?$_Tmap_traits@V?$basic_string@DU?$char_traits@D@std@@V?$allocator@D@2@@std@@VHNTreeNode@@U?$less@V?$basic_string@DU?$char_traits@D@std@@V?$allocator@D@2@@std@@@2@V?$allocator@U?$pair@$$CBV?$basic_string@DU?$char_traits@D@std@@V?$allocator@D@2@@std@@VHNTreeNode@@@std@@@2@$0A@@std@@@1@AAU?$pair@$$CBV?$basic_string@DU?$char_traits@D@std@@V?$allocator@D@2@@std@@VHNTreeNode@@@1@@Z 1003a050 f   HNFilter.obj
 0001:00039070       __unwindfunclet$??0CSmtp@@QAE@XZ$0 1003a070 f   HNSmtp.obj
 0001:0003907b       __unwindfunclet$??0CSmtp@@QAE@XZ$1 1003a07b f   HNSmtp.obj
 0001:00039086       __unwindfunclet$??0CSmtp@@QAE@XZ$2 1003a086 f   HNSmtp.obj
 0001:00039091       __unwindfunclet$??0CSmtp@@QAE@XZ$3 1003a091 f   HNSmtp.obj
 0001:0003909c       __unwindfunclet$??0CSmtp@@QAE@XZ$4 1003a09c f   HNSmtp.obj
 0001:000390a7       __unwindfunclet$??0CSmtp@@QAE@XZ$5 1003a0a7 f   HNSmtp.obj
 0001:000390b5       __unwindfunclet$??0CSmtp@@QAE@XZ$6 1003a0b5 f   HNSmtp.obj
 0001:000390c3       __ehhandler$??0CSmtp@@QAE@XZ 1003a0c3 f   HNSmtp.obj
 0001:000390f0       __unwindfunclet$??1CSmtp@@QAE@XZ$0 1003a0f0 f   HNSmtp.obj
 0001:000390fb       __unwindfunclet$??1CSmtp@@QAE@XZ$1 1003a0fb f   HNSmtp.obj
 0001:00039106       __unwindfunclet$??1CSmtp@@QAE@XZ$2 1003a106 f   HNSmtp.obj
 0001:00039111       __unwindfunclet$??1CSmtp@@QAE@XZ$3 1003a111 f   HNSmtp.obj
 0001:0003911c       __unwindfunclet$??1CSmtp@@QAE@XZ$4 1003a11c f   HNSmtp.obj
 0001:00039127       __unwindfunclet$??1CSmtp@@QAE@XZ$5 1003a127 f   HNSmtp.obj
 0001:00039135       __unwindfunclet$??1CSmtp@@QAE@XZ$6 1003a135 f   HNSmtp.obj
 0001:00039143       __ehhandler$??1CSmtp@@QAE@XZ 1003a143 f   HNSmtp.obj
 0001:00039160       __unwindfunclet$??0CSmtp@@QAE@HV?$basic_string@DU?$char_traits@D@std@@V?$allocator@D@2@@std@@00000@Z$0 1003a160 f   HNSmtp.obj
 0001:0003916b       __unwindfunclet$??0CSmtp@@QAE@HV?$basic_string@DU?$char_traits@D@std@@V?$allocator@D@2@@std@@00000@Z$1 1003a16b f   HNSmtp.obj
 0001:00039173       __unwindfunclet$??0CSmtp@@QAE@HV?$basic_string@DU?$char_traits@D@std@@V?$allocator@D@2@@std@@00000@Z$2 1003a173 f   HNSmtp.obj
 0001:0003917b       __unwindfunclet$??0CSmtp@@QAE@HV?$basic_string@DU?$char_traits@D@std@@V?$allocator@D@2@@std@@00000@Z$3 1003a17b f   HNSmtp.obj
 0001:00039183       __unwindfunclet$??0CSmtp@@QAE@HV?$basic_string@DU?$char_traits@D@std@@V?$allocator@D@2@@std@@00000@Z$4 1003a183 f   HNSmtp.obj
 0001:0003918b       __unwindfunclet$??0CSmtp@@QAE@HV?$basic_string@DU?$char_traits@D@std@@V?$allocator@D@2@@std@@00000@Z$5 1003a18b f   HNSmtp.obj
 0001:00039193       __unwindfunclet$??0CSmtp@@QAE@HV?$basic_string@DU?$char_traits@D@std@@V?$allocator@D@2@@std@@00000@Z$6 1003a193 f   HNSmtp.obj
 0001:0003919e       __unwindfunclet$??0CSmtp@@QAE@HV?$basic_string@DU?$char_traits@D@std@@V?$allocator@D@2@@std@@00000@Z$7 1003a19e f   HNSmtp.obj
 0001:000391a9       __unwindfunclet$??0CSmtp@@QAE@HV?$basic_string@DU?$char_traits@D@std@@V?$allocator@D@2@@std@@00000@Z$8 1003a1a9 f   HNSmtp.obj
 0001:000391b4       __unwindfunclet$??0CSmtp@@QAE@HV?$basic_string@DU?$char_traits@D@std@@V?$allocator@D@2@@std@@00000@Z$9 1003a1b4 f   HNSmtp.obj
 0001:000391bf       __unwindfunclet$??0CSmtp@@QAE@HV?$basic_string@DU?$char_traits@D@std@@V?$allocator@D@2@@std@@00000@Z$10 1003a1bf f   HNSmtp.obj
 0001:000391ca       __unwindfunclet$??0CSmtp@@QAE@HV?$basic_string@DU?$char_traits@D@std@@V?$allocator@D@2@@std@@00000@Z$11 1003a1ca f   HNSmtp.obj
 0001:000391d8       __unwindfunclet$??0CSmtp@@QAE@HV?$basic_string@DU?$char_traits@D@std@@V?$allocator@D@2@@std@@00000@Z$12 1003a1d8 f   HNSmtp.obj
 0001:000391e6       __ehhandler$??0CSmtp@@QAE@HV?$basic_string@DU?$char_traits@D@std@@V?$allocator@D@2@@std@@00000@Z 1003a1e6 f   HNSmtp.obj
 0001:00039210       __unwindfunclet$?Send@CSmtp@@QAE_NAAV?$basic_string@DU?$char_traits@D@std@@V?$allocator@D@2@@std@@@Z$0 1003a210 f   HNSmtp.obj
 0001:00039218       __ehhandler$?Send@CSmtp@@QAE_NAAV?$basic_string@DU?$char_traits@D@std@@V?$allocator@D@2@@std@@@Z 1003a218 f   HNSmtp.obj
 0001:00039240       __unwindfunclet$?Login@CSmtp@@QAEHXZ$0 1003a240 f   HNSmtp.obj
 0001:00039248       __unwindfunclet$?Login@CSmtp@@QAEHXZ$1 1003a248 f   HNSmtp.obj
 0001:00039253       __ehhandler$?Login@CSmtp@@QAEHXZ 1003a253 f   HNSmtp.obj
 0001:00039280       __unwindfunclet$?SendEnd@CSmtp@@QAE_NXZ$0 1003a280 f   HNSmtp.obj
 0001:00039280       __unwindfunclet$?SendEmailHead@CSmtp@@QAE_NXZ$0 1003a280 f   HNSmtp.obj
 0001:00039288       __ehhandler$?SendEmailHead@CSmtp@@QAE_NXZ 1003a288 f   HNSmtp.obj
 0001:00039288       __ehhandler$?SendEnd@CSmtp@@QAE_NXZ 1003a288 f   HNSmtp.obj
 0001:000392b0       __unwindfunclet$?SendTextBody@CSmtp@@QAE_NXZ$0 1003a2b0 f   HNSmtp.obj
 0001:000392b8       __ehhandler$?SendTextBody@CSmtp@@QAE_NXZ 1003a2b8 f   HNSmtp.obj
 0001:000392e0       __unwindfunclet$?SendAttachment_Ex@CSmtp@@QAEHXZ$0 1003a2e0 f   HNSmtp.obj
 0001:000392e8       __unwindfunclet$?SendAttachment_Ex@CSmtp@@QAEHXZ$1 1003a2e8 f   HNSmtp.obj
 0001:000392f3       __ehhandler$?SendAttachment_Ex@CSmtp@@QAEHXZ 1003a2f3 f   HNSmtp.obj
 0001:00039320       __unwindfunclet$??$?6U?$char_traits@D@std@@@std@@YAAAV?$basic_ostream@DU?$char_traits@D@std@@@0@AAV10@PBD@Z$2 1003a320 f   HNSmtp.obj
 0001:00039328       __ehhandler$??$?6U?$char_traits@D@std@@@std@@YAAAV?$basic_ostream@DU?$char_traits@D@std@@@0@AAV10@PBD@Z 1003a328 f   HNSmtp.obj
 0001:00039350       __unwindfunclet$??1?$list@PAUFILEINFO@@V?$allocator@PAUFILEINFO@@@std@@@std@@QAE@XZ$0 1003a350 f   HNSmtp.obj
 0001:00039358       __ehhandler$??1?$list@PAUFILEINFO@@V?$allocator@PAUFILEINFO@@@std@@@std@@QAE@XZ 1003a358 f   HNSmtp.obj
 0001:00039380       __unwindfunclet$??0sentry@?$basic_ostream@DU?$char_traits@D@std@@@std@@QAE@AAV12@@Z$0 1003a380 f   HNSmtp.obj
 0001:00039380       __unwindfunclet$??1sentry@?$basic_ostream@DU?$char_traits@D@std@@@std@@QAE@XZ$0 1003a380 f   HNSmtp.obj
 0001:00039388       __ehhandler$??0sentry@?$basic_ostream@DU?$char_traits@D@std@@@std@@QAE@AAV12@@Z 1003a388 f   HNSmtp.obj
 0001:00039388       __ehhandler$??1sentry@?$basic_ostream@DU?$char_traits@D@std@@@std@@QAE@XZ 1003a388 f   HNSmtp.obj
 0001:000393b0       __ehhandler$?_Buynode@?$_List_val@PAUFILEINFO@@V?$allocator@PAUFILEINFO@@@std@@@std@@QAEPAU_Node@?$_List_nod@PAUFILEINFO@@V?$allocator@PAUFILEINFO@@@std@@@2@PAU342@0ABQAUFILEINFO@@@Z 1003a3b0 f   HNSmtp.obj
 0001:000393d0       __unwindfunclet$?GetWinSysPath@CBcfFile@@SA?AV?$CStringT@DV?$StrTraitMFC_DLL@DV?$ChTraitsCRT@D@ATL@@@@@ATL@@XZ$0 1003a3d0 f   MainManage.obj
 0001:000393dc       __ehhandler$?GetWinSysPath@CBcfFile@@SA?AV?$CStringT@DV?$StrTraitMFC_DLL@DV?$ChTraitsCRT@D@ATL@@@@@ATL@@XZ 1003a3dc f   MainManage.obj
 0001:00039410       __unwindfunclet$?GetAppPath@CBcfFile@@SA?AV?$CStringT@DV?$StrTraitMFC_DLL@DV?$ChTraitsCRT@D@ATL@@@@@ATL@@_N@Z$0 1003a410 f   MainManage.obj
 0001:00039410       __unwindfunclet$?GetAppPath@@YA?AV?$CStringT@DV?$StrTraitMFC_DLL@DV?$ChTraitsCRT@D@ATL@@@@@ATL@@_N@Z$0 1003a410 f   MainManage.obj
 0001:0003941c       __unwindfunclet$?GetAppPath@@YA?AV?$CStringT@DV?$StrTraitMFC_DLL@DV?$ChTraitsCRT@D@ATL@@@@@ATL@@_N@Z$2 1003a41c f   MainManage.obj
 0001:0003941c       __unwindfunclet$?GetAppPath@CBcfFile@@SA?AV?$CStringT@DV?$StrTraitMFC_DLL@DV?$ChTraitsCRT@D@ATL@@@@@ATL@@_N@Z$2 1003a41c f   MainManage.obj
 0001:00039428       __unwindfunclet$?GetAppPath@CBcfFile@@SA?AV?$CStringT@DV?$StrTraitMFC_DLL@DV?$ChTraitsCRT@D@ATL@@@@@ATL@@_N@Z$3 1003a428 f   MainManage.obj
 0001:00039428       __unwindfunclet$?GetAppPath@@YA?AV?$CStringT@DV?$StrTraitMFC_DLL@DV?$ChTraitsCRT@D@ATL@@@@@ATL@@_N@Z$3 1003a428 f   MainManage.obj
 0001:00039434       __unwindfunclet$?GetAppPath@CBcfFile@@SA?AV?$CStringT@DV?$StrTraitMFC_DLL@DV?$ChTraitsCRT@D@ATL@@@@@ATL@@_N@Z$4 1003a434 f   MainManage.obj
 0001:00039434       __unwindfunclet$?GetAppPath@@YA?AV?$CStringT@DV?$StrTraitMFC_DLL@DV?$ChTraitsCRT@D@ATL@@@@@ATL@@_N@Z$4 1003a434 f   MainManage.obj
 0001:00039440       __unwindfunclet$?GetAppPath@@YA?AV?$CStringT@DV?$StrTraitMFC_DLL@DV?$ChTraitsCRT@D@ATL@@@@@ATL@@_N@Z$5 1003a440 f   MainManage.obj
 0001:00039440       __unwindfunclet$?GetAppPath@CBcfFile@@SA?AV?$CStringT@DV?$StrTraitMFC_DLL@DV?$ChTraitsCRT@D@ATL@@@@@ATL@@_N@Z$5 1003a440 f   MainManage.obj
 0001:0003944c       __ehhandler$?GetAppPath@CBcfFile@@SA?AV?$CStringT@DV?$StrTraitMFC_DLL@DV?$ChTraitsCRT@D@ATL@@@@@ATL@@_N@Z 1003a44c f   MainManage.obj
 0001:0003944c       __ehhandler$?GetAppPath@@YA?AV?$CStringT@DV?$StrTraitMFC_DLL@DV?$ChTraitsCRT@D@ATL@@@@@ATL@@_N@Z 1003a44c f   MainManage.obj
 0001:00039480       __unwindfunclet$??0CBcfFile@@QAE@V?$CStringT@DV?$StrTraitMFC_DLL@DV?$ChTraitsCRT@D@ATL@@@@@ATL@@@Z$0 1003a480 f   MainManage.obj
 0001:00039489       __ehhandler$??0CBcfFile@@QAE@V?$CStringT@DV?$StrTraitMFC_DLL@DV?$ChTraitsCRT@D@ATL@@@@@ATL@@@Z 1003a489 f   MainManage.obj
 0001:000394b0       __unwindfunclet$?GetKeyVal@CBcfFile@@QAEHV?$CStringT@DV?$StrTraitMFC_DLL@DV?$ChTraitsCRT@D@ATL@@@@@ATL@@0H@Z$0 1003a4b0 f   MainManage.obj
 0001:000394b9       __unwindfunclet$?GetKeyVal@CBcfFile@@QAEHV?$CStringT@DV?$StrTraitMFC_DLL@DV?$ChTraitsCRT@D@ATL@@@@@ATL@@0H@Z$1 1003a4b9 f   MainManage.obj
 0001:000394c2       __unwindfunclet$?GetKeyVal@CBcfFile@@QAEHV?$CStringT@DV?$StrTraitMFC_DLL@DV?$ChTraitsCRT@D@ATL@@@@@ATL@@0H@Z$2 1003a4c2 f   MainManage.obj
 0001:000394ce       __unwindfunclet$?GetKeyVal@CBcfFile@@QAEHV?$CStringT@DV?$StrTraitMFC_DLL@DV?$ChTraitsCRT@D@ATL@@@@@ATL@@0H@Z$3 1003a4ce f   MainManage.obj
 0001:000394da       __ehhandler$?GetKeyVal@CBcfFile@@QAEHV?$CStringT@DV?$StrTraitMFC_DLL@DV?$ChTraitsCRT@D@ATL@@@@@ATL@@0H@Z 1003a4da f   MainManage.obj
 0001:00039510       __unwindfunclet$?GetKeyVal@CBcfFile@@QAE_JV?$CStringT@DV?$StrTraitMFC_DLL@DV?$ChTraitsCRT@D@ATL@@@@@ATL@@0_J@Z$0 1003a510 f   MainManage.obj
