 GameManage

 Timestamp is 5c736104 (Mon Feb 25 11:29:08 2019)

 Preferred load address is 10000000

 Start         Length     Name                   Class
 0001:00000000 0003903eH .text                   CODE
 0001:00039040 0000221aH .text$x                 CODE
 0001:0003b260 0000033fH .text$yc                CODE
 0001:0003b5a0 0000007eH .text$yd                CODE
 0002:00000000 000003f4H .idata$5                DATA
 0002:000003f4 00000004H .CRT$XCA                DATA
 0002:000003f8 00000004H .CRT$XCL                DATA
 0002:000003fc 0000000cH .CRT$XCU                DATA
 0002:00000408 00000004H .CRT$XCZ                DATA
 0002:0000040c 00000004H .CRT$XIA                DATA
 0002:00000410 00000004H .CRT$XIAA               DATA
 0002:00000414 00000004H .CRT$XIC                DATA
 0002:00000418 00000004H .CRT$XIZ                DATA
 0002:00000420 00002868H .rdata                  DATA
 0002:00002c88 0000005fH .rdata$debug            DATA
 0002:00002ce8 00000778H .rdata$r                DATA
 0002:00003460 000001f0H .rdata$sxdata           DATA
 0002:00003650 00000004H .rtc$IAA                DATA
 0002:00003654 00000004H .rtc$IZZ                DATA
 0002:00003658 00000004H .rtc$TAA                DATA
 0002:0000365c 00000004H .rtc$TZZ                DATA
 0002:00003660 00002b2cH .xdata$x                DATA
 0002:0000618c 00000000H ATL$__a                 DATA
 0002:0000618c 00000000H ATL$__z                 DATA
 0002:0000618c 000000a0H .idata$2                DATA
 0002:0000622c 00000014H .idata$3                DATA
 0002:00006240 000003f4H .idata$4                DATA
 0002:00006634 0000159aH .idata$6                DATA
 0002:00007bd0 00005fcbH .edata                  DATA
 0003:00000000 00000428H .data                   DATA
 0003:00000428 0000065cH .bss                    DATA
 0004:00000000 00000058H .rsrc$01                DATA
 0004:00000060 00000038H .rsrc$02                DATA

  Address         Publics by Value              Rva+Base       Lib:Object

 0000:00000000       __except_list              00000000     <absolute>
 0000:0000007c       ___safe_se_handler_count   0000007c     <absolute>
 0000:00009876       __ldused                   00009876     <absolute>
 0000:00009876       __fltused                  00009876     <absolute>
 0000:00000000       ___ImageBase               10000000     <linker-defined>
 0001:00000000       ??4CSignedLockObject@@QAEAAV0@ABV0@@Z 10001000 f i mainserversocket.obj
 0001:00000030       ??0CAFCSignedLock@@QAE@XZ  10001030 f i mainserversocket.obj
 0001:00000050       ??1CAFCSignedLock@@QAE@XZ  10001050 f i mainserversocket.obj
 0001:00000070       ?Lock@CAFCSignedLock@@AAEXXZ 10001070 f i mainserversocket.obj
 0001:00000090       ?UnLock@CAFCSignedLock@@AAEXXZ 10001090 f i mainserversocket.obj
 0001:000000b0       ??4CAFCSignedLock@@QAEAAV0@ABV0@@Z 100010b0 f i mainserversocket.obj
 0001:000000f0       ??4CAFCRWLock@@QAEAAV0@ABV0@@Z 100010f0 f i mainserversocket.obj
 0001:00000120       ??0CUDPSocket@@QAE@ABV0@@Z 10001120 f i mainserversocket.obj
 0001:00000150       ??_ECUDPSocket@@UAEPAXI@Z  10001150 f i mainserversocket.obj
 0001:000001d0       ?GetSocketState@CTCPClientSocket@@QAEEXZ 100011d0 f i mainserversocket.obj
 0001:000001f0       ??0CListenSocket@@QAE@ABV0@@Z 100011f0 f i mainserversocket.obj
 0001:00000220       ??4CListenSocket@@QAEAAV0@ABV0@@Z 10001220 f i mainserversocket.obj
 0001:00000220       ??4CUDPSocket@@QAEAAV0@ABV0@@Z 10001220 f i mainserversocket.obj
 0001:00000250       ??_ECListenSocket@@UAEPAXI@Z 10001250 f i mainserversocket.obj
 0001:000002d0       ?IsConnect@CTCPSocket@@QAE_NXZ 100012d0 f i mainserversocket.obj
 0001:00000300       ?GetBeginTime@CTCPSocket@@QAEJXZ 10001300 f i mainserversocket.obj
 0001:00000320       ?GetConnectData@CTCPSocket@@QAEKXZ 10001320 f i mainserversocket.obj
 0001:00000340       ?GetRecvLock@CTCPSocket@@QAEPAVCAFCSignedLock@@XZ 10001340 f i mainserversocket.obj
 0001:00000360       ?GetSendLock@CTCPSocket@@QAEPAVCAFCSignedLock@@XZ 10001360 f i mainserversocket.obj
 0001:00000380       ?SetIndex@CTCPSocket@@IAEXI@Z 10001380 f i mainserversocket.obj
 0001:00000380       ?SetIndex@CTCPSocketForZ@@IAEXI@Z 10001380 f i mainserversocket.obj
 0001:00000380       ?SetIndex@CTCPSocketForWeb@@IAEXI@Z 10001380 f i mainserversocket.obj
 0001:000003a0       ?SetSocketManagePtr@CTCPSocket@@IAEXPAVCTCPSocketManage@@@Z 100013a0 f i mainserversocket.obj
 0001:000003d0       ??0CTCPSocket@@QAE@ABV0@@Z 100013d0 f i mainserversocket.obj
 0001:00000570       ??4CTCPSocket@@QAEAAV0@ABV0@@Z 10001570 f i mainserversocket.obj
 0001:00000730       ??_ECTCPSocket@@UAEPAXI@Z  10001730 f i mainserversocket.obj
 0001:000007b0       ?IsConnect@CTCPSocketForZ@@QAE_NXZ 100017b0 f i mainserversocket.obj
 0001:000007e0       ?GetBeginTime@CTCPSocketForZ@@QAEJXZ 100017e0 f i mainserversocket.obj
 0001:00000800       ?GetConnectData@CTCPSocketForZ@@QAEKXZ 10001800 f i mainserversocket.obj
 0001:00000820       ?GetRecvLock@CTCPSocketForZ@@QAEPAVCAFCSignedLock@@XZ 10001820 f i mainserversocket.obj
 0001:00000840       ?GetSendLock@CTCPSocketForZ@@QAEPAVCAFCSignedLock@@XZ 10001840 f i mainserversocket.obj
 0001:00000860       ?SetSocketManagePtr@CTCPSocketForZ@@IAEXPAVCTCPSocketManageForZ@@@Z 10001860 f i mainserversocket.obj
 0001:00000890       ??0CTCPSocketForZ@@QAE@ABV0@@Z 10001890 f i mainserversocket.obj
 0001:00000a30       ??4CTCPSocketForZ@@QAEAAV0@ABV0@@Z 10001a30 f i mainserversocket.obj
 0001:00000bf0       ??_ECTCPSocketForZ@@UAEPAXI@Z 10001bf0 f i mainserversocket.obj
 0001:00000c70       ??0CAFCException@@QAE@ABV0@@Z 10001c70 f i mainserversocket.obj
 0001:00000cc0       ??4CAFCException@@QAEAAV0@ABV0@@Z 10001cc0 f i mainserversocket.obj
 0001:00000d20       ??_ECAFCException@@UAEPAXI@Z 10001d20 f i mainserversocket.obj
 0001:00000da0       ??0CDataBaseHandle@@QAE@ABV0@@Z 10001da0 f i mainserversocket.obj
 0001:00000e00       ??4CDataBaseHandle@@QAEAAV0@ABV0@@Z 10001e00 f i mainserversocket.obj
 0001:00000e60       ??_ECDataBaseHandle@@UAEPAXI@Z 10001e60 f i mainserversocket.obj
 0001:00000ee0       ??0IDataBaseHandleService@@QAE@ABU0@@Z 10001ee0 f i mainserversocket.obj
 0001:00000f10       ??1HNFilter@@QAE@XZ        10001f10 f i mainserversocket.obj
 0001:00000f30       ??0HNFilter@@QAE@ABV0@@Z   10001f30 f i mainserversocket.obj
 0001:00000f60       ??4HNFilter@@QAEAAV0@ABV0@@Z 10001f60 f i mainserversocket.obj
 0001:00000f90       ??1HNTree@@QAE@XZ          10001f90 f i mainserversocket.obj
 0001:00000fb0       ??1HNTreeNode@@QAE@XZ      10001fb0 f i mainserversocket.obj
 0001:00001010       ??1?$map@V?$basic_string@DU?$char_traits@D@std@@V?$allocator@D@2@@std@@VHNTreeNode@@U?$less@V?$basic_string@DU?$char_traits@D@std@@V?$allocator@D@2@@std@@@2@V?$allocator@U?$pair@$$CBV?$basic_string@DU?$char_traits@D@std@@V?$allocator@D@2@@std@@VHNTreeNode@@@std@@@2@@std@@QAE@XZ 10002010 f i mainserversocket.obj
 0001:00001030       ??0HNTree@@QAE@ABV0@@Z     10002030 f i mainserversocket.obj
 0001:00001070       ??4HNTree@@QAEAAV0@ABV0@@Z 10002070 f i mainserversocket.obj
 0001:000010b0       ??0HNTreeNode@@QAE@ABV0@@Z 100020b0 f i mainserversocket.obj
 0001:00001130       ??4HNTreeNode@@QAEAAV0@ABV0@@Z 10002130 f i mainserversocket.obj
 0001:00001180       ?GetHandleID@CTCPSocketForWeb@@QAEKXZ 10002180 f i mainserversocket.obj
 0001:00001180       ?GetStatus@COleDateTime@ATL@@QBE?AW4DateTimeStatus@12@XZ 10002180 f i GameMainManage.obj
 0001:00001180       ?GetCount@?$CArray@ULimitTalkStruct@@U1@@@QBEHXZ 10002180 f i GameMainManage.obj
 0001:00001180       ?size@?$_Tree@V?$_Tmap_traits@V?$basic_string@DU?$char_traits@D@std@@V?$allocator@D@2@@std@@VHNTreeNode@@U?$less@V?$basic_string@DU?$char_traits@D@std@@V?$allocator@D@2@@std@@@2@V?$allocator@U?$pair@$$CBV?$basic_string@DU?$char_traits@D@std@@V?$allocator@D@2@@std@@VHNTreeNode@@@std@@@2@$0A@@std@@@std@@QBEIXZ 10002180 f i mainserversocket.obj
 0001:00001180       ?GetHandleID@CTCPSocket@@QAEKXZ 10002180 f i mainserversocket.obj
 0001:00001180       ?GetCount@CPtrArray@@QBEHXZ 10002180 f i GameDesk.obj
 0001:00001180       ?GetHandleID@CTCPSocketForZ@@QAEKXZ 10002180 f i mainserversocket.obj
 0001:000011a0       ?IsConnect@CTCPSocketForWeb@@QAE_NXZ 100021a0 f i mainserversocket.obj
 0001:000011d0       ?GetBeginTime@CTCPSocketForWeb@@QAEJXZ 100021d0 f i mainserversocket.obj
 0001:000011f0       ?GetConnectData@CTCPSocketForWeb@@QAEKXZ 100021f0 f i mainserversocket.obj
 0001:00001210       ?GetRecvLock@CTCPSocketForWeb@@QAEPAVCAFCSignedLock@@XZ 10002210 f i mainserversocket.obj
 0001:00001230       ?GetSendLock@CTCPSocketForWeb@@QAEPAVCAFCSignedLock@@XZ 10002230 f i mainserversocket.obj
 0001:00001250       ?SetSocketManagePtr@CTCPSocketForWeb@@IAEXPAVCTCPSocketManageForWeb@@@Z 10002250 f i mainserversocket.obj
 0001:00001280       ??0CTCPSocketForWeb@@QAE@ABV0@@Z 10002280 f i mainserversocket.obj
 0001:00001470       ??4CTCPSocketForWeb@@QAEAAV0@ABV0@@Z 10002470 f i mainserversocket.obj
 0001:000016a0       ??_ECTCPSocketForWeb@@UAEPAXI@Z 100026a0 f i mainserversocket.obj
 0001:00001720       ?OnInit@CBaseMainManage@@EAE_NPAUManageInfoStruct@@PAUKernelInfoStruct@@@Z 10002720 f i mainserversocket.obj
 0001:00001720       ?OnInit@CBaseMainManageForWeb@@EAE_NPAUManageInfoStruct@@PAUKernelInfoStruct@@@Z 10002720 f i mainserversocket.obj
 0001:00001740       ?IsAccess@CGameUserInfo@@QAE_NXZ 10002740 f i mainserversocket.obj
 0001:00001760       ?GetListenPort@CTCPSocketManageForWeb@@QAEIXZ 10002760 f i mainserversocket.obj
 0001:00001760       ?GetHandleID@CGameUserInfo@@QAEKXZ 10002760 f i mainserversocket.obj
 0001:00001760       ?GetListenPort@CTCPSocketManage@@QAEIXZ 10002760 f i mainserversocket.obj
 0001:00001780       ?GetSocketIndex@CGameUserInfo@@QAEIXZ 10002780 f i mainserversocket.obj
 0001:000017a0       ?GetLogonTime@CGameUserInfo@@QAEJXZ 100027a0 f i mainserversocket.obj
 0001:000017d0       ??4CGameUserInfo@@QAEAAV0@ABV0@@Z 100027d0 f i mainserversocket.obj
 0001:00001800       ?GetNetCutUserCount@CGameUserInfoManage@@QAEIXZ 10002800 f i mainserversocket.obj
 0001:00001820       ?GetGameRoomCount@CGameUserInfoManage@@QAEIXZ 10002820 f i mainserversocket.obj
 0001:00001850       ??4CGameUserInfoManage@@QAEAAV0@ABV0@@Z 10002850 f i mainserversocket.obj
 0001:00001880       ?OnStop@CBaseMainManageForWeb@@EAE_NXZ 10002880 f i mainserversocket.obj
 0001:00001880       ?InitDeskGameStation@CGameDesk@@UAE_NXZ 10002880 f i mainserversocket.obj
 0001:00001880       ?OnStart@CBaseMainManage@@EAE_NXZ 10002880 f i mainserversocket.obj
 0001:00001880       ?StopTimer@CBaseMainManageForWeb@@UAE_NXZ 10002880 f i mainserversocket.obj
 0001:00001880       ?OnStop@CBaseMainManage@@EAE_NXZ 10002880 f i mainserversocket.obj
 0001:00001880       ?OnUnInit@CBaseMainManageForWeb@@EAE_NXZ 10002880 f i mainserversocket.obj
 0001:00001880       ?OnStart@CBaseMainManageForWeb@@EAE_NXZ 10002880 f i mainserversocket.obj
 0001:00001880       ?StopTimer@CBaseMainManage@@UAE_NXZ 10002880 f i mainserversocket.obj
 0001:00001880       ?OnUnInit@CBaseMainManage@@EAE_NXZ 10002880 f i mainserversocket.obj
 0001:000018a0       ?IsBJLGameType@CGameDesk@@QBE_NXZ 100028a0 f i mainserversocket.obj
 0001:000018d0       ?SetCurrentZhuangjia@CGameDesk@@QAEXJ@Z 100028d0 f i mainserversocket.obj
 0001:000018f0       ?IsZhuangjia@CGameDesk@@QBE_NJ@Z 100028f0 f i mainserversocket.obj
 0001:00001930       ?GetDoublePointEffect@CGameDesk@@IAEEXZ 10002930 f i mainserversocket.obj
 0001:00001950       ?IsLock@CGameDesk@@QAE_NXZ 10002950 f i mainserversocket.obj
 0001:00001970       ?LockDesk@CGameDesk@@QAEXXZ 10002970 f i mainserversocket.obj
 0001:00001990       ?UnlockDesk@CGameDesk@@QAEXXZ 10002990 f i mainserversocket.obj
 0001:000019b0       ?IsVirtualLock@CGameDesk@@QAE_NXZ 100029b0 f i mainserversocket.obj
 0001:000019d0       ?VirtualLockDesk@CGameDesk@@QAEXXZ 100029d0 f i mainserversocket.obj
 0001:000019f0       ?UnVirtualLockDesk@CGameDesk@@QAEXXZ 100029f0 f i mainserversocket.obj
 0001:00001a10       ?GetTableBasePoint@CGameDesk@@QAEHXZ 10002a10 f i mainserversocket.obj
 0001:00001a30       ?SetTableBasePoint@CGameDesk@@QAEXH@Z 10002a30 f i mainserversocket.obj
 0001:00001a60       ?GetTableOwnerID@CGameDesk@@QAEJXZ 10002a60 f i mainserversocket.obj
 0001:00001a80       ?OnWatchSetChange@CGameDesk@@UAE_NEJ_N@Z 10002a80 f i mainserversocket.obj
 0001:00001aa0       ?PropInfo@CGameDesk@@UAEHABUTPropChange@@@Z 10002aa0 f i mainserversocket.obj
 0001:00001ac0       ?IsPlayGame@CGameDesk@@UAE_NE@Z 10002ac0 f i mainserversocket.obj
 0001:00001ae0       ?IsPlayingByGameStation@CGameDesk@@UAEHXZ 10002ae0 f i mainserversocket.obj
 0001:00001b00       ?SetReturnGameInfo@CGameDesk@@UAEXHPAXHH@Z 10002b00 f i mainserversocket.obj
 0001:00001b20       ??1CGameDataBaseHandle@@UAE@XZ 10002b20 f i mainserversocket.obj
 0001:00001b40       ??0CGameDataBaseHandle@@QAE@ABV0@@Z 10002b40 f i mainserversocket.obj
 0001:00001b80       ??4CGameDataBaseHandle@@QAEAAV0@ABV0@@Z 10002b80 f i mainserversocket.obj
 0001:00001bb0       ??_ECGameDataBaseHandle@@UAEPAXI@Z 10002bb0 f i mainserversocket.obj
 0001:00001c30       ??0CMainServerSocket@@QAE@PAVCGameMainManage@@@Z 10002c30 f   mainserversocket.obj
 0001:00001cd0       ??0IClientSocketService@@QAE@XZ 10002cd0 f i mainserversocket.obj
 0001:00001cf0       ??1CMainServerSocket@@QAE@XZ 10002cf0 f   mainserversocket.obj
 0001:00001db0       ?Initial@CMainServerSocket@@QAEHXZ 10002db0 f   mainserversocket.obj
 0001:00001fe0       ??3CObject@@SGXPAX@Z       10002fe0 f i mainserversocket.obj
 0001:00002000       ??2CObject@@SGPAXI@Z       10003000 f i mainserversocket.obj
 0001:00002020       ?Connect@CMainServerSocket@@QAEHPBDI@Z 10003020 f   mainserversocket.obj
 0001:00002080       ?SendData@CMainServerSocket@@QAEHPAXIIII@Z 10003080 f   mainserversocket.obj
 0001:000020d0       ?CheckReConnect@CMainServerSocket@@QAE_NXZ 100030d0 f   mainserversocket.obj
 0001:00002150       ?CheckKeepLive@CMainServerSocket@@QAE_NXZ 10003150 f   mainserversocket.obj
 0001:000021a0       ?OnSocketReadEvent@CMainServerSocket@@UAE_NPAUNetMessageHead@@PAXIPAVCTCPClientSocket@@@Z 100031a0 f   mainserversocket.obj
 0001:00002260       ?OnSocketConnectEvent@CMainServerSocket@@UAE_NIPAVCTCPClientSocket@@@Z 10003260 f   mainserversocket.obj
 0001:000022a0       ?OnSocketCloseEvent@CMainServerSocket@@UAE_NXZ 100032a0 f   mainserversocket.obj
 0001:000022c0       ??HATL@@YA?AV?$CStringT@DV?$StrTraitMFC_DLL@DV?$ChTraitsCRT@D@ATL@@@@@0@ABV10@PBD@Z 100032c0 f i mainserversocket.obj
 0001:00002380       ??0?$map@V?$basic_string@DU?$char_traits@D@std@@V?$allocator@D@2@@std@@VHNTreeNode@@U?$less@V?$basic_string@DU?$char_traits@D@std@@V?$allocator@D@2@@std@@@2@V?$allocator@U?$pair@$$CBV?$basic_string@DU?$char_traits@D@std@@V?$allocator@D@2@@std@@VHNTreeNode@@@std@@@2@@std@@QAE@ABV01@@Z 10003380 f i mainserversocket.obj
 0001:000023b0       ??4?$map@V?$basic_string@DU?$char_traits@D@std@@V?$allocator@D@2@@std@@VHNTreeNode@@U?$less@V?$basic_string@DU?$char_traits@D@std@@V?$allocator@D@2@@std@@@2@V?$allocator@U?$pair@$$CBV?$basic_string@DU?$char_traits@D@std@@V?$allocator@D@2@@std@@VHNTreeNode@@@std@@@2@@std@@QAEAAV01@ABV01@@Z 100033b0 f i mainserversocket.obj
 0001:000023e0       ??1?$_Tree@V?$_Tmap_traits@V?$basic_string@DU?$char_traits@D@std@@V?$allocator@D@2@@std@@VHNTreeNode@@U?$less@V?$basic_string@DU?$char_traits@D@std@@V?$allocator@D@2@@std@@@2@V?$allocator@U?$pair@$$CBV?$basic_string@DU?$char_traits@D@std@@V?$allocator@D@2@@std@@VHNTreeNode@@@std@@@2@$0A@@std@@@std@@QAE@XZ 100033e0 f i mainserversocket.obj
 0001:00002440       ??0?$_Tree@V?$_Tmap_traits@V?$basic_string@DU?$char_traits@D@std@@V?$allocator@D@2@@std@@VHNTreeNode@@U?$less@V?$basic_string@DU?$char_traits@D@std@@V?$allocator@D@2@@std@@@2@V?$allocator@U?$pair@$$CBV?$basic_string@DU?$char_traits@D@std@@V?$allocator@D@2@@std@@VHNTreeNode@@@std@@@2@$0A@@std@@@std@@QAE@ABV01@@Z 10003440 f i mainserversocket.obj
 0001:00002500       ??4?$_Tree@V?$_Tmap_traits@V?$basic_string@DU?$char_traits@D@std@@V?$allocator@D@2@@std@@VHNTreeNode@@U?$less@V?$basic_string@DU?$char_traits@D@std@@V?$allocator@D@2@@std@@@2@V?$allocator@U?$pair@$$CBV?$basic_string@DU?$char_traits@D@std@@V?$allocator@D@2@@std@@VHNTreeNode@@@std@@@2@$0A@@std@@@std@@QAEAAV01@ABV01@@Z 10003500 f i mainserversocket.obj
 0001:00002570       ?_Tidy@?$_Tree@V?$_Tmap_traits@V?$basic_string@DU?$char_traits@D@std@@V?$allocator@D@2@@std@@VHNTreeNode@@U?$less@V?$basic_string@DU?$char_traits@D@std@@V?$allocator@D@2@@std@@@2@V?$allocator@U?$pair@$$CBV?$basic_string@DU?$char_traits@D@std@@V?$allocator@D@2@@std@@VHNTreeNode@@@std@@@2@$0A@@std@@@std@@IAEXXZ 10003570 f i mainserversocket.obj
 0001:000025c0       ??1?$_Tree_val@V?$_Tmap_traits@V?$basic_string@DU?$char_traits@D@std@@V?$allocator@D@2@@std@@VHNTreeNode@@U?$less@V?$basic_string@DU?$char_traits@D@std@@V?$allocator@D@2@@std@@@2@V?$allocator@U?$pair@$$CBV?$basic_string@DU?$char_traits@D@std@@V?$allocator@D@2@@std@@VHNTreeNode@@@std@@@2@$0A@@std@@@std@@QAE@XZ 100035c0 f i mainserversocket.obj
 0001:000025f0       ?begin@?$_Tree@V?$_Tmap_traits@V?$basic_string@DU?$char_traits@D@std@@V?$allocator@D@2@@std@@VHNTreeNode@@U?$less@V?$basic_string@DU?$char_traits@D@std@@V?$allocator@D@2@@std@@@2@V?$allocator@U?$pair@$$CBV?$basic_string@DU?$char_traits@D@std@@V?$allocator@D@2@@std@@VHNTreeNode@@@std@@@2@$0A@@std@@@std@@QAE?AV?$_Tree_iterator@V?$_Tree_val@V?$_Tmap_traits@V?$basic_string@DU?$char_traits@D@std@@V?$allocator@D@2@@std@@VHNTreeNode@@U?$less@V?$basic_string@DU?$char_traits@D@std@@V?$allocator@D@2@@std@@@2@V?$allocator@U?$pair@$$CBV?$basic_string@DU?$char_traits@D@std@@V?$allocator@D@2@@std@@VHNTreeNode@@@std@@@2@$0A@@std@@@std@@@2@XZ 100035f0 f i mainserversocket.obj
 0001:00002620       ?end@?$_Tree@V?$_Tmap_traits@V?$basic_string@DU?$char_traits@D@std@@V?$allocator@D@2@@std@@VHNTreeNode@@U?$less@V?$basic_string@DU?$char_traits@D@std@@V?$allocator@D@2@@std@@@2@V?$allocator@U?$pair@$$CBV?$basic_string@DU?$char_traits@D@std@@V?$allocator@D@2@@std@@VHNTreeNode@@@std@@@2@$0A@@std@@@std@@QAE?AV?$_Tree_iterator@V?$_Tree_val@V?$_Tmap_traits@V?$basic_string@DU?$char_traits@D@std@@V?$allocator@D@2@@std@@VHNTreeNode@@U?$less@V?$basic_string@DU?$char_traits@D@std@@V?$allocator@D@2@@std@@@2@V?$allocator@U?$pair@$$CBV?$basic_string@DU?$char_traits@D@std@@V?$allocator@D@2@@std@@VHNTreeNode@@@std@@@2@$0A@@std@@@std@@@2@XZ 10003620 f i mainserversocket.obj
 0001:00002650       ?key_comp@?$_Tree@V?$_Tmap_traits@V?$basic_string@DU?$char_traits@D@std@@V?$allocator@D@2@@std@@VHNTreeNode@@U?$less@V?$basic_string@DU?$char_traits@D@std@@V?$allocator@D@2@@std@@@2@V?$allocator@U?$pair@$$CBV?$basic_string@DU?$char_traits@D@std@@V?$allocator@D@2@@std@@VHNTreeNode@@@std@@@2@$0A@@std@@@std@@QBE?AU?$less@V?$basic_string@DU?$char_traits@D@std@@V?$allocator@D@2@@std@@@2@XZ 10003650 f i mainserversocket.obj
 0001:00002670       ?erase@?$_Tree@V?$_Tmap_traits@V?$basic_string@DU?$char_traits@D@std@@V?$allocator@D@2@@std@@VHNTreeNode@@U?$less@V?$basic_string@DU?$char_traits@D@std@@V?$allocator@D@2@@std@@@2@V?$allocator@U?$pair@$$CBV?$basic_string@DU?$char_traits@D@std@@V?$allocator@D@2@@std@@VHNTreeNode@@@std@@@2@$0A@@std@@@std@@QAE?AV?$_Tree_iterator@V?$_Tree_val@V?$_Tmap_traits@V?$basic_string@DU?$char_traits@D@std@@V?$allocator@D@2@@std@@VHNTreeNode@@U?$less@V?$basic_string@DU?$char_traits@D@std@@V?$allocator@D@2@@std@@@2@V?$allocator@U?$pair@$$CBV?$basic_string@DU?$char_traits@D@std@@V?$allocator@D@2@@std@@VHNTreeNode@@@std@@@2@$0A@@std@@@std@@@2@V?$_Tree_const_iterator@V?$_Tree_val@V?$_Tmap_traits@V?$basic_string@DU?$char_traits@D@std@@V?$allocator@D@2@@std@@VHNTreeNode@@U?$less@V?$basic_string@DU?$char_traits@D@std@@V?$allocator@D@2@@std@@@2@V?$allocator@U?$pair@$$CBV?$basic_string@DU?$char_traits@D@std@@V?$allocator@D@2@@std@@VHNTreeNode@@@std@@@2@$0A@@std@@@std@@@2@0@Z 10003670 f i mainserversocket.obj
 0001:00002720       ?_Copy@?$_Tree@V?$_Tmap_traits@V?$basic_string@DU?$char_traits@D@std@@V?$allocator@D@2@@std@@VHNTreeNode@@U?$less@V?$basic_string@DU?$char_traits@D@std@@V?$allocator@D@2@@std@@@2@V?$allocator@U?$pair@$$CBV?$basic_string@DU?$char_traits@D@std@@V?$allocator@D@2@@std@@VHNTreeNode@@@std@@@2@$0A@@std@@@std@@IAEXABV12@@Z 10003720 f i mainserversocket.obj
 0001:000027f0       ??0?$_Tree_val@V?$_Tmap_traits@V?$basic_string@DU?$char_traits@D@std@@V?$allocator@D@2@@std@@VHNTreeNode@@U?$less@V?$basic_string@DU?$char_traits@D@std@@V?$allocator@D@2@@std@@@2@V?$allocator@U?$pair@$$CBV?$basic_string@DU?$char_traits@D@std@@V?$allocator@D@2@@std@@VHNTreeNode@@@std@@@2@$0A@@std@@@std@@QAE@ABU?$less@V?$basic_string@DU?$char_traits@D@std@@V?$allocator@D@2@@std@@@1@V?$allocator@U?$pair@$$CBV?$basic_string@DU?$char_traits@D@std@@V?$allocator@D@2@@std@@VHNTreeNode@@@std@@@1@@Z 100037f0 f i mainserversocket.obj
 0001:000028b0       ?erase@?$_Tree@V?$_Tmap_traits@V?$basic_string@DU?$char_traits@D@std@@V?$allocator@D@2@@std@@VHNTreeNode@@U?$less@V?$basic_string@DU?$char_traits@D@std@@V?$allocator@D@2@@std@@@2@V?$allocator@U?$pair@$$CBV?$basic_string@DU?$char_traits@D@std@@V?$allocator@D@2@@std@@VHNTreeNode@@@std@@@2@$0A@@std@@@std@@QAE?AV?$_Tree_iterator@V?$_Tree_val@V?$_Tmap_traits@V?$basic_string@DU?$char_traits@D@std@@V?$allocator@D@2@@std@@VHNTreeNode@@U?$less@V?$basic_string@DU?$char_traits@D@std@@V?$allocator@D@2@@std@@@2@V?$allocator@U?$pair@$$CBV?$basic_string@DU?$char_traits@D@std@@V?$allocator@D@2@@std@@VHNTreeNode@@@std@@@2@$0A@@std@@@std@@@2@V?$_Tree_const_iterator@V?$_Tree_val@V?$_Tmap_traits@V?$basic_string@DU?$char_traits@D@std@@V?$allocator@D@2@@std@@VHNTreeNode@@U?$less@V?$basic_string@DU?$char_traits@D@std@@V?$allocator@D@2@@std@@@2@V?$allocator@U?$pair@$$CBV?$basic_string@DU?$char_traits@D@std@@V?$allocator@D@2@@std@@VHNTreeNode@@@std@@@2@$0A@@std@@@std@@@2@@Z 100038b0 f i mainserversocket.obj
 0001:00003040       ?clear@?$_Tree@V?$_Tmap_traits@V?$basic_string@DU?$char_traits@D@std@@V?$allocator@D@2@@std@@VHNTreeNode@@U?$less@V?$basic_string@DU?$char_traits@D@std@@V?$allocator@D@2@@std@@@2@V?$allocator@U?$pair@$$CBV?$basic_string@DU?$char_traits@D@std@@V?$allocator@D@2@@std@@VHNTreeNode@@@std@@@2@$0A@@std@@@std@@QAEXXZ 10004040 f i mainserversocket.obj
 0001:000030a0       ?_Copy@?$_Tree@V?$_Tmap_traits@V?$basic_string@DU?$char_traits@D@std@@V?$allocator@D@2@@std@@VHNTreeNode@@U?$less@V?$basic_string@DU?$char_traits@D@std@@V?$allocator@D@2@@std@@@2@V?$allocator@U?$pair@$$CBV?$basic_string@DU?$char_traits@D@std@@V?$allocator@D@2@@std@@VHNTreeNode@@@std@@@2@$0A@@std@@@std@@IAEPAU_Node@?$_Tree_nod@V?$_Tmap_traits@V?$basic_string@DU?$char_traits@D@std@@V?$allocator@D@2@@std@@VHNTreeNode@@U?$less@V?$basic_string@DU?$char_traits@D@std@@V?$allocator@D@2@@std@@@2@V?$allocator@U?$pair@$$CBV?$basic_string@DU?$char_traits@D@std@@V?$allocator@D@2@@std@@VHNTreeNode@@@std@@@2@$0A@@std@@@2@PAU342@0@Z 100040a0 f i mainserversocket.obj
 0001:00003200       ?_Lmost@?$_Tree@V?$_Tmap_traits@V?$basic_string@DU?$char_traits@D@std@@V?$allocator@D@2@@std@@VHNTreeNode@@U?$less@V?$basic_string@DU?$char_traits@D@std@@V?$allocator@D@2@@std@@@2@V?$allocator@U?$pair@$$CBV?$basic_string@DU?$char_traits@D@std@@V?$allocator@D@2@@std@@VHNTreeNode@@@std@@@2@$0A@@std@@@std@@IBEAAPAU_Node@?$_Tree_nod@V?$_Tmap_traits@V?$basic_string@DU?$char_traits@D@std@@V?$allocator@D@2@@std@@VHNTreeNode@@U?$less@V?$basic_string@DU?$char_traits@D@std@@V?$allocator@D@2@@std@@@2@V?$allocator@U?$pair@$$CBV?$basic_string@DU?$char_traits@D@std@@V?$allocator@D@2@@std@@VHNTreeNode@@@std@@@2@$0A@@std@@@2@XZ 10004200 f i mainserversocket.obj
 0001:00003230       ?_Rmost@?$_Tree@V?$_Tmap_traits@V?$basic_string@DU?$char_traits@D@std@@V?$allocator@D@2@@std@@VHNTreeNode@@U?$less@V?$basic_string@DU?$char_traits@D@std@@V?$allocator@D@2@@std@@@2@V?$allocator@U?$pair@$$CBV?$basic_string@DU?$char_traits@D@std@@V?$allocator@D@2@@std@@VHNTreeNode@@@std@@@2@$0A@@std@@@std@@IBEAAPAU_Node@?$_Tree_nod@V?$_Tmap_traits@V?$basic_string@DU?$char_traits@D@std@@V?$allocator@D@2@@std@@VHNTreeNode@@U?$less@V?$basic_string@DU?$char_traits@D@std@@V?$allocator@D@2@@std@@@2@V?$allocator@U?$pair@$$CBV?$basic_string@DU?$char_traits@D@std@@V?$allocator@D@2@@std@@VHNTreeNode@@@std@@@2@$0A@@std@@@2@XZ 10004230 f i mainserversocket.obj
 0001:00003260       ?_Root@?$_Tree@V?$_Tmap_traits@V?$basic_string@DU?$char_traits@D@std@@V?$allocator@D@2@@std@@VHNTreeNode@@U?$less@V?$basic_string@DU?$char_traits@D@std@@V?$allocator@D@2@@std@@@2@V?$allocator@U?$pair@$$CBV?$basic_string@DU?$char_traits@D@std@@V?$allocator@D@2@@std@@VHNTreeNode@@@std@@@2@$0A@@std@@@std@@IBEAAPAU_Node@?$_Tree_nod@V?$_Tmap_traits@V?$basic_string@DU?$char_traits@D@std@@V?$allocator@D@2@@std@@VHNTreeNode@@U?$less@V?$basic_string@DU?$char_traits@D@std@@V?$allocator@D@2@@std@@@2@V?$allocator@U?$pair@$$CBV?$basic_string@DU?$char_traits@D@std@@V?$allocator@D@2@@std@@VHNTreeNode@@@std@@@2@$0A@@std@@@2@XZ 10004260 f i mainserversocket.obj
 0001:00003290       ?_Color@?$_Tree_val@V?$_Tmap_traits@V?$basic_string@DU?$char_traits@D@std@@V?$allocator@D@2@@std@@VHNTreeNode@@U?$less@V?$basic_string@DU?$char_traits@D@std@@V?$allocator@D@2@@std@@@2@V?$allocator@U?$pair@$$CBV?$basic_string@DU?$char_traits@D@std@@V?$allocator@D@2@@std@@VHNTreeNode@@@std@@@2@$0A@@std@@@std@@SAAADPAU_Node@?$_Tree_nod@V?$_Tmap_traits@V?$basic_string@DU?$char_traits@D@std@@V?$allocator@D@2@@std@@VHNTreeNode@@U?$less@V?$basic_string@DU?$char_traits@D@std@@V?$allocator@D@2@@std@@@2@V?$allocator@U?$pair@$$CBV?$basic_string@DU?$char_traits@D@std@@V?$allocator@D@2@@std@@VHNTreeNode@@@std@@@2@$0A@@std@@@2@@Z 10004290 f i mainserversocket.obj
 0001:000032b0       ?_Isnil@?$_Tree_val@V?$_Tmap_traits@V?$basic_string@DU?$char_traits@D@std@@V?$allocator@D@2@@std@@VHNTreeNode@@U?$less@V?$basic_string@DU?$char_traits@D@std@@V?$allocator@D@2@@std@@@2@V?$allocator@U?$pair@$$CBV?$basic_string@DU?$char_traits@D@std@@V?$allocator@D@2@@std@@VHNTreeNode@@@std@@@2@$0A@@std@@@std@@SAAADPAU_Node@?$_Tree_nod@V?$_Tmap_traits@V?$basic_string@DU?$char_traits@D@std@@V?$allocator@D@2@@std@@VHNTreeNode@@U?$less@V?$basic_string@DU?$char_traits@D@std@@V?$allocator@D@2@@std@@@2@V?$allocator@U?$pair@$$CBV?$basic_string@DU?$char_traits@D@std@@V?$allocator@D@2@@std@@VHNTreeNode@@@std@@@2@$0A@@std@@@2@@Z 100042b0 f i mainserversocket.obj
 0001:000032d0       ?_Parent@?$_Tree_val@V?$_Tmap_traits@V?$basic_string@DU?$char_traits@D@std@@V?$allocator@D@2@@std@@VHNTreeNode@@U?$less@V?$basic_string@DU?$char_traits@D@std@@V?$allocator@D@2@@std@@@2@V?$allocator@U?$pair@$$CBV?$basic_string@DU?$char_traits@D@std@@V?$allocator@D@2@@std@@VHNTreeNode@@@std@@@2@$0A@@std@@@std@@SAAAPAU_Node@?$_Tree_nod@V?$_Tmap_traits@V?$basic_string@DU?$char_traits@D@std@@V?$allocator@D@2@@std@@VHNTreeNode@@U?$less@V?$basic_string@DU?$char_traits@D@std@@V?$allocator@D@2@@std@@@2@V?$allocator@U?$pair@$$CBV?$basic_string@DU?$char_traits@D@std@@V?$allocator@D@2@@std@@VHNTreeNode@@@std@@@2@$0A@@std@@@2@PAU342@@Z 100042d0 f i mainserversocket.obj
 0001:000032d0       ?_Prevnode@?$_List_val@PAVCGameUserInfo@@V?$allocator@PAVCGameUserInfo@@@std@@@std@@SAAAPAU_Node@?$_List_nod@PAVCGameUserInfo@@V?$allocator@PAVCGameUserInfo@@@std@@@2@PAU342@@Z 100042d0 f i GameMainManage.obj
 0001:000032d0       ?_Prevnode@?$_List_val@PAUFILEINFO@@V?$allocator@PAUFILEINFO@@@std@@@std@@SAAAPAU_Node@?$_List_nod@PAUFILEINFO@@V?$allocator@PAUFILEINFO@@@std@@@2@PAU342@@Z 100042d0 f i stdafx.obj
 0001:000032f0       ?_Max@?$_Tree_val@V?$_Tmap_traits@V?$basic_string@DU?$char_traits@D@std@@V?$allocator@D@2@@std@@VHNTreeNode@@U?$less@V?$basic_string@DU?$char_traits@D@std@@V?$allocator@D@2@@std@@@2@V?$allocator@U?$pair@$$CBV?$basic_string@DU?$char_traits@D@std@@V?$allocator@D@2@@std@@VHNTreeNode@@@std@@@2@$0A@@std@@@std@@SAPAU_Node@?$_Tree_nod@V?$_Tmap_traits@V?$basic_string@DU?$char_traits@D@std@@V?$allocator@D@2@@std@@VHNTreeNode@@U?$less@V?$basic_string@DU?$char_traits@D@std@@V?$allocator@D@2@@std@@@2@V?$allocator@U?$pair@$$CBV?$basic_string@DU?$char_traits@D@std@@V?$allocator@D@2@@std@@VHNTreeNode@@@std@@@2@$0A@@std@@@2@PAU342@@Z 100042f0 f i mainserversocket.obj
 0001:00003340       ?_Min@?$_Tree_val@V?$_Tmap_traits@V?$basic_string@DU?$char_traits@D@std@@V?$allocator@D@2@@std@@VHNTreeNode@@U?$less@V?$basic_string@DU?$char_traits@D@std@@V?$allocator@D@2@@std@@@2@V?$allocator@U?$pair@$$CBV?$basic_string@DU?$char_traits@D@std@@V?$allocator@D@2@@std@@VHNTreeNode@@@std@@@2@$0A@@std@@@std@@SAPAU_Node@?$_Tree_nod@V?$_Tmap_traits@V?$basic_string@DU?$char_traits@D@std@@V?$allocator@D@2@@std@@VHNTreeNode@@U?$less@V?$basic_string@DU?$char_traits@D@std@@V?$allocator@D@2@@std@@@2@V?$allocator@U?$pair@$$CBV?$basic_string@DU?$char_traits@D@std@@V?$allocator@D@2@@std@@VHNTreeNode@@@std@@@2@$0A@@std@@@2@PAU342@@Z 10004340 f i mainserversocket.obj
 0001:00003390       ??0?$_Tree_nod@V?$_Tmap_traits@V?$basic_string@DU?$char_traits@D@std@@V?$allocator@D@2@@std@@VHNTreeNode@@U?$less@V?$basic_string@DU?$char_traits@D@std@@V?$allocator@D@2@@std@@@2@V?$allocator@U?$pair@$$CBV?$basic_string@DU?$char_traits@D@std@@V?$allocator@D@2@@std@@VHNTreeNode@@@std@@@2@$0A@@std@@@std@@QAE@ABU?$less@V?$basic_string@DU?$char_traits@D@std@@V?$allocator@D@2@@std@@@1@V?$allocator@U?$pair@$$CBV?$basic_string@DU?$char_traits@D@std@@V?$allocator@D@2@@std@@VHNTreeNode@@@std@@@1@@Z 10004390 f i mainserversocket.obj
 0001:000033e0       ?allocate@?$allocator@U_Node@?$_Tree_nod@V?$_Tmap_traits@V?$basic_string@DU?$char_traits@D@std@@V?$allocator@D@2@@std@@VHNTreeNode@@U?$less@V?$basic_string@DU?$char_traits@D@std@@V?$allocator@D@2@@std@@@2@V?$allocator@U?$pair@$$CBV?$basic_string@DU?$char_traits@D@std@@V?$allocator@D@2@@std@@VHNTreeNode@@@std@@@2@$0A@@std@@@std@@@std@@QAEPAU_Node@?$_Tree_nod@V?$_Tmap_traits@V?$basic_string@DU?$char_traits@D@std@@V?$allocator@D@2@@std@@VHNTreeNode@@U?$less@V?$basic_string@DU?$char_traits@D@std@@V?$allocator@D@2@@std@@@2@V?$allocator@U?$pair@$$CBV?$basic_string@DU?$char_traits@D@std@@V?$allocator@D@2@@std@@VHNTreeNode@@@std@@@2@$0A@@std@@@2@I@Z 100043e0 f i mainserversocket.obj
 0001:00003410       ??0?$_List_iterator@V?$_List_val@PAVCGameUserInfo@@V?$allocator@PAVCGameUserInfo@@@std@@@std@@@std@@QAE@PAU_Node@?$_List_nod@PAVCGameUserInfo@@V?$allocator@PAVCGameUserInfo@@@std@@@1@PBV?$_List_val@PAVCGameUserInfo@@V?$allocator@PAVCGameUserInfo@@@std@@@1@@Z 10004410 f i GameMainManage.obj
 0001:00003410       ??0?$_List_iterator@V?$_List_val@PAUFILEINFO@@V?$allocator@PAUFILEINFO@@@std@@@std@@@std@@QAE@PAU_Node@?$_List_nod@PAUFILEINFO@@V?$allocator@PAUFILEINFO@@@std@@@1@PBV?$_List_val@PAUFILEINFO@@V?$allocator@PAUFILEINFO@@@std@@@1@@Z 10004410 f i stdafx.obj
 0001:00003410       ??0?$_Tree_iterator@V?$_Tree_val@V?$_Tmap_traits@V?$basic_string@DU?$char_traits@D@std@@V?$allocator@D@2@@std@@VHNTreeNode@@U?$less@V?$basic_string@DU?$char_traits@D@std@@V?$allocator@D@2@@std@@@2@V?$allocator@U?$pair@$$CBV?$basic_string@DU?$char_traits@D@std@@V?$allocator@D@2@@std@@VHNTreeNode@@@std@@@2@$0A@@std@@@std@@@std@@QAE@PAU_Node@?$_Tree_nod@V?$_Tmap_traits@V?$basic_string@DU?$char_traits@D@std@@V?$allocator@D@2@@std@@VHNTreeNode@@U?$less@V?$basic_string@DU?$char_traits@D@std@@V?$allocator@D@2@@std@@@2@V?$allocator@U?$pair@$$CBV?$basic_string@DU?$char_traits@D@std@@V?$allocator@D@2@@std@@VHNTreeNode@@@std@@@2@$0A@@std@@@1@PBV?$_Tree_val@V?$_Tmap_traits@V?$basic_string@DU?$char_traits@D@std@@V?$allocator@D@2@@std@@VHNTreeNode@@U?$less@V?$basic_string@DU?$char_traits@D@std@@V?$allocator@D@2@@std@@@2@V?$allocator@U?$pair@$$CBV?$basic_string@DU?$char_traits@D@std@@V?$allocator@D@2@@std@@VHNTreeNode@@@std@@@2@$0A@@std@@@1@@Z 10004410 f i mainserversocket.obj
 0001:00003440       ??E?$_Tree_const_iterator@V?$_Tree_val@V?$_Tmap_traits@V?$basic_string@DU?$char_traits@D@std@@V?$allocator@D@2@@std@@VHNTreeNode@@U?$less@V?$basic_string@DU?$char_traits@D@std@@V?$allocator@D@2@@std@@@2@V?$allocator@U?$pair@$$CBV?$basic_string@DU?$char_traits@D@std@@V?$allocator@D@2@@std@@VHNTreeNode@@@std@@@2@$0A@@std@@@std@@@std@@QAE?AV01@H@Z 10004440 f i mainserversocket.obj
 0001:00003470       ??9?$_List_const_iterator@V?$_List_val@PAUFILEINFO@@V?$allocator@PAUFILEINFO@@@std@@@std@@@std@@QBE_NABV01@@Z 10004470 f i stdafx.obj
 0001:00003470       ??9?$_List_const_iterator@V?$_List_val@PAVCGameUserInfo@@V?$allocator@PAVCGameUserInfo@@@std@@@std@@@std@@QBE_NABV01@@Z 10004470 f i GameMainManage.obj
 0001:00003470       ??9?$_Tree_const_iterator@V?$_Tree_val@V?$_Tmap_traits@V?$basic_string@DU?$char_traits@D@std@@V?$allocator@D@2@@std@@VHNTreeNode@@U?$less@V?$basic_string@DU?$char_traits@D@std@@V?$allocator@D@2@@std@@@2@V?$allocator@U?$pair@$$CBV?$basic_string@DU?$char_traits@D@std@@V?$allocator@D@2@@std@@VHNTreeNode@@@std@@@2@$0A@@std@@@std@@@std@@QBE_NABV01@@Z 10004470 f i mainserversocket.obj
 0001:000034a0       ?_Erase@?$_Tree@V?$_Tmap_traits@V?$basic_string@DU?$char_traits@D@std@@V?$allocator@D@2@@std@@VHNTreeNode@@U?$less@V?$basic_string@DU?$char_traits@D@std@@V?$allocator@D@2@@std@@@2@V?$allocator@U?$pair@$$CBV?$basic_string@DU?$char_traits@D@std@@V?$allocator@D@2@@std@@VHNTreeNode@@@std@@@2@$0A@@std@@@std@@IAEXPAU_Node@?$_Tree_nod@V?$_Tmap_traits@V?$basic_string@DU?$char_traits@D@std@@V?$allocator@D@2@@std@@VHNTreeNode@@U?$less@V?$basic_string@DU?$char_traits@D@std@@V?$allocator@D@2@@std@@@2@V?$allocator@U?$pair@$$CBV?$basic_string@DU?$char_traits@D@std@@V?$allocator@D@2@@std@@VHNTreeNode@@@std@@@2@$0A@@std@@@2@@Z 100044a0 f i mainserversocket.obj
 0001:00003540       ?_Lrotate@?$_Tree@V?$_Tmap_traits@V?$basic_string@DU?$char_traits@D@std@@V?$allocator@D@2@@std@@VHNTreeNode@@U?$less@V?$basic_string@DU?$char_traits@D@std@@V?$allocator@D@2@@std@@@2@V?$allocator@U?$pair@$$CBV?$basic_string@DU?$char_traits@D@std@@V?$allocator@D@2@@std@@VHNTreeNode@@@std@@@2@$0A@@std@@@std@@IAEXPAU_Node@?$_Tree_nod@V?$_Tmap_traits@V?$basic_string@DU?$char_traits@D@std@@V?$allocator@D@2@@std@@VHNTreeNode@@U?$less@V?$basic_string@DU?$char_traits@D@std@@V?$allocator@D@2@@std@@@2@V?$allocator@U?$pair@$$CBV?$basic_string@DU?$char_traits@D@std@@V?$allocator@D@2@@std@@VHNTreeNode@@@std@@@2@$0A@@std@@@2@@Z 10004540 f i mainserversocket.obj
 0001:00003680       ?_Rrotate@?$_Tree@V?$_Tmap_traits@V?$basic_string@DU?$char_traits@D@std@@V?$allocator@D@2@@std@@VHNTreeNode@@U?$less@V?$basic_string@DU?$char_traits@D@std@@V?$allocator@D@2@@std@@@2@V?$allocator@U?$pair@$$CBV?$basic_string@DU?$char_traits@D@std@@V?$allocator@D@2@@std@@VHNTreeNode@@@std@@@2@$0A@@std@@@std@@IAEXPAU_Node@?$_Tree_nod@V?$_Tmap_traits@V?$basic_string@DU?$char_traits@D@std@@V?$allocator@D@2@@std@@VHNTreeNode@@U?$less@V?$basic_string@DU?$char_traits@D@std@@V?$allocator@D@2@@std@@@2@V?$allocator@U?$pair@$$CBV?$basic_string@DU?$char_traits@D@std@@V?$allocator@D@2@@std@@VHNTreeNode@@@std@@@2@$0A@@std@@@2@@Z 10004680 f i mainserversocket.obj
 0001:000037c0       ?_Myval@?$_Tree_val@V?$_Tmap_traits@V?$basic_string@DU?$char_traits@D@std@@V?$allocator@D@2@@std@@VHNTreeNode@@U?$less@V?$basic_string@DU?$char_traits@D@std@@V?$allocator@D@2@@std@@@2@V?$allocator@U?$pair@$$CBV?$basic_string@DU?$char_traits@D@std@@V?$allocator@D@2@@std@@VHNTreeNode@@@std@@@2@$0A@@std@@@std@@SAAAU?$pair@$$CBV?$basic_string@DU?$char_traits@D@std@@V?$allocator@D@2@@std@@VHNTreeNode@@@2@PAU_Node@?$_Tree_nod@V?$_Tmap_traits@V?$basic_string@DU?$char_traits@D@std@@V?$allocator@D@2@@std@@VHNTreeNode@@U?$less@V?$basic_string@DU?$char_traits@D@std@@V?$allocator@D@2@@std@@@2@V?$allocator@U?$pair@$$CBV?$basic_string@DU?$char_traits@D@std@@V?$allocator@D@2@@std@@VHNTreeNode@@@std@@@2@$0A@@std@@@2@@Z 100047c0 f i mainserversocket.obj
 0001:000037e0       ??0?$_Tree_const_iterator@V?$_Tree_val@V?$_Tmap_traits@V?$basic_string@DU?$char_traits@D@std@@V?$allocator@D@2@@std@@VHNTreeNode@@U?$less@V?$basic_string@DU?$char_traits@D@std@@V?$allocator@D@2@@std@@@2@V?$allocator@U?$pair@$$CBV?$basic_string@DU?$char_traits@D@std@@V?$allocator@D@2@@std@@VHNTreeNode@@@std@@@2@$0A@@std@@@std@@@std@@QAE@PAU_Node@?$_Tree_nod@V?$_Tmap_traits@V?$basic_string@DU?$char_traits@D@std@@V?$allocator@D@2@@std@@VHNTreeNode@@U?$less@V?$basic_string@DU?$char_traits@D@std@@V?$allocator@D@2@@std@@@2@V?$allocator@U?$pair@$$CBV?$basic_string@DU?$char_traits@D@std@@V?$allocator@D@2@@std@@VHNTreeNode@@@std@@@2@$0A@@std@@@1@PBV?$_Tree_val@V?$_Tmap_traits@V?$basic_string@DU?$char_traits@D@std@@V?$allocator@D@2@@std@@VHNTreeNode@@U?$less@V?$basic_string@DU?$char_traits@D@std@@V?$allocator@D@2@@std@@@2@V?$allocator@U?$pair@$$CBV?$basic_string@DU?$char_traits@D@std@@V?$allocator@D@2@@std@@VHNTreeNode@@@std@@@2@$0A@@std@@@1@@Z 100047e0 f i mainserversocket.obj
 0001:000037e0       ??0?$_Vector_iterator@V?$_Vector_val@IV?$allocator@I@std@@@std@@@std@@QAE@PAIPBU_Container_base0@1@@Z 100047e0 f i GameMainManage.obj
 0001:000037e0       ??0?$_List_const_iterator@V?$_List_val@PAVCGameUserInfo@@V?$allocator@PAVCGameUserInfo@@@std@@@std@@@std@@QAE@PAU_Node@?$_List_nod@PAVCGameUserInfo@@V?$allocator@PAVCGameUserInfo@@@std@@@1@PBV?$_List_val@PAVCGameUserInfo@@V?$allocator@PAVCGameUserInfo@@@std@@@1@@Z 100047e0 f i GameMainManage.obj
 0001:000037e0       ??0?$_Vector_iterator@V?$_Vector_val@JV?$allocator@J@std@@@std@@@std@@QAE@PAJPBU_Container_base0@1@@Z 100047e0 f i GameMainManage.obj
 0001:000037e0       ??0?$_List_const_iterator@V?$_List_val@PAUFILEINFO@@V?$allocator@PAUFILEINFO@@@std@@@std@@@std@@QAE@PAU_Node@?$_List_nod@PAUFILEINFO@@V?$allocator@PAUFILEINFO@@@std@@@1@PBV?$_List_val@PAUFILEINFO@@V?$allocator@PAUFILEINFO@@@std@@@1@@Z 100047e0 f i stdafx.obj
 0001:000037e0       ??0?$_Vector_iterator@V?$_Vector_val@UMSG_GR_S_Position_Notice@@V?$allocator@UMSG_GR_S_Position_Notice@@@std@@@std@@@std@@QAE@PAUMSG_GR_S_Position_Notice@@PBU_Container_base0@1@@Z 100047e0 f i GameDesk.obj
 0001:000037e0       ??0?$_Vector_iterator@V?$_Vector_val@HV?$allocator@H@std@@@std@@@std@@QAE@PAHPBU_Container_base0@1@@Z 100047e0 f i GameDesk.obj
 0001:000037e0       ??0?$_Vector_iterator@V?$_Vector_val@PAVCGameUserInfo@@V?$allocator@PAVCGameUserInfo@@@std@@@std@@@std@@QAE@PAPAVCGameUserInfo@@PBU_Container_base0@1@@Z 100047e0 f i GameMainManage.obj
 0001:000037e0       ??0?$_Vector_iterator@V?$_Vector_val@UMSG_GM_S_ReturnGameInfo@@V?$allocator@UMSG_GM_S_ReturnGameInfo@@@std@@@std@@@std@@QAE@PAUMSG_GM_S_ReturnGameInfo@@PBU_Container_base0@1@@Z 100047e0 f i GameDesk.obj
 0001:000037e0       ??0?$_Vector_iterator@V?$_Vector_val@UQueueInfo_t@@V?$allocator@UQueueInfo_t@@@std@@@std@@@std@@QAE@PAUQueueInfo_t@@PBU_Container_base0@1@@Z 100047e0 f i AutoAllotDesk.obj
 0001:00003810       ??E?$_Tree_const_iterator@V?$_Tree_val@V?$_Tmap_traits@V?$basic_string@DU?$char_traits@D@std@@V?$allocator@D@2@@std@@VHNTreeNode@@U?$less@V?$basic_string@DU?$char_traits@D@std@@V?$allocator@D@2@@std@@@2@V?$allocator@U?$pair@$$CBV?$basic_string@DU?$char_traits@D@std@@V?$allocator@D@2@@std@@VHNTreeNode@@@std@@@2@$0A@@std@@@std@@@std@@QAEAAV01@XZ 10004810 f i mainserversocket.obj
 0001:00003830       ??0?$_Vector_const_iterator@V?$_Vector_val@JV?$allocator@J@std@@@std@@@std@@QAE@PAJPBU_Container_base0@1@@Z 10004830 f i GameMainManage.obj
 0001:00003830       ??0?$_List_unchecked_const_iterator@V?$_List_val@PAUFILEINFO@@V?$allocator@PAUFILEINFO@@@std@@@std@@U_Iterator_base0@2@@std@@QAE@PAU_Node@?$_List_nod@PAUFILEINFO@@V?$allocator@PAUFILEINFO@@@std@@@1@PBV?$_List_val@PAUFILEINFO@@V?$allocator@PAUFILEINFO@@@std@@@1@@Z 10004830 f i stdafx.obj
 0001:00003830       ??0?$_List_unchecked_const_iterator@V?$_List_val@PAVCGameUserInfo@@V?$allocator@PAVCGameUserInfo@@@std@@@std@@U_Iterator_base0@2@@std@@QAE@PAU_Node@?$_List_nod@PAVCGameUserInfo@@V?$allocator@PAVCGameUserInfo@@@std@@@1@PBV?$_List_val@PAVCGameUserInfo@@V?$allocator@PAVCGameUserInfo@@@std@@@1@@Z 10004830 f i GameMainManage.obj
 0001:00003830       ??0?$_Vector_const_iterator@V?$_Vector_val@UMSG_GM_S_ReturnGameInfo@@V?$allocator@UMSG_GM_S_ReturnGameInfo@@@std@@@std@@@std@@QAE@PAUMSG_GM_S_ReturnGameInfo@@PBU_Container_base0@1@@Z 10004830 f i GameDesk.obj
 0001:00003830       ??0?$_Tree_unchecked_const_iterator@V?$_Tree_val@V?$_Tmap_traits@V?$basic_string@DU?$char_traits@D@std@@V?$allocator@D@2@@std@@VHNTreeNode@@U?$less@V?$basic_string@DU?$char_traits@D@std@@V?$allocator@D@2@@std@@@2@V?$allocator@U?$pair@$$CBV?$basic_string@DU?$char_traits@D@std@@V?$allocator@D@2@@std@@VHNTreeNode@@@std@@@2@$0A@@std@@@std@@U_Iterator_base0@2@@std@@QAE@PAU_Node@?$_Tree_nod@V?$_Tmap_traits@V?$basic_string@DU?$char_traits@D@std@@V?$allocator@D@2@@std@@VHNTreeNode@@U?$less@V?$basic_string@DU?$char_traits@D@std@@V?$allocator@D@2@@std@@@2@V?$allocator@U?$pair@$$CBV?$basic_string@DU?$char_traits@D@std@@V?$allocator@D@2@@std@@VHNTreeNode@@@std@@@2@$0A@@std@@@1@PBV?$_Tree_val@V?$_Tmap_traits@V?$basic_string@DU?$char_traits@D@std@@V?$allocator@D@2@@std@@VHNTreeNode@@U?$less@V?$basic_string@DU?$char_traits@D@std@@V?$allocator@D@2@@std@@@2@V?$allocator@U?$pair@$$CBV?$basic_string@DU?$char_traits@D@std@@V?$allocator@D@2@@std@@VHNTreeNode@@@std@@@2@$0A@@std@@@1@@Z 10004830 f i mainserversocket.obj
 0001:00003830       ??0?$_Vector_const_iterator@V?$_Vector_val@HV?$allocator@H@std@@@std@@@std@@QAE@PAHPBU_Container_base0@1@@Z 10004830 f i GameDesk.obj
 0001:00003830       ??0?$_Vector_const_iterator@V?$_Vector_val@UMSG_GR_S_Position_Notice@@V?$allocator@UMSG_GR_S_Position_Notice@@@std@@@std@@@std@@QAE@PAUMSG_GR_S_Position_Notice@@PBU_Container_base0@1@@Z 10004830 f i GameDesk.obj
 0001:00003830       ??0?$_Vector_const_iterator@V?$_Vector_val@PAVCGameUserInfo@@V?$allocator@PAVCGameUserInfo@@@std@@@std@@@std@@QAE@PAPAVCGameUserInfo@@PBU_Container_base0@1@@Z 10004830 f i GameMainManage.obj
 0001:00003830       ??0?$_Vector_const_iterator@V?$_Vector_val@UQueueInfo_t@@V?$allocator@UQueueInfo_t@@@std@@@std@@@std@@QAE@PAUQueueInfo_t@@PBU_Container_base0@1@@Z 10004830 f i AutoAllotDesk.obj
 0001:00003830       ??0?$_Vector_const_iterator@V?$_Vector_val@IV?$allocator@I@std@@@std@@@std@@QAE@PAIPBU_Container_base0@1@@Z 10004830 f i GameMainManage.obj
 0001:00003860       ??E?$_Tree_unchecked_const_iterator@V?$_Tree_val@V?$_Tmap_traits@V?$basic_string@DU?$char_traits@D@std@@V?$allocator@D@2@@std@@VHNTreeNode@@U?$less@V?$basic_string@DU?$char_traits@D@std@@V?$allocator@D@2@@std@@@2@V?$allocator@U?$pair@$$CBV?$basic_string@DU?$char_traits@D@std@@V?$allocator@D@2@@std@@VHNTreeNode@@@std@@@2@$0A@@std@@@std@@U_Iterator_base0@2@@std@@QAEAAV01@XZ 10004860 f i mainserversocket.obj
 0001:00003920       ??$_Dest_val@V?$allocator@U?$pair@$$CBV?$basic_string@DU?$char_traits@D@std@@V?$allocator@D@2@@std@@VHNTreeNode@@@std@@@std@@U?$pair@$$CBV?$basic_string@DU?$char_traits@D@std@@V?$allocator@D@2@@std@@VHNTreeNode@@@2@@std@@YAXAAV?$allocator@U?$pair@$$CBV?$basic_string@DU?$char_traits@D@std@@V?$allocator@D@2@@std@@VHNTreeNode@@@std@@@0@PAU?$pair@$$CBV?$basic_string@DU?$char_traits@D@std@@V?$allocator@D@2@@std@@VHNTreeNode@@@0@@Z 10004920 f i mainserversocket.obj
 0001:00003940       ??$_Buynode@AAU?$pair@$$CBV?$basic_string@DU?$char_traits@D@std@@V?$allocator@D@2@@std@@VHNTreeNode@@@std@@@?$_Tree_val@V?$_Tmap_traits@V?$basic_string@DU?$char_traits@D@std@@V?$allocator@D@2@@std@@VHNTreeNode@@U?$less@V?$basic_string@DU?$char_traits@D@std@@V?$allocator@D@2@@std@@@2@V?$allocator@U?$pair@$$CBV?$basic_string@DU?$char_traits@D@std@@V?$allocator@D@2@@std@@VHNTreeNode@@@std@@@2@$0A@@std@@@std@@QAEPAU_Node@?$_Tree_nod@V?$_Tmap_traits@V?$basic_string@DU?$char_traits@D@std@@V?$allocator@D@2@@std@@VHNTreeNode@@U?$less@V?$basic_string@DU?$char_traits@D@std@@V?$allocator@D@2@@std@@@2@V?$allocator@U?$pair@$$CBV?$basic_string@DU?$char_traits@D@std@@V?$allocator@D@2@@std@@VHNTreeNode@@@std@@@2@$0A@@std@@@1@AAU?$pair@$$CBV?$basic_string@DU?$char_traits@D@std@@V?$allocator@D@2@@std@@VHNTreeNode@@@1@@Z 10004940 f i mainserversocket.obj
 0001:00003a10       ??$_Allocate@U_Node@?$_Tree_nod@V?$_Tmap_traits@V?$basic_string@DU?$char_traits@D@std@@V?$allocator@D@2@@std@@VHNTreeNode@@U?$less@V?$basic_string@DU?$char_traits@D@std@@V?$allocator@D@2@@std@@@2@V?$allocator@U?$pair@$$CBV?$basic_string@DU?$char_traits@D@std@@V?$allocator@D@2@@std@@VHNTreeNode@@@std@@@2@$0A@@std@@@std@@@std@@YAPAU_Node@?$_Tree_nod@V?$_Tmap_traits@V?$basic_string@DU?$char_traits@D@std@@V?$allocator@D@2@@std@@VHNTreeNode@@U?$less@V?$basic_string@DU?$char_traits@D@std@@V?$allocator@D@2@@std@@@2@V?$allocator@U?$pair@$$CBV?$basic_string@DU?$char_traits@D@std@@V?$allocator@D@2@@std@@VHNTreeNode@@@std@@@2@$0A@@std@@@0@IPAU120@@Z 10004a10 f i mainserversocket.obj
 0001:00003a80       ?_Buynode@?$_Tree_val@V?$_Tmap_traits@V?$basic_string@DU?$char_traits@D@std@@V?$allocator@D@2@@std@@VHNTreeNode@@U?$less@V?$basic_string@DU?$char_traits@D@std@@V?$allocator@D@2@@std@@@2@V?$allocator@U?$pair@$$CBV?$basic_string@DU?$char_traits@D@std@@V?$allocator@D@2@@std@@VHNTreeNode@@@std@@@2@$0A@@std@@@std@@QAEPAU_Node@?$_Tree_nod@V?$_Tmap_traits@V?$basic_string@DU?$char_traits@D@std@@V?$allocator@D@2@@std@@VHNTreeNode@@U?$less@V?$basic_string@DU?$char_traits@D@std@@V?$allocator@D@2@@std@@@2@V?$allocator@U?$pair@$$CBV?$basic_string@DU?$char_traits@D@std@@V?$allocator@D@2@@std@@VHNTreeNode@@@std@@@2@$0A@@std@@@2@XZ 10004a80 f i mainserversocket.obj
 0001:00003b00       ?destroy@?$allocator@U?$pair@$$CBV?$basic_string@DU?$char_traits@D@std@@V?$allocator@D@2@@std@@VHNTreeNode@@@std@@@std@@QAEXPAU?$pair@$$CBV?$basic_string@DU?$char_traits@D@std@@V?$allocator@D@2@@std@@VHNTreeNode@@@2@@Z 10004b00 f i mainserversocket.obj
 0001:00003b30       ??$_Cons_val@V?$allocator@U?$pair@$$CBV?$basic_string@DU?$char_traits@D@std@@V?$allocator@D@2@@std@@VHNTreeNode@@@std@@@std@@U?$pair@$$CBV?$basic_string@DU?$char_traits@D@std@@V?$allocator@D@2@@std@@VHNTreeNode@@@2@AAU32@@std@@YAXAAV?$allocator@U?$pair@$$CBV?$basic_string@DU?$char_traits@D@std@@V?$allocator@D@2@@std@@VHNTreeNode@@@std@@@0@PAU?$pair@$$CBV?$basic_string@DU?$char_traits@D@std@@V?$allocator@D@2@@std@@VHNTreeNode@@@0@AAU20@@Z 10004b30 f i mainserversocket.obj
 0001:00003b60       ??$_Destroy@U?$pair@$$CBV?$basic_string@DU?$char_traits@D@std@@V?$allocator@D@2@@std@@VHNTreeNode@@@std@@@std@@YAXPAU?$pair@$$CBV?$basic_string@DU?$char_traits@D@std@@V?$allocator@D@2@@std@@VHNTreeNode@@@0@@Z 10004b60 f i mainserversocket.obj
 0001:00003b80       ??_G?$pair@$$CBV?$basic_string@DU?$char_traits@D@std@@V?$allocator@D@2@@std@@VHNTreeNode@@@std@@QAEPAXI@Z 10004b80 f i mainserversocket.obj
 0001:00003bc0       ??1?$pair@$$CBV?$basic_string@DU?$char_traits@D@std@@V?$allocator@D@2@@std@@VHNTreeNode@@@std@@QAE@XZ 10004bc0 f i mainserversocket.obj
 0001:00003be0       ??1?$_Pair_base@$$CBV?$basic_string@DU?$char_traits@D@std@@V?$allocator@D@2@@std@@VHNTreeNode@@@std@@QAE@XZ 10004be0 f i mainserversocket.obj
 0001:00003c40       ??$construct@AAU?$pair@$$CBV?$basic_string@DU?$char_traits@D@std@@V?$allocator@D@2@@std@@VHNTreeNode@@@std@@@?$allocator@U?$pair@$$CBV?$basic_string@DU?$char_traits@D@std@@V?$allocator@D@2@@std@@VHNTreeNode@@@std@@@std@@QAEXPAU?$pair@$$CBV?$basic_string@DU?$char_traits@D@std@@V?$allocator@D@2@@std@@VHNTreeNode@@@1@AAU21@@Z 10004c40 f i mainserversocket.obj
 0001:00003cd0       ??2@YAPAXIPAX@Z            10004cd0 f i mainserversocket.obj
 0001:00003cf0       ??$?0$$CBV?$basic_string@DU?$char_traits@D@std@@V?$allocator@D@2@@std@@VHNTreeNode@@@?$pair@$$CBV?$basic_string@DU?$char_traits@D@std@@V?$allocator@D@2@@std@@VHNTreeNode@@@std@@QAE@AAU01@@Z 10004cf0 f i mainserversocket.obj
 0001:00003d20       ??$?0ABV?$basic_string@DU?$char_traits@D@std@@V?$allocator@D@2@@std@@AAVHNTreeNode@@@?$_Pair_base@$$CBV?$basic_string@DU?$char_traits@D@std@@V?$allocator@D@2@@std@@VHNTreeNode@@@std@@QAE@ABV?$basic_string@DU?$char_traits@D@std@@V?$allocator@D@2@@1@AAVHNTreeNode@@@Z 10004d20 f i mainserversocket.obj
 0001:00003da0       ??0bad_alloc@std@@QAE@PBD@Z 10004da0 f i mainserversocket.obj
 0001:00003dd0       ??1bad_alloc@std@@UAE@XZ   10004dd0 f i mainserversocket.obj
 0001:00003e00       ??_Gbad_alloc@std@@UAEPAXI@Z 10004e00 f i mainserversocket.obj
 0001:00003e00       ??_Ebad_alloc@std@@UAEPAXI@Z 10004e00 f i mainserversocket.obj
 0001:00003e40       ?GetAppPath@CINIFile@@SA?AV?$CStringT@DV?$StrTraitMFC_DLL@DV?$ChTraitsCRT@D@ATL@@@@@ATL@@_N@Z 10004e40 f i mainserversocket.obj
 0001:00004180       ?AfxGetInstanceHandle@@YGPAUHINSTANCE__@@XZ 10005180 f i mainserversocket.obj
 0001:000041a0       ?GetKeyVal@CINIFile@@QAE?AV?$CStringT@DV?$StrTraitMFC_DLL@DV?$ChTraitsCRT@D@ATL@@@@@ATL@@V23@0PBD@Z 100051a0 f i mainserversocket.obj
 0001:000042c0       ??0CINIFile@@QAE@V?$CStringT@DV?$StrTraitMFC_DLL@DV?$ChTraitsCRT@D@ATL@@@@@ATL@@H@Z 100052c0 f i mainserversocket.obj
 0001:00004340       ??1CINIFile@@QAE@XZ        10005340 f i mainserversocket.obj
 0001:00004360       ??0?$basic_string@DU?$char_traits@D@std@@V?$allocator@D@2@@std@@QAE@ABV01@@Z 10005360 f i mainserversocket.obj
 0001:000043f0       ??1?$basic_string@DU?$char_traits@D@std@@V?$allocator@D@2@@std@@QAE@XZ 100053f0 f i mainserversocket.obj
 0001:00004450       ??4?$basic_string@DU?$char_traits@D@std@@V?$allocator@D@2@@std@@QAEAAV01@ABV01@@Z 10005450 f i mainserversocket.obj
 0001:00004480       ?assign@?$basic_string@DU?$char_traits@D@std@@V?$allocator@D@2@@std@@QAEAAV12@ABV12@@Z 10005480 f i mainserversocket.obj
 0001:000044b0       ?assign@?$basic_string@DU?$char_traits@D@std@@V?$allocator@D@2@@std@@QAEAAV12@ABV12@II@Z 100054b0 f i mainserversocket.obj
 0001:00004570       ?copy@?$char_traits@D@std@@SAPADPADPBDI@Z 10005570 f i mainserversocket.obj
 0001:000045a0       ?size@?$basic_string@DU?$char_traits@D@std@@V?$allocator@D@2@@std@@QBEIXZ 100055a0 f i mainserversocket.obj
 0001:000045c0       ?_Tidy@?$basic_string@DU?$char_traits@D@std@@V?$allocator@D@2@@std@@QAEX_NI@Z 100055c0 f i mainserversocket.obj
 0001:00004640       ?_Myptr@?$basic_string@DU?$char_traits@D@std@@V?$allocator@D@2@@std@@QBEPBDXZ 10005640 f i mainserversocket.obj
 0001:00004640       ?_Myptr@?$basic_string@DU?$char_traits@D@std@@V?$allocator@D@2@@std@@QAEPADXZ 10005640 f i mainserversocket.obj
 0001:00004670       ??0?$_String_val@DV?$allocator@D@std@@@std@@QAE@V?$allocator@D@1@@Z 10005670 f i mainserversocket.obj
 0001:000046a0       ??1CBankService@@QAE@XZ    100056a0 f i BankService.obj
 0001:000046a0       ??1CHandleMSMessage@@QAE@XZ 100056a0 f i HNHandleMSMessage.obj
 0001:000046a0       ??1?$_Vector_val@PAVCGameUserInfo@@V?$allocator@PAVCGameUserInfo@@@std@@@std@@QAE@XZ 100056a0 f i GameMainManage.obj
 0001:000046a0       ?ReleaseRoomBefore@CGameDesk@@UAEXXZ 100056a0 f i mainserversocket.obj
 0001:000046a0       ??1CPropService@@QAE@XZ    100056a0 f i PropService.obj
 0001:000046a0       ??1?$_Vector_val@IV?$allocator@I@std@@@std@@QAE@XZ 100056a0 f i GameMainManage.obj
 0001:000046a0       ?PresentCoin@CGameDesk@@QAEXXZ 100056a0 f i GameDesk.obj
 0001:000046a0       ??1?$_Vector_val@UMSG_GM_S_ReturnGameInfo@@V?$allocator@UMSG_GM_S_ReturnGameInfo@@@std@@@std@@QAE@XZ 100056a0 f i GameDesk.obj
 0001:000046a0       ??1?$_Vector_val@UQueueInfo_t@@V?$allocator@UQueueInfo_t@@@std@@@std@@QAE@XZ 100056a0 f i AutoAllotDesk.obj
 0001:000046a0       ??1?$_Vector_val@HV?$allocator@H@std@@@std@@QAE@XZ 100056a0 f i GameDesk.obj
 0001:000046a0       ??1?$_String_val@DV?$allocator@D@std@@@std@@QAE@XZ 100056a0 f i mainserversocket.obj
 0001:000046a0       ??1CGameUserInfo@@QAE@XZ   100056a0 f i UserInfo.obj
 0001:000046a0       ?AssertValid@CObject@@UBEXXZ 100056a0 f i GameMainManage.obj
 0001:000046a0       ??1CObject@@UAE@XZ         100056a0 f i GameMainManage.obj
 0001:000046a0       ??1?$_Vector_val@JV?$allocator@J@std@@@std@@QAE@XZ 100056a0 f i GameMainManage.obj
 0001:000046a0       ?CanGetDeskInfo@CGameDesk@@QAEXXZ 100056a0 f i mainserversocket.obj
 0001:000046a0       ?SetGameSN@CGameDesk@@UAEXXZ 100056a0 f i mainserversocket.obj
 0001:000046a0       ??1?$_Vector_val@UMSG_GR_S_Position_Notice@@V?$allocator@UMSG_GR_S_Position_Notice@@@std@@@std@@QAE@XZ 100056a0 f i GameDesk.obj
 0001:000046c0       ?erase@?$basic_string@DU?$char_traits@D@std@@V?$allocator@D@2@@std@@QAEAAV12@II@Z 100056c0 f i mainserversocket.obj
 0001:00004760       ?move@?$char_traits@D@std@@SAPADPADPBDI@Z 10005760 f i mainserversocket.obj
 0001:00004790       ?_Eos@?$basic_string@DU?$char_traits@D@std@@V?$allocator@D@2@@std@@QAEXI@Z 10005790 f i mainserversocket.obj
 0001:000047d0       ?assign@?$char_traits@D@std@@SAXAADABD@Z 100057d0 f i mainserversocket.obj
 0001:000047f0       ?_Grow@?$basic_string@DU?$char_traits@D@std@@V?$allocator@D@2@@std@@QAE_NI_N@Z 100057f0 f i mainserversocket.obj
 0001:00004890       ?_Xran@?$basic_string@DU?$char_traits@D@std@@V?$allocator@D@2@@std@@QBEXXZ 10005890 f i mainserversocket.obj
 0001:000048b0       ?max_size@?$basic_string@DU?$char_traits@D@std@@V?$allocator@D@2@@std@@QBEIXZ 100058b0 f i mainserversocket.obj
 0001:000048f0       ?_Copy@?$basic_string@DU?$char_traits@D@std@@V?$allocator@D@2@@std@@QAEXII@Z 100058f0 f i mainserversocket.obj
 0001:00004a80       ?_Xlen@?$basic_string@DU?$char_traits@D@std@@V?$allocator@D@2@@std@@QBEXXZ 10005a80 f i mainserversocket.obj
 0001:00004aa0       ?allocate@?$allocator@D@std@@QAEPADI@Z 10005aa0 f i mainserversocket.obj
 0001:00004ad0       ?max_size@?$allocator@D@std@@QBEIXZ 10005ad0 f i mainserversocket.obj
 0001:00004b10       ??$swap@D@std@@YAXAAD0@Z   10005b10 f i mainserversocket.obj
 0001:00004b60       ??$_Allocate@D@std@@YAPADIPAD@Z 10005b60 f i mainserversocket.obj
 0001:00004bc0       ??0bad_alloc@std@@QAE@ABV01@@Z 10005bc0 f i mainserversocket.obj
 0001:00004bf0       ?ContestPrintf@@YAXPBDZZ   10005bf0 f   AutoAllotDesk.obj
 0001:00004d20       ?ConvertIP2@@YAPADK@Z      10005d20 f   AutoAllotDesk.obj
 0001:00004d90       ?UserInfoCmp@@YAHABUQueueInfo_t@@0@Z 10005d90 f   AutoAllotDesk.obj
 0001:00004f40       ?DestroyAutoAllotDesk@@YAXAAPAUIAutoAllotDesk@@@Z 10005f40 f   AutoAllotDesk.obj
 0001:00004f70       ??0CAutoAllotDesk@@QAE@HHHH@Z 10005f70 f   AutoAllotDesk.obj
 0001:00005220       ??0IAutoAllotDesk@@QAE@XZ  10006220 f i AutoAllotDesk.obj
 0001:00005240       ?Add@CAutoAllotDesk@@UAEXPAVCGameUserInfo@@@Z 10006240 f   AutoAllotDesk.obj
 0001:00005400       ??0QueueInfo_t@@QAE@XZ     10006400 f i AutoAllotDesk.obj
 0001:00005460       ?Delete@CAutoAllotDesk@@UAEXPAVCGameUserInfo@@@Z 10006460 f   AutoAllotDesk.obj
 0001:00005620       ?DeleteAll@CAutoAllotDesk@@UAEXXZ 10006620 f   AutoAllotDesk.obj
 0001:00005680       ?ReQueue@CAutoAllotDesk@@UAEXPAVCGameUserInfo@@@Z 10006680 f   AutoAllotDesk.obj
 0001:00005740       ?AllotDesk@CAutoAllotDesk@@UAEXAAHAAPAH_N@Z 10006740 f   AutoAllotDesk.obj
 0001:00005d30       ?CanSit@CAutoAllotDesk@@UAE_NABUQueueInfo_t@@_N@Z 10006d30 f   AutoAllotDesk.obj
 0001:00005f40       ?CanSit@CAutoAllotDesk@@UAE_NHHH@Z 10006f40 f   AutoAllotDesk.obj
 0001:00005fe0       ?CanRobotAutoSit@CAutoAllotDesk@@UAE_NHHH@Z 10006fe0 f   AutoAllotDesk.obj
 0001:000060c0       ?Sort@CAutoAllotDesk@@UAEXXZ 100070c0 f   AutoAllotDesk.obj
 0001:00006110       ?GetQueueUserList@CAutoAllotDesk@@UAEXPAUMSG_GM_QueueUserList@@H@Z 10007110 f   AutoAllotDesk.obj
 0001:00006190       ?GetQueueUserCount@CAutoAllotDesk@@UAEIXZ 10007190 f   AutoAllotDesk.obj
 0001:00006210       ?Find@CAutoAllotDesk@@UAE_NH@Z 10007210 f   AutoAllotDesk.obj
 0001:00006280       ?IsAllUserStand@CAutoAllotDesk@@UAE_NXZ 10007280 f   AutoAllotDesk.obj
 0001:00006300       ?SetMinQueuePeople@CAutoAllotDesk@@UAEXH@Z 10007300 f   AutoAllotDesk.obj
 0001:00006320       ?SetUserEnterTime@CAutoAllotDesk@@UAEXH_J@Z 10007320 f   AutoAllotDesk.obj
 0001:000063a0       ??1?$vector@UQueueInfo_t@@V?$allocator@UQueueInfo_t@@@std@@@std@@QAE@XZ 100073a0 f i AutoAllotDesk.obj
 0001:00006400       ?reserve@?$vector@UQueueInfo_t@@V?$allocator@UQueueInfo_t@@@std@@@std@@QAEXI@Z 10007400 f i AutoAllotDesk.obj
 0001:00006550       ?size@?$vector@UQueueInfo_t@@V?$allocator@UQueueInfo_t@@@std@@@std@@QBEIXZ 10007550 f i AutoAllotDesk.obj
 0001:00006580       ??A?$vector@UQueueInfo_t@@V?$allocator@UQueueInfo_t@@@std@@@std@@QAEAAUQueueInfo_t@@I@Z 10007580 f i AutoAllotDesk.obj
 0001:000065a0       ?push_back@?$vector@UQueueInfo_t@@V?$allocator@UQueueInfo_t@@@std@@@std@@QAEXABUQueueInfo_t@@@Z 100075a0 f i AutoAllotDesk.obj
 0001:000066a0       ?erase@?$vector@UQueueInfo_t@@V?$allocator@UQueueInfo_t@@@std@@@std@@QAE?AV?$_Vector_iterator@V?$_Vector_val@UQueueInfo_t@@V?$allocator@UQueueInfo_t@@@std@@@std@@@2@V?$_Vector_const_iterator@V?$_Vector_val@UQueueInfo_t@@V?$allocator@UQueueInfo_t@@@std@@@std@@@2@@Z 100076a0 f i AutoAllotDesk.obj
 0001:00006710       ?erase@?$vector@UQueueInfo_t@@V?$allocator@UQueueInfo_t@@@std@@@std@@QAE?AV?$_Vector_iterator@V?$_Vector_val@UQueueInfo_t@@V?$allocator@UQueueInfo_t@@@std@@@std@@@2@V?$_Vector_const_iterator@V?$_Vector_val@UQueueInfo_t@@V?$allocator@UQueueInfo_t@@@std@@@std@@@2@0@Z 10007710 f i AutoAllotDesk.obj
 0001:000067a0       ?clear@?$vector@UQueueInfo_t@@V?$allocator@UQueueInfo_t@@@std@@@std@@QAEXXZ 100077a0 f i AutoAllotDesk.obj
 0001:000067f0       ??E?$_Vector_iterator@V?$_Vector_val@UQueueInfo_t@@V?$allocator@UQueueInfo_t@@@std@@@std@@@std@@QAE?AV01@H@Z 100077f0 f i AutoAllotDesk.obj
 0001:00006820       ?capacity@?$vector@UQueueInfo_t@@V?$allocator@UQueueInfo_t@@@std@@@std@@QBEIXZ 10007820 f i AutoAllotDesk.obj
 0001:00006850       ?max_size@?$vector@UQueueInfo_t@@V?$allocator@UQueueInfo_t@@@std@@@std@@QBEIXZ 10007850 f i AutoAllotDesk.obj
 0001:00006870       ?_Destroy@?$vector@UQueueInfo_t@@V?$allocator@UQueueInfo_t@@@std@@@std@@IAEXPAUQueueInfo_t@@0@Z 10007870 f i AutoAllotDesk.obj
 0001:000068a0       ?_Reserve@?$vector@UQueueInfo_t@@V?$allocator@UQueueInfo_t@@@std@@@std@@IAEXI@Z 100078a0 f i AutoAllotDesk.obj
 0001:00006910       ?_Tidy@?$vector@UQueueInfo_t@@V?$allocator@UQueueInfo_t@@@std@@@std@@IAEXXZ 10007910 f i AutoAllotDesk.obj
 0001:00006990       ??0?$_Vector_val@HV?$allocator@H@std@@@std@@QAE@V?$allocator@H@1@@Z 10007990 f i GameDesk.obj
 0001:00006990       ??0?$_Vector_val@UQueueInfo_t@@V?$allocator@UQueueInfo_t@@@std@@@std@@QAE@V?$allocator@UQueueInfo_t@@@1@@Z 10007990 f i AutoAllotDesk.obj
 0001:00006990       ??0?$_Vector_val@IV?$allocator@I@std@@@std@@QAE@V?$allocator@I@1@@Z 10007990 f i GameMainManage.obj
 0001:00006990       ??0?$_Vector_val@JV?$allocator@J@std@@@std@@QAE@V?$allocator@J@1@@Z 10007990 f i GameMainManage.obj
 0001:00006990       ??0?$_Vector_val@PAVCGameUserInfo@@V?$allocator@PAVCGameUserInfo@@@std@@@std@@QAE@V?$allocator@PAVCGameUserInfo@@@1@@Z 10007990 f i GameMainManage.obj
 0001:00006990       ??0?$_Vector_val@UMSG_GR_S_Position_Notice@@V?$allocator@UMSG_GR_S_Position_Notice@@@std@@@std@@QAE@V?$allocator@UMSG_GR_S_Position_Notice@@@1@@Z 10007990 f i GameDesk.obj
 0001:00006990       ??0?$_Vector_val@UMSG_GM_S_ReturnGameInfo@@V?$allocator@UMSG_GM_S_ReturnGameInfo@@@std@@@std@@QAE@V?$allocator@UMSG_GM_S_ReturnGameInfo@@@1@@Z 10007990 f i GameDesk.obj
 0001:000069e0       ?allocate@?$allocator@UQueueInfo_t@@@std@@QAEPAUQueueInfo_t@@I@Z 100079e0 f i AutoAllotDesk.obj
 0001:00006a10       ??E?$_Vector_iterator@V?$_Vector_val@UQueueInfo_t@@V?$allocator@UQueueInfo_t@@@std@@@std@@@std@@QAEAAV01@XZ 10007a10 f i AutoAllotDesk.obj
 0001:00006a30       ?_Grow_to@?$vector@UQueueInfo_t@@V?$allocator@UQueueInfo_t@@@std@@@std@@IBEII@Z 10007a30 f i AutoAllotDesk.obj
 0001:00006a90       ??0?$allocator@PAVCGameUserInfo@@@std@@QAE@ABV01@@Z 10007a90 f i GameMainManage.obj
 0001:00006a90       ??4IDataBaseHandleService@@QAEAAU0@ABU0@@Z 10007a90 f i mainserversocket.obj
 0001:00006a90       ??0?$allocator@H@std@@QAE@ABV01@@Z 10007a90 f i GameDesk.obj
 0001:00006a90       ??$?0PAVCGameUserInfo@@@?$allocator@U_Node@?$_List_nod@PAVCGameUserInfo@@V?$allocator@PAVCGameUserInfo@@@std@@@std@@@std@@QAE@ABV?$allocator@PAVCGameUserInfo@@@1@@Z 10007a90 f i GameMainManage.obj
 0001:00006a90       ??0?$allocator@I@std@@QAE@ABV01@@Z 10007a90 f i GameMainManage.obj
 0001:00006a90       ??0?$allocator@UMSG_GM_S_ReturnGameInfo@@@std@@QAE@ABV01@@Z 10007a90 f i GameDesk.obj
 0001:00006a90       ??0?$allocator@J@std@@QAE@ABV01@@Z 10007a90 f i GameMainManage.obj
 0001:00006a90       ??$?0U?$pair@$$CBV?$basic_string@DU?$char_traits@D@std@@V?$allocator@D@2@@std@@VHNTreeNode@@@std@@@?$allocator@U_Node@?$_Tree_nod@V?$_Tmap_traits@V?$basic_string@DU?$char_traits@D@std@@V?$allocator@D@2@@std@@VHNTreeNode@@U?$less@V?$basic_string@DU?$char_traits@D@std@@V?$allocator@D@2@@std@@@2@V?$allocator@U?$pair@$$CBV?$basic_string@DU?$char_traits@D@std@@V?$allocator@D@2@@std@@VHNTreeNode@@@std@@@2@$0A@@std@@@std@@@std@@QAE@ABV?$allocator@U?$pair@$$CBV?$basic_string@DU?$char_traits@D@std@@V?$allocator@D@2@@std@@VHNTreeNode@@@std@@@1@@Z 10007a90 f i mainserversocket.obj
 0001:00006a90       ??0?$allocator@D@std@@QAE@ABV01@@Z 10007a90 f i mainserversocket.obj
 0001:00006a90       ??0?$allocator@UMSG_GR_S_Position_Notice@@@std@@QAE@ABV01@@Z 10007a90 f i GameDesk.obj
 0001:00006a90       ??0?$_Tmap_traits@V?$basic_string@DU?$char_traits@D@std@@V?$allocator@D@2@@std@@VHNTreeNode@@U?$less@V?$basic_string@DU?$char_traits@D@std@@V?$allocator@D@2@@std@@@2@V?$allocator@U?$pair@$$CBV?$basic_string@DU?$char_traits@D@std@@V?$allocator@D@2@@std@@VHNTreeNode@@@std@@@2@$0A@@std@@QAE@U?$less@V?$basic_string@DU?$char_traits@D@std@@V?$allocator@D@2@@std@@@1@@Z 10007a90 f i mainserversocket.obj
 0001:00006a90       ??0?$allocator@U?$pair@$$CBV?$basic_string@DU?$char_traits@D@std@@V?$allocator@D@2@@std@@VHNTreeNode@@@std@@@std@@QAE@ABV01@@Z 10007a90 f i mainserversocket.obj
 0001:00006a90       ??$?0PAUFILEINFO@@@?$allocator@U_Node@?$_List_nod@PAUFILEINFO@@V?$allocator@PAUFILEINFO@@@std@@@std@@@std@@QAE@ABV?$allocator@PAUFILEINFO@@@1@@Z 10007a90 f i stdafx.obj
 0001:00006a90       ??0?$allocator@PAUFILEINFO@@@std@@QAE@ABV01@@Z 10007a90 f i stdafx.obj
 0001:00006a90       ??0?$allocator@UQueueInfo_t@@@std@@QAE@ABV01@@Z 10007a90 f i AutoAllotDesk.obj
 0001:00006a90       ??4CGameManage@@QAEAAV0@ABV0@@Z 10007a90 f i GameManage.obj
 0001:00006ab0       ?max_size@?$allocator@UQueueInfo_t@@@std@@QBEIXZ 10007ab0 f i AutoAllotDesk.obj
 0001:00006af0       ??E?$_Vector_const_iterator@V?$_Vector_val@UQueueInfo_t@@V?$allocator@UQueueInfo_t@@@std@@@std@@@std@@QAEAAV01@XZ 10007af0 f i AutoAllotDesk.obj
 0001:00006b20       ??$sort@V?$_Vector_iterator@V?$_Vector_val@UQueueInfo_t@@V?$allocator@UQueueInfo_t@@@std@@@std@@@std@@P6AHABUQueueInfo_t@@0@Z@std@@YAXV?$_Vector_iterator@V?$_Vector_val@UQueueInfo_t@@V?$allocator@UQueueInfo_t@@@std@@@std@@@0@0P6AHABUQueueInfo_t@@1@Z@Z 10007b20 f i AutoAllotDesk.obj
 0001:00006b70       ??$_Umove@PAUQueueInfo_t@@@?$vector@UQueueInfo_t@@V?$allocator@UQueueInfo_t@@@std@@@std@@IAEPAUQueueInfo_t@@PAU2@00@Z 10007b70 f i AutoAllotDesk.obj
 0001:00006ba0       ??$_Cons_val@V?$allocator@UQueueInfo_t@@@std@@UQueueInfo_t@@ABU3@@std@@YAXAAV?$allocator@UQueueInfo_t@@@0@PAUQueueInfo_t@@ABU2@@Z 10007ba0 f i AutoAllotDesk.obj
 0001:00006bd0       ??$_Move@PAUQueueInfo_t@@PAU1@@std@@YAPAUQueueInfo_t@@PAU1@00@Z 10007bd0 f i AutoAllotDesk.obj
 0001:00006c10       ??$_Destroy_range@V?$allocator@UQueueInfo_t@@@std@@@std@@YAXPAUQueueInfo_t@@0AAV?$allocator@UQueueInfo_t@@@0@@Z 10007c10 f i AutoAllotDesk.obj
 0001:00006c50       ??$_Allocate@UQueueInfo_t@@@std@@YAPAUQueueInfo_t@@IPAU1@@Z 10007c50 f i AutoAllotDesk.obj
 0001:00006cc0       ?construct@?$allocator@UQueueInfo_t@@@std@@QAEXPAUQueueInfo_t@@ABU3@@Z 10007cc0 f i AutoAllotDesk.obj
 0001:00006cf0       ??G?$_Vector_iterator@V?$_Vector_val@UQueueInfo_t@@V?$allocator@UQueueInfo_t@@@std@@@std@@@std@@QBEHABV?$_Vector_const_iterator@V?$_Vector_val@UQueueInfo_t@@V?$allocator@UQueueInfo_t@@@std@@@std@@@1@@Z 10007cf0 f i AutoAllotDesk.obj
 0001:00006d20       ??G?$_Vector_const_iterator@V?$_Vector_val@UQueueInfo_t@@V?$allocator@UQueueInfo_t@@@std@@@std@@@std@@QBEHABV01@@Z 10007d20 f i AutoAllotDesk.obj
 0001:00006d50       ??$_Sort@PAUQueueInfo_t@@HP6AHABU1@0@Z@std@@YAXPAUQueueInfo_t@@0HP6AHABU1@1@Z@Z 10007d50 f i AutoAllotDesk.obj
 0001:00006e60       ??$_Uninitialized_move@PAUQueueInfo_t@@PAU1@V?$allocator@UQueueInfo_t@@@std@@@std@@YAPAUQueueInfo_t@@PAU1@00AAV?$allocator@UQueueInfo_t@@@0@@Z 10007e60 f i AutoAllotDesk.obj
 0001:00006eb0       ??$_Move@PAUQueueInfo_t@@PAU1@@std@@YAPAUQueueInfo_t@@PAU1@00U_Nonscalar_ptr_iterator_tag@0@@Z 10007eb0 f i AutoAllotDesk.obj
 0001:00006f00       ??$_Destroy_range@V?$allocator@UQueueInfo_t@@@std@@@std@@YAXPAUQueueInfo_t@@0AAV?$allocator@UQueueInfo_t@@@0@U_Nonscalar_ptr_iterator_tag@0@@Z 10007f00 f i AutoAllotDesk.obj
 0001:00006f40       ??$_Construct@UQueueInfo_t@@ABU1@@std@@YAXPAUQueueInfo_t@@ABU1@@Z 10007f40 f i AutoAllotDesk.obj
 0001:00006fe0       ??$_Unguarded_partition@PAUQueueInfo_t@@P6AHABU1@0@Z@std@@YA?AU?$pair@PAUQueueInfo_t@@PAU1@@0@PAUQueueInfo_t@@0P6AHABU2@1@Z@Z 10007fe0 f i AutoAllotDesk.obj
 0001:00007270       ??$make_heap@PAUQueueInfo_t@@P6AHABU1@0@Z@std@@YAXPAUQueueInfo_t@@0P6AHABU1@1@Z@Z 10008270 f i AutoAllotDesk.obj
 0001:000072d0       ??$sort_heap@PAUQueueInfo_t@@P6AHABU1@0@Z@std@@YAXPAUQueueInfo_t@@0P6AHABU1@1@Z@Z 100082d0 f i AutoAllotDesk.obj
 0001:00007310       ??$_Insertion_sort@PAUQueueInfo_t@@P6AHABU1@0@Z@std@@YAXPAUQueueInfo_t@@0P6AHABU1@1@Z@Z 10008310 f i AutoAllotDesk.obj
 0001:00007350       ??$_Uninit_move@PAUQueueInfo_t@@PAU1@V?$allocator@UQueueInfo_t@@@std@@U1@@std@@YAPAUQueueInfo_t@@PAU1@00AAV?$allocator@UQueueInfo_t@@@0@0U_Nonscalar_ptr_iterator_tag@0@@Z 10008350 f i AutoAllotDesk.obj
 0001:00007420       ??$_Median@PAUQueueInfo_t@@P6AHABU1@0@Z@std@@YAXPAUQueueInfo_t@@00P6AHABU1@1@Z@Z 10008420 f i AutoAllotDesk.obj
 0001:00007510       ??$iter_swap@PAUQueueInfo_t@@PAU1@@std@@YAXPAUQueueInfo_t@@0@Z 10008510 f i AutoAllotDesk.obj
 0001:00007530       ??$?0AAPAUQueueInfo_t@@AAPAU0@@?$pair@PAUQueueInfo_t@@PAU1@@std@@QAE@AAPAUQueueInfo_t@@0@Z 10008530 f i AutoAllotDesk.obj
 0001:00007570       ??$_Make_heap@PAUQueueInfo_t@@HU1@P6AHABU1@0@Z@std@@YAXPAUQueueInfo_t@@0P6AHABU1@1@ZPAH0@Z 10008570 f i AutoAllotDesk.obj
 0001:000075f0       ??$_Sort_heap@PAUQueueInfo_t@@P6AHABU1@0@Z@std@@YAXPAUQueueInfo_t@@0P6AHABU1@1@Z@Z 100085f0 f i AutoAllotDesk.obj
 0001:00007630       ??$_Insertion_sort1@PAUQueueInfo_t@@P6AHABU1@0@ZU1@@std@@YAXPAUQueueInfo_t@@0P6AHABU1@1@Z0@Z 10008630 f i AutoAllotDesk.obj
 0001:00007730       ??$_Cons_val@V?$allocator@UQueueInfo_t@@@std@@UQueueInfo_t@@U3@@std@@YAXAAV?$allocator@UQueueInfo_t@@@0@PAUQueueInfo_t@@$$QAU2@@Z 10008730 f i AutoAllotDesk.obj
 0001:00007730       ??$_Cons_val@V?$allocator@UQueueInfo_t@@@std@@UQueueInfo_t@@AAU3@@std@@YAXAAV?$allocator@UQueueInfo_t@@@0@PAUQueueInfo_t@@AAU2@@Z 10008730 f i AutoAllotDesk.obj
 0001:00007760       ?construct@?$allocator@UQueueInfo_t@@@std@@QAEXPAUQueueInfo_t@@$$QAU3@@Z 10008760 f i AutoAllotDesk.obj
 0001:00007760       ??$construct@AAUQueueInfo_t@@@?$allocator@UQueueInfo_t@@@std@@QAEXPAUQueueInfo_t@@AAU2@@Z 10008760 f i AutoAllotDesk.obj
 0001:00007800       ??$_Med3@PAUQueueInfo_t@@P6AHABU1@0@Z@std@@YAXPAUQueueInfo_t@@00P6AHABU1@1@Z@Z 10008800 f i AutoAllotDesk.obj
 0001:00007880       ??$swap@UQueueInfo_t@@@std@@YAXAAUQueueInfo_t@@0@Z 10008880 f i AutoAllotDesk.obj
 0001:000078e0       ??$?0AAPAUQueueInfo_t@@AAPAU0@@?$_Pair_base@PAUQueueInfo_t@@PAU1@@std@@QAE@AAPAUQueueInfo_t@@0@Z 100088e0 f i AutoAllotDesk.obj
 0001:00007920       ??$_Adjust_heap@PAUQueueInfo_t@@HU1@P6AHABU1@0@Z@std@@YAXPAUQueueInfo_t@@HH$$QAU1@P6AHABU1@2@Z@Z 10008920 f i AutoAllotDesk.obj
 0001:00007a10       ??$_Pop_heap@PAUQueueInfo_t@@P6AHABU1@0@Z@std@@YAXPAUQueueInfo_t@@0P6AHABU1@1@Z@Z 10008a10 f i AutoAllotDesk.obj
 0001:00007a60       ??$_Move_backward@PAUQueueInfo_t@@PAU1@@std@@YAPAUQueueInfo_t@@PAU1@00@Z 10008a60 f i AutoAllotDesk.obj
 0001:00007aa0       ??$_Move@AAD@std@@YA$$QADAAD@Z 10008aa0 f i mainserversocket.obj
 0001:00007aa0       ??$addressof@$$CBUMSG_GR_S_Position_Notice@@@std@@YAPBUMSG_GR_S_Position_Notice@@ABU1@@Z 10008aa0 f i GameDesk.obj
 0001:00007aa0       ??$addressof@$$CBUMSG_GM_S_ReturnGameInfo@@@std@@YAPBUMSG_GM_S_ReturnGameInfo@@ABU1@@Z 10008aa0 f i GameMainManage.obj
 0001:00007aa0       ??$forward@ABUQueueInfo_t@@@std@@YAABUQueueInfo_t@@ABU1@@Z 10008aa0 f i AutoAllotDesk.obj
 0001:00007aa0       ??$move@AAUMSG_GM_S_ReturnGameInfo@@@std@@YA$$QAUMSG_GM_S_ReturnGameInfo@@AAU1@@Z 10008aa0 f i GameDesk.obj
 0001:00007aa0       ??$forward@AAU?$pair@$$CBV?$basic_string@DU?$char_traits@D@std@@V?$allocator@D@2@@std@@VHNTreeNode@@@std@@@std@@YAAAU?$pair@$$CBV?$basic_string@DU?$char_traits@D@std@@V?$allocator@D@2@@std@@VHNTreeNode@@@0@AAU10@@Z 10008aa0 f i mainserversocket.obj
 0001:00007aa0       ??$forward@AAUMSG_GM_S_ReturnGameInfo@@@std@@YAAAUMSG_GM_S_ReturnGameInfo@@AAU1@@Z 10008aa0 f i GameMainManage.obj
 0001:00007aa0       ??$move@AAUMSG_GR_S_Position_Notice@@@std@@YA$$QAUMSG_GR_S_Position_Notice@@AAU1@@Z 10008aa0 f i GameDesk.obj
 0001:00007aa0       ??$addressof@$$CBJ@std@@YAPBJABJ@Z 10008aa0 f i GameMainManage.obj
 0001:00007aa0       ??$forward@UMSG_GR_S_Position_Notice@@@std@@YA$$QAUMSG_GR_S_Position_Notice@@AAU1@@Z 10008aa0 f i GameDesk.obj
 0001:00007aa0       ??$move@AAUQueueInfo_t@@@std@@YA$$QAUQueueInfo_t@@AAU1@@Z 10008aa0 f i AutoAllotDesk.obj
 0001:00007aa0       ??$addressof@U?$pair@$$CBV?$basic_string@DU?$char_traits@D@std@@V?$allocator@D@2@@std@@VHNTreeNode@@@std@@@std@@YAPAU?$pair@$$CBV?$basic_string@DU?$char_traits@D@std@@V?$allocator@D@2@@std@@VHNTreeNode@@@0@AAU10@@Z 10008aa0 f i mainserversocket.obj
 0001:00007aa0       ??$forward@UMSG_GM_S_ReturnGameInfo@@@std@@YA$$QAUMSG_GM_S_ReturnGameInfo@@AAU1@@Z 10008aa0 f i GameMainManage.obj
 0001:00007aa0       ??$addressof@PAUFILEINFO@@@std@@YAPAPAUFILEINFO@@AAPAU1@@Z 10008aa0 f i stdafx.obj
 0001:00007aa0       ??$addressof@$$CBH@std@@YAPBHABH@Z 10008aa0 f i GameDesk.obj
 0001:00007aa0       ?_Left@?$_Tree_val@V?$_Tmap_traits@V?$basic_string@DU?$char_traits@D@std@@V?$allocator@D@2@@std@@VHNTreeNode@@U?$less@V?$basic_string@DU?$char_traits@D@std@@V?$allocator@D@2@@std@@@2@V?$allocator@U?$pair@$$CBV?$basic_string@DU?$char_traits@D@std@@V?$allocator@D@2@@std@@VHNTreeNode@@@std@@@2@$0A@@std@@@std@@SAAAPAU_Node@?$_Tree_nod@V?$_Tmap_traits@V?$basic_string@DU?$char_traits@D@std@@V?$allocator@D@2@@std@@VHNTreeNode@@U?$less@V?$basic_string@DU?$char_traits@D@std@@V?$allocator@D@2@@std@@@2@V?$allocator@U?$pair@$$CBV?$basic_string@DU?$char_traits@D@std@@V?$allocator@D@2@@std@@VHNTreeNode@@@std@@@2@$0A@@std@@@2@PAU342@@Z 10008aa0 f i mainserversocket.obj
 0001:00007aa0       ??$forward@ABH@std@@YAABHABH@Z 10008aa0 f i GameDesk.obj
 0001:00007aa0       ??$addressof@PAVCGameUserInfo@@@std@@YAPAPAVCGameUserInfo@@AAPAV1@@Z 10008aa0 f i GameMainManage.obj
 0001:00007aa0       ??$forward@ABUMSG_GM_S_ReturnGameInfo@@@std@@YAABUMSG_GM_S_ReturnGameInfo@@ABU1@@Z 10008aa0 f i GameMainManage.obj
 0001:00007aa0       ??$_Move@AAUQueueInfo_t@@@std@@YA$$QAUQueueInfo_t@@AAU1@@Z 10008aa0 f i AutoAllotDesk.obj
 0001:00007aa0       ??$forward@ABV?$basic_string@DU?$char_traits@D@std@@V?$allocator@D@2@@std@@@std@@YAABV?$basic_string@DU?$char_traits@D@std@@V?$allocator@D@2@@0@ABV10@@Z 10008aa0 f i mainserversocket.obj
 0001:00007aa0       ??$_Unchecked@PAUQueueInfo_t@@@std@@YAPAUQueueInfo_t@@PAU1@@Z 10008aa0 f i AutoAllotDesk.obj
 0001:00007aa0       ??$forward@ABUMSG_GR_S_Position_Notice@@@std@@YAABUMSG_GR_S_Position_Notice@@ABU1@@Z 10008aa0 f i GameDesk.obj
 0001:00007aa0       ??$forward@PAVCGameUserInfo@@@std@@YA$$QAPAVCGameUserInfo@@AAPAV1@@Z 10008aa0 f i GameMainManage.obj
 0001:00007aa0       ??$forward@ABQAUFILEINFO@@@std@@YAABQAUFILEINFO@@ABQAU1@@Z 10008aa0 f i stdafx.obj
 0001:00007aa0       ??$forward@AAH@std@@YAAAHAAH@Z 10008aa0 f i GameDesk.obj
 0001:00007aa0       ??$forward@ABQAVCGameUserInfo@@@std@@YAABQAVCGameUserInfo@@ABQAV1@@Z 10008aa0 f i GameMainManage.obj
 0001:00007aa0       ??$forward@AAUMSG_GR_S_Position_Notice@@@std@@YAAAUMSG_GR_S_Position_Notice@@AAU1@@Z 10008aa0 f i GameDesk.obj
 0001:00007aa0       ??$_Move@AAI@std@@YA$$QAIAAI@Z 10008aa0 f i GameMainManage.obj
 0001:00007aa0       ??$_Move@AAPAU_Node@?$_List_nod@PAVCGameUserInfo@@V?$allocator@PAVCGameUserInfo@@@std@@@std@@@std@@YA$$QAPAU_Node@?$_List_nod@PAVCGameUserInfo@@V?$allocator@PAVCGameUserInfo@@@std@@@0@AAPAU120@@Z 10008aa0 f i GameMainManage.obj
 0001:00007aa0       ?_Nextnode@?$_List_val@PAUFILEINFO@@V?$allocator@PAUFILEINFO@@@std@@@std@@SAAAPAU_Node@?$_List_nod@PAUFILEINFO@@V?$allocator@PAUFILEINFO@@@std@@@2@PAU342@@Z 10008aa0 f i stdafx.obj
 0001:00007aa0       ??$addressof@$$CBUQueueInfo_t@@@std@@YAPBUQueueInfo_t@@ABU1@@Z 10008aa0 f i AutoAllotDesk.obj
 0001:00007aa0       ?_Nextnode@?$_List_val@PAVCGameUserInfo@@V?$allocator@PAVCGameUserInfo@@@std@@@std@@SAAAPAU_Node@?$_List_nod@PAVCGameUserInfo@@V?$allocator@PAVCGameUserInfo@@@std@@@2@PAU342@@Z 10008aa0 f i GameMainManage.obj
 0001:00007aa0       ??$forward@AAPAVCGameUserInfo@@@std@@YAAAPAVCGameUserInfo@@AAPAV1@@Z 10008aa0 f i GameMainManage.obj
 0001:00007aa0       ??$forward@ABJ@std@@YAABJABJ@Z 10008aa0 f i GameMainManage.obj
 0001:00007aa0       ??$forward@AAVHNTreeNode@@@std@@YAAAVHNTreeNode@@AAV1@@Z 10008aa0 f i mainserversocket.obj
 0001:00007aa0       ??$forward@AAJ@std@@YAAAJAAJ@Z 10008aa0 f i GameMainManage.obj
 0001:00007aa0       ??$forward@AAPAUQueueInfo_t@@@std@@YAAAPAUQueueInfo_t@@AAPAU1@@Z 10008aa0 f i AutoAllotDesk.obj
 0001:00007aa0       ??$forward@UQueueInfo_t@@@std@@YA$$QAUQueueInfo_t@@AAU1@@Z 10008aa0 f i AutoAllotDesk.obj
 0001:00007aa0       ??$addressof@QAVCGameUserInfo@@@std@@YAPBQAVCGameUserInfo@@ABQAV1@@Z 10008aa0 f i GameMainManage.obj
 0001:00007aa0       ??$forward@AAUQueueInfo_t@@@std@@YAAAUQueueInfo_t@@AAU1@@Z 10008aa0 f i AutoAllotDesk.obj
 0001:00007ac0       ??$_Push_heap@PAUQueueInfo_t@@HU1@P6AHABU1@0@Z@std@@YAXPAUQueueInfo_t@@HH$$QAU1@P6AHABU1@2@Z@Z 10008ac0 f i AutoAllotDesk.obj
 0001:00007b60       ??$_Pop_heap_0@PAUQueueInfo_t@@U1@P6AHABU1@0@Z@std@@YAXPAUQueueInfo_t@@0P6AHABU1@1@Z0@Z 10008b60 f i AutoAllotDesk.obj
 0001:00007bd0       ??$_Move_backward@PAUQueueInfo_t@@PAU1@@std@@YAPAUQueueInfo_t@@PAU1@00U_Nonscalar_ptr_iterator_tag@0@@Z 10008bd0 f i AutoAllotDesk.obj
 0001:00007c20       ??$_Pop_heap@PAUQueueInfo_t@@HU1@P6AHABU1@0@Z@std@@YAXPAUQueueInfo_t@@00$$QAU1@P6AHABU1@2@ZPAH@Z 10008c20 f i AutoAllotDesk.obj
 0001:00007c80       ?GetTickCount@CTime@ATL@@SG?AV12@XZ 10008c80 f i AutoAllotDesk.obj
 0001:00007cb0       ??0CTime@ATL@@QAE@XZ       10008cb0 f i AutoAllotDesk.obj
 0001:00007ce0       ?OnNetMessage@CBankService@@QAE_NPAUNetMessageHead@@PAXIKIK@Z 10008ce0 f   BankService.obj
 0001:000081a0       ?OnDataBaseResult@CBankService@@QAE_NPAUDataBaseResultLine@@@Z 100091a0 f   BankService.obj
 0001:00008570       ??0CGameDataBaseHandle@@QAE@XZ 10009570 f   GameDataBaseHandle.obj
 0001:000085b0       ?HandleDataBase@CGameDataBaseHandle@@EAEIPAUDataBaseLineHead@@@Z 100095b0 f   GameDataBaseHandle.obj
 0001:00008d30       ?OnCheckDataConnect@CGameDataBaseHandle@@AAEIPAUDataBaseLineHead@@@Z 10009d30 f   GameDataBaseHandle.obj
 0001:00008dd0       ?OnRecordGameInfo@CGameDataBaseHandle@@AAEIPAUDataBaseLineHead@@@Z 10009dd0 f   GameDataBaseHandle.obj
 0001:000091d0       ?OnClearNetCutUserOnlineFlag@CGameDataBaseHandle@@AAEIPAUDataBaseLineHead@@@Z 1000a1d0 f   GameDataBaseHandle.obj
 0001:000092a0       ?OnReWriteWLoginRecord@CGameDataBaseHandle@@AAEIPAUDataBaseLineHead@@@Z 1000a2a0 f   GameDataBaseHandle.obj
 0001:00009350       ?OnContestReturnFee@CGameDataBaseHandle@@AAEIPAUDataBaseLineHead@@@Z 1000a350 f   GameDataBaseHandle.obj
 0001:00009410       ?OnContestUserLeft@CGameDataBaseHandle@@AAEIPAUDataBaseLineHead@@@Z 1000a410 f   GameDataBaseHandle.obj
 0001:000094a0       ?OnUpdateServerInfo@CGameDataBaseHandle@@AAEIPAUDataBaseLineHead@@@Z 1000a4a0 f   GameDataBaseHandle.obj
 0001:000095c0       ?OnRoomLogon@CGameDataBaseHandle@@AAEIPAUDataBaseLineHead@@@Z 1000a5c0 f   GameDataBaseHandle.obj
 0001:0000a080       ??0CTime@ATL@@QAE@HHHHHHH@Z 1000b080 f i GameDataBaseHandle.obj
 0001:0000a2c0       ?AtlThrowImpl@ATL@@YGXJ@Z  1000b2c0 f i GameDataBaseHandle.obj
 0001:0000a2f0       ??0CTimeSpan@ATL@@QAE@_J@Z 1000b2f0 f i GameMainManage.obj
 0001:0000a2f0       ??0CTime@ATL@@QAE@_J@Z     1000b2f0 f i AutoAllotDesk.obj
 0001:0000a2f0       ??4CTime@ATL@@QAEAAV01@_J@Z 1000b2f0 f i GameDataBaseHandle.obj
 0001:0000a320       ??0DL_GR_O_LogonResult@@QAE@XZ 1000b320 f i GameDataBaseHandle.obj
 0001:0000a360       ?OnGetNickNameOnID@CGameDataBaseHandle@@AAEIPAUDataBaseLineHead@@@Z 1000b360 f   GameDataBaseHandle.obj
 0001:0000a520       ?OnUseKickProp@CGameDataBaseHandle@@AAEIPAUDataBaseLineHead@@H@Z 1000b520 f   GameDataBaseHandle.obj
 0001:0000a7e0       ?OnNewKickUserProp@CGameDataBaseHandle@@AAEIPAUDataBaseLineHead@@@Z 1000b7e0 f   GameDataBaseHandle.obj
 0001:0000a960       ?OnBankOperateNormal@CGameDataBaseHandle@@AAEIPAUDataBaseLineHead@@@Z 1000b960 f   GameDataBaseHandle.obj
 0001:0000ab40       ?OnBankOperateTransfer@CGameDataBaseHandle@@AAEIPAUDataBaseLineHead@@@Z 1000bb40 f   GameDataBaseHandle.obj
 0001:0000ad60       ?OnBankOperateDeposit@CGameDataBaseHandle@@AAEIPAUDataBaseLineHead@@@Z 1000bd60 f   GameDataBaseHandle.obj
 0001:0000b120       ?OnPropChange@CGameDataBaseHandle@@AAEIPAUDataBaseLineHead@@@Z 1000c120 f   GameDataBaseHandle.obj
 0001:0000b310       ?OnBankQueryDeposits@CGameDataBaseHandle@@AAEIPAUDataBaseLineHead@@@Z 1000c310 f   GameDataBaseHandle.obj
 0001:0000b590       ??0db_bank_op_query_deposit_out@@QAE@XZ 1000c590 f i GameDataBaseHandle.obj
 0001:0000b5c0       ??0bank_op_deposit_node@@QAE@XZ 1000c5c0 f i GameDataBaseHandle.obj
 0001:0000b5f0       ?OnBankGetWallet@CGameDataBaseHandle@@AAEIPAUDataBaseLineHead@@@Z 1000c5f0 f   GameDataBaseHandle.obj
 0001:0000b7e0       ?OnCheckOutMoney@CGameDataBaseHandle@@AAEIPAUDataBaseLineHead@@I@Z 1000c7e0 f   GameDataBaseHandle.obj
 0001:0000bb20       ?OnCheckInMoney@CGameDataBaseHandle@@AAEIPAUDataBaseLineHead@@I@Z 1000cb20 f   GameDataBaseHandle.obj
 0001:0000be60       ?OnTransferRecord@CGameDataBaseHandle@@AAEIPAUDataBaseLineHead@@I@Z 1000ce60 f   GameDataBaseHandle.obj
 0001:0000c040       ??0DL_GR_O_TransferRecord_t@@QAE@XZ 1000d040 f i GameDataBaseHandle.obj
 0001:0000c070       ??0MSG_GR_R_TransferRecord_t@@QAE@XZ 1000d070 f i GameDataBaseHandle.obj
 0001:0000c0a0       ?OnChangePasswd@CGameDataBaseHandle@@AAEIPAUDataBaseLineHead@@I@Z 1000d0a0 f   GameDataBaseHandle.obj
 0001:0000c1c0       ?OnTransferMoney@CGameDataBaseHandle@@AAEIPAUDataBaseLineHead@@I@Z 1000d1c0 f   GameDataBaseHandle.obj
 0001:0000c5d0       ??0DL_GR_O_TransferMoney@@QAE@XZ 1000d5d0 f i GameDataBaseHandle.obj
 0001:0000c600       ??0MSG_GR_S_TransferMoney@@QAE@XZ 1000d600 f i GameDataBaseHandle.obj
 0001:0000c630       ?OnBankTransferRebate@CGameDataBaseHandle@@AAEIPAUDataBaseLineHead@@I@Z 1000d630 f   GameDataBaseHandle.obj
 0001:0000c800       ?OnUpdateRebate@CGameDataBaseHandle@@AAEIPAUDataBaseLineHead@@@Z 1000d800 f   GameDataBaseHandle.obj
 0001:0000c8c0       ?OnUpdateUserRebate@CGameDataBaseHandle@@AAEIPAUDataBaseLineHead@@I@Z 1000d8c0 f   GameDataBaseHandle.obj
 0001:0000ca10       ?OnOpenWallet@CGameDataBaseHandle@@AAEIPAUDataBaseLineHead@@I@Z 1000da10 f   GameDataBaseHandle.obj
 0001:0000cc00       ?OnGMWarningUserRecord@CGameDataBaseHandle@@AAEIPAUDataBaseLineHead@@@Z 1000dc00 f   GameDataBaseHandle.obj
 0001:0000ccb0       ?OnGMKickUserRecord@CGameDataBaseHandle@@AAEIPAUDataBaseLineHead@@@Z 1000dcb0 f   GameDataBaseHandle.obj
 0001:0000cd60       ?OnCallGM@CGameDataBaseHandle@@AAEIPAUDataBaseLineHead@@@Z 1000dd60 f   GameDataBaseHandle.obj
 0001:0000cfb0       ?OnRoomPWChangeRecord@CGameDataBaseHandle@@AAEIPAUDataBaseLineHead@@@Z 1000dfb0 f   GameDataBaseHandle.obj
 0001:0000d0b0       ?OnUserLeft@CGameDataBaseHandle@@AAEIPAUDataBaseLineHead@@@Z 1000e0b0 f   GameDataBaseHandle.obj
 0001:0000d520       ?OnUpdateAllUserResult@CGameDataBaseHandle@@AAEIPAUDataBaseLineHead@@@Z 1000e520 f   GameDataBaseHandle.obj
 0001:0000dc80       ??0DL_GR_O_SendMoney_On_TC@@QAE@XZ 1000ec80 f i GameDataBaseHandle.obj
 0001:0000dcb0       ?GetWalletMoney@CGameDataBaseHandle@@AAEXAAUtag_RECEIVEMONEY@@K@Z 1000ecb0 f   GameDataBaseHandle.obj
 0001:0000ddd0       ?OnContestBegin@CGameDataBaseHandle@@AAEIPAUDataBaseLineHead@@@Z 1000edd0 f   GameDataBaseHandle.obj
 0001:0000e050       ?OnContestGameOver@CGameDataBaseHandle@@AAEIPAUDataBaseLineHead@@@Z 1000f050 f   GameDataBaseHandle.obj
 0001:0000e2c0       ?OnUpdateContestInfo@CGameDataBaseHandle@@AAEIPAUDataBaseLineHead@@@Z 1000f2c0 f   GameDataBaseHandle.obj
 0001:0000e470       ?OnGetContestInfo@CGameDataBaseHandle@@AAEIPAUDataBaseLineHead@@@Z 1000f470 f   GameDataBaseHandle.obj
 0001:0000e6c0       ??0DL_GR_O_UserContestRank@@QAE@XZ 1000f6c0 f i GameDataBaseHandle.obj
 0001:0000e6f0       ??0DL_GR_I_FindDeskBuyStation@@QAE@XZ 1000f6f0 f i GameMainManage.obj
 0001:0000e6f0       ??0MSG_GR_ContestChange@@QAE@XZ 1000f6f0 f i GameDataBaseHandle.obj
 0001:0000e720       ?OnContestApply@CGameDataBaseHandle@@AAEIPAUDataBaseLineHead@@@Z 1000f720 f   GameDataBaseHandle.obj
 0001:0000e980       ?OnContestAbandon@CGameDataBaseHandle@@AAEIPAUDataBaseLineHead@@@Z 1000f980 f   GameDataBaseHandle.obj
 0001:0000ec00       ??0MSG_GR_S_ContestAbandon@@QAE@XZ 1000fc00 f i GameDataBaseHandle.obj
 0001:0000ec30       ??0DL_GR_O_ContestAbandon@@QAE@XZ 1000fc30 f i GameDataBaseHandle.obj
 0001:0000ec60       ??_H@YGXPAXIHP6EPAX0@Z@Z   1000fc60 f i GameDataBaseHandle.obj
 0001:0000ec90       ?OnUpdateUserResult@CGameDataBaseHandle@@AAEIPAUDataBaseLineHead@@@Z 1000fc90 f   GameDataBaseHandle.obj
 0001:0000ef20       ?OnModifyUserMoney@CGameDataBaseHandle@@AAEIPAUDataBaseLineHead@@@Z 1000ff20 f   GameDataBaseHandle.obj
 0001:0000f040       ?OnUpdateUserCharm@CGameDataBaseHandle@@AAEIPAUDataBaseLineHead@@@Z 10010040 f   GameDataBaseHandle.obj
 0001:0000f0e0       ?OnUseSmallBoardcast@CGameDataBaseHandle@@AAEIPAUDataBaseLineHead@@@Z 100100e0 f   GameDataBaseHandle.obj
 0001:0000f220       ?OnSendUserMoenyByTimes@CGameDataBaseHandle@@AAEIPAUDataBaseLineHead@@@Z 10010220 f   GameDataBaseHandle.obj
 0001:0000f3d0       ?OnUserUseOneProp@CGameDataBaseHandle@@AAEIPAUDataBaseLineHead@@@Z 100103d0 f   GameDataBaseHandle.obj
 0001:0000f7b0       ?OnUnRegisterOnLine@CGameDataBaseHandle@@AAEIPAUDataBaseLineHead@@@Z 100107b0 f   GameDataBaseHandle.obj
 0001:0000f850       ?OnWriteTWLoginRecord@CGameDataBaseHandle@@AAEIPAUDataBaseLineHead@@@Z 10010850 f   GameDataBaseHandle.obj
 0001:0000f950       ?OnAloneDeskInTime@CGameDataBaseHandle@@AAEIPAUDataBaseLineHead@@@Z 10010950 f   GameDataBaseHandle.obj
 0001:0000fa60       ?UnRegisterUserLogon@CGameDataBaseHandle@@AAE_NJ_N@Z 10010a60 f   GameDataBaseHandle.obj
 0001:0000faf0       ?FillTimingMatchQueueUser@CGameDataBaseHandle@@AAEIPAUDataBaseLineHead@@@Z 10010af0 f   GameDataBaseHandle.obj
 0001:0000fc70       ?OnFindBuyDeskStation@CGameDataBaseHandle@@AAEHPAUDataBaseLineHead@@@Z 10010c70 f   GameDataBaseHandle.obj
 0001:0000ff90       ??0DL_GR_O_FindDeskBuyStationResult@@QAE@XZ 10010f90 f i GameDataBaseHandle.obj
 0001:0000ffd0       ?OnGetDeskInfo@CGameDataBaseHandle@@AAEHPAUDataBaseLineHead@@@Z 10010fd0 f   GameDataBaseHandle.obj
 0001:000103b0       ??0DL_GR_O_GET_DESKINFO@@QAE@XZ 100113b0 f i GameDataBaseHandle.obj
 0001:00010410       ??0MSG_MG_S_BUY_DESK_NOTICE@@QAE@XZ 10011410 f i GameDataBaseHandle.obj
 0001:00010450       ??0MSG_MG_S_RETURN_DESK_NOTICE@@QAE@XZ 10011450 f i GameDataBaseHandle.obj
 0001:00010490       ??0MSG_MG_S_CLUB_BUY_DESK_NOTICE@@QAE@XZ 10011490 f i GameDataBaseHandle.obj
 0001:000104c0       ?OnContestActive@CGameDataBaseHandle@@AAEHPAUDataBaseLineHead@@@Z 100114c0 f   GameDataBaseHandle.obj
 0001:00010600       ??0DL_GR_O_ContestActive@@QAE@XZ 10011600 f i GameDataBaseHandle.obj
 0001:00010640       ??0MSG_MG_S_CONTEST_ACTIVE@@QAE@XZ 10011640 f i GameDataBaseHandle.obj
 0001:00010670       ?OnContestRegist@CGameDataBaseHandle@@AAEHPAUDataBaseLineHead@@@Z 10011670 f   GameDataBaseHandle.obj
 0001:00010760       ?OnCostJewels@CGameDataBaseHandle@@AAEHPAUDataBaseLineHead@@@Z 10011760 f   GameDataBaseHandle.obj
 0001:000108a0       ?OnMiddleCostFee@CGameDataBaseHandle@@AAEHPAUDataBaseLineHead@@@Z 100118a0 f   GameDataBaseHandle.obj
 0001:000109e0       ?OnClearBuyDesk@CGameDataBaseHandle@@AAEHPAUDataBaseLineHead@@@Z 100119e0 f   GameDataBaseHandle.obj
 0001:00010a60       ?OnClearData@CGameDataBaseHandle@@AAEHPAUDataBaseLineHead@@@Z 10011a60 f   GameDataBaseHandle.obj
 0001:00010ae0       ?OnReleaseBuyDesk@CGameDataBaseHandle@@AAEHPAUDataBaseLineHead@@@Z 10011ae0 f   GameDataBaseHandle.obj
 0001:00010b80       ?OnReleaseRecord@CGameDataBaseHandle@@AAEHPAUDataBaseLineHead@@@Z 10011b80 f   GameDataBaseHandle.obj
 0001:00010c30       ?OnGetReleaseRecord@CGameDataBaseHandle@@AAEHPAUDataBaseLineHead@@@Z 10011c30 f   GameDataBaseHandle.obj
 0001:00010d90       ??0DL_GR_O_GET_GAMEINFO@@QAE@XZ 10011d90 f i GameDataBaseHandle.obj
 0001:00010dc0       ?OnReturnBuyDesk@CGameDataBaseHandle@@AAEHPAUDataBaseLineHead@@@Z 10011dc0 f   GameDataBaseHandle.obj
 0001:00010fb0       ??0DL_GR_O_ReturnDeskResult@@QAE@XZ 10011fb0 f i GameDataBaseHandle.obj
 0001:00010fe0       ?OnRecordGame@CGameDataBaseHandle@@AAEHPAUDataBaseLineHead@@@Z 10011fe0 f   GameDataBaseHandle.obj
 0001:00011260       ?OnCreateGameSN@CGameDataBaseHandle@@AAEHPAUDataBaseLineHead@@@Z 10012260 f   GameDataBaseHandle.obj
 0001:00011370       ??0DL_GR_O_CREATE_GAMESN@@QAE@XZ 10012370 f i GameDataBaseHandle.obj
 0001:000113a0       ?OnCutNet@CGameDataBaseHandle@@AAEHPAUDataBaseLineHead@@@Z 100123a0 f   GameDataBaseHandle.obj
 0001:000115b0       ?OnCutNetRecordStart@CGameDataBaseHandle@@AAEHPAUDataBaseLineHead@@@Z 100125b0 f   GameDataBaseHandle.obj
 0001:00011690       ?OnGetRoomInfo@CGameDataBaseHandle@@AAEHPAUDataBaseLineHead@@@Z 10012690 f   GameDataBaseHandle.obj
 0001:000119f0       ??0DL_GR_O_Get_RoomInfo@@QAE@XZ 100129f0 f i GameDataBaseHandle.obj
 0001:00011a20       ?OnSetContestInfo@CGameDataBaseHandle@@AAEHPAUDataBaseLineHead@@@Z 10012a20 f   GameDataBaseHandle.obj
 0001:00011df0       ??0DL_GR_O_Get_ContestInfo@@QAE@XZ 10012df0 f i GameDataBaseHandle.obj
 0001:00011e30       ?OnUpdateNetCutTime@CGameDataBaseHandle@@AAEHPAUDataBaseLineHead@@@Z 10012e30 f   GameDataBaseHandle.obj
 0001:00011ee0       ?OnMasterLeave@CGameDataBaseHandle@@AAEHPAUDataBaseLineHead@@@Z 10012ee0 f   GameDataBaseHandle.obj
 0001:00011fc0       ?OnContestExit@CGameDataBaseHandle@@AAEHPAUDataBaseLineHead@@@Z 10012fc0 f   GameDataBaseHandle.obj
 0001:00012090       ?OnChangeUserStation@CGameDataBaseHandle@@AAEHPAUDataBaseLineHead@@@Z 10013090 f   GameDataBaseHandle.obj
 0001:00012170       ?OnSetGameDynamicInfo@CGameDataBaseHandle@@AAEHPAUDataBaseLineHead@@@Z 10013170 f   GameDataBaseHandle.obj
 0001:00012210       ?OnUpdateBeginTime@CGameDataBaseHandle@@AAEHPAUDataBaseLineHead@@@Z 10013210 f   GameDataBaseHandle.obj
 0001:000122d0       ?OnDissmissDeskByMS@CGameDataBaseHandle@@AAEHPAUDataBaseLineHead@@@Z 100132d0 f   GameDataBaseHandle.obj
 0001:00012360       ??0DL_GR_O_DissmissDeskByMS@@QAE@XZ 10013360 f i GameDataBaseHandle.obj
 0001:00012390       ??9ATL@@YA_NABV?$CStringT@DV?$StrTraitMFC_DLL@DV?$ChTraitsCRT@D@ATL@@@@@0@PBD@Z 10013390 f i GameDataBaseHandle.obj
 0001:000123c0       ??$strcpy_s@$0IA@@@YAHAAY0IA@DPBD@Z 100133c0 f i GameDataBaseHandle.obj
 0001:000123f0       ??0COleDateTime@ATL@@QAE@XZ 100133f0 f i GameDataBaseHandle.obj
 0001:00012420       ??0UserInfoStruct@@QAE@XZ  10013420 f i GameDataBaseHandle.obj
 0001:00012450       ??0tag_RECEIVEMONEY@@QAE@XZ 10013450 f i GameDataBaseHandle.obj
 0001:000124b0       ??0MSG_GP_S_GET_CUTNETROOMINFO_RES@@QAE@XZ 100134b0 f i GameDataBaseHandle.obj
 0001:000124f0       ??0ComRoomInfo@@QAE@XZ     100134f0 f i GameDataBaseHandle.obj
 0001:00012530       ??_ECGameDesk@@UAEPAXI@Z   10013530 f i GameDesk.obj
 0001:000125b0       ??0MD5_CTX@@QAE@ABV0@@Z    100135b0 f i GameDesk.obj
 0001:00012630       ??4MD5_CTX@@QAEAAV0@ABV0@@Z 10013630 f i GameDesk.obj
 0001:00012700       ??_EMD5_CTX@@UAEPAXI@Z     10013700 f i GameDesk.obj
 0001:00012780       ??0CGameDesk@@QAE@E@Z      10013780 f   GameDesk.obj
 0001:00012d30       ??1CGameDesk@@UAE@XZ       10013d30 f   GameDesk.obj
 0001:00012df0       ?CanSitDesk@CGameDesk@@QAEHPAUMSG_GR_S_UserSit@@PAVCGameUserInfo@@@Z 10013df0 f   GameDesk.obj
 0001:00013490       ?UserSitDesk@CGameDesk@@UAEEPAUMSG_GR_S_UserSit@@PAVCGameUserInfo@@@Z 10014490 f   GameDesk.obj
 0001:00014220       ?FindStation@CGameDesk@@QAEEPAVCGameUserInfo@@@Z 10015220 f   GameDesk.obj
 0001:00014360       ?GetCryptedPasswd@@YAPADPAD0@Z 10015360 f   GameDesk.obj
 0001:00014460       ?innerGetMac@@YA?AV?$CStringT@DV?$StrTraitMFC_DLL@DV?$ChTraitsCRT@D@ATL@@@@@ATL@@XZ 10015460 f   GameDesk.obj
 0001:000145f0       ?coreGetCode@@YA?AV?$CStringT@DV?$StrTraitMFC_DLL@DV?$ChTraitsCRT@D@ATL@@@@@ATL@@XZ 100155f0 f   GameDesk.obj
 0001:00014c90       ?Init@CGameDesk@@QAE_NEEPAVCGameMainManage@@I@Z 10015c90 f   GameDesk.obj
 0001:00015130       ?send_video_ip@CGameDesk@@AAEXE@Z 10016130 f   GameDesk.obj
 0001:000151c0       ??0SetVideoSrvStruct@@QAE@XZ 100161c0 f i GameDesk.obj
 0001:000151f0       ?IsEnableWatch@CGameDesk@@QAE_NE@Z 100161f0 f   GameDesk.obj
 0001:00015220       ?SetTimer@CGameDesk@@QAE_NIH@Z 10016220 f   GameDesk.obj
 0001:00015270       ?KillTimer@CGameDesk@@QAE_NI@Z 10016270 f   GameDesk.obj
 0001:000152c0       ?GetPlayTimeCount@CGameDesk@@QAEJXZ 100162c0 f   GameDesk.obj
 0001:00015300       ?UserNetCut@CGameDesk@@UAE_NEPAVCGameUserInfo@@@Z 10016300 f   GameDesk.obj
 0001:000155e0       ??0VipDeskDismissAgreeRes@@QAE@XZ 100165e0 f i GameDesk.obj
 0001:00015610       ?UserReCome@CGameDesk@@UAE_NEPAVCGameUserInfo@@@Z 10016610 f   GameDesk.obj
 0001:00015850       ?SetMatchInfo@CGameDesk@@QAE_NEPAUMatchInfoStruct@@_N@Z 10016850 f   GameDesk.obj
 0001:00015880       ?CleanCutGameInfo@CGameDesk@@AAE_NXZ 10016880 f   GameDesk.obj
 0001:000159c0       ?CleanCutGameInfoContest@CGameDesk@@AAE_NXZ 100169c0 f   GameDesk.obj
 0001:00015af0       ?CleanCutGameInfo@CGameDesk@@IAE_NE@Z 10016af0 f   GameDesk.obj
 0001:00015b60       ?RecoderGameInfo@CGameDesk@@IAE_NPA_J@Z 10016b60 f   GameDesk.obj
 0001:00015df0       ?I64ToInt@@YAH_J@Z         10016df0 f   GameDesk.obj
 0001:00015e60       ?ChangeUserPointContest@CGameDesk@@QAE_NPA_JPA_NH@Z 10016e60 f   GameDesk.obj
 0001:00016630       ?ChangeUserPointContest@CGameDesk@@QAE_NPAHPA_NH@Z 10017630 f   GameDesk.obj
 0001:00016910       ?ChangeUserPointint64@CGameDesk@@QAE_NPA_JPA_NHH@Z 10017910 f   GameDesk.obj
 0001:00017c90       ??0DL_GR_I_DissmissDeskByMS@@QAE@XZ 10018c90 f i HNHandleMSMessage.obj
 0001:00017c90       ??0UpdateUserInfo_t@@QAE@XZ 10018c90 f i GameDesk.obj
 0001:00017cc0       ??0MSG_GR_R_UserPoint@@QAE@XZ 10018cc0 f i GameDesk.obj
 0001:00017cf0       ?UpdateGameRecord@CGameDesk@@QAEXPA_J@Z 10018cf0 f   GameDesk.obj
 0001:00017ec0       ??0DL_GR_I_BUYDESK_GameRecord@@QAE@XZ 10018ec0 f i GameDesk.obj
 0001:00017ef0       ?ChangeUserPoint@CGameDesk@@QAE_NPAHPA_NH@Z 10018ef0 f   GameDesk.obj
 0001:000190c0       ?ChangeUserPoint_old@CGameDesk@@QAE_NPAHPA_N0_N@Z 1001a0c0 f   GameDesk.obj
 0001:000190e0       ?GetOrderClass@CGameDesk@@QAEHH@Z 1001a0e0 f   GameDesk.obj
 0001:00019130       ?UpdateAllUserInfo@CGameDesk@@QAEXPAUUpdateUserInfo_t@@HH@Z 1001a130 f   GameDesk.obj
 0001:000191b0       ??0DL_GR_O_BuyRoom_CostFee@@QAE@XZ 1001a1b0 f i GameDataBaseHandle.obj
 0001:000191b0       ??0DL_GR_I_CutNetRecordStart@@QAE@XZ 1001a1b0 f i GameDesk.obj
 0001:000191b0       ??0DL_GR_I_AllUserData_t@@QAE@XZ 1001a1b0 f i GameDesk.obj
 0001:000191e0       ?UpdateUserPoint@CGameDesk@@QAEXPAEPA_JH@Z 1001a1e0 f   GameDesk.obj
 0001:00019420       ?UpdateUserInfo@CGameDesk@@QAEXJHHH_NJJ@Z 1001a420 f   GameDesk.obj
 0001:00019660       ?SendGameData@CGameDesk@@QAE_NEEEE@Z 1001a660 f   GameDesk.obj
 0001:00019770       ?SendWatchData@CGameDesk@@QAE_NEEEE@Z 1001a770 f   GameDesk.obj
 0001:00019840       ?GetAt@CPtrArray@@QBEPAXH@Z 1001a840 f i GameDesk.obj
 0001:00019880       ?SendGameData@CGameDesk@@QAE_NEPAXIEEE@Z 1001a880 f   GameDesk.obj
 0001:00019ad0       ?SendWatchData@CGameDesk@@QAE_NEPAXIEEE@Z 1001aad0 f   GameDesk.obj
 0001:00019ba0       ?SendWatchDataByID@CGameDesk@@QAE_NIPAXIEEE@Z 1001aba0 f   GameDesk.obj
 0001:00019c50       ?CanNetCut@CGameDesk@@UAE_NE@Z 1001ac50 f   GameDesk.obj
 0001:00019c80       ?GetDeskPlayerNum@CGameDesk@@QAEHXZ 1001ac80 f   GameDesk.obj
 0001:00019ce0       ?GetOnlineDeskPlayerNum@CGameDesk@@QAEHXZ 1001ace0 f   GameDesk.obj
 0001:00019d50       ?GetDeskNoPlayerStation@CGameDesk@@QAEHXZ 1001ad50 f   GameDesk.obj
 0001:00019dd0       ?IsDeskIpSame@CGameDesk@@QAE_NPAVCGameUserInfo@@@Z 1001add0 f   GameDesk.obj
 0001:00019f00       ?SetDeskUserInfo@CGameDesk@@QAEXPAVCGameUserInfo@@H@Z 1001af00 f   GameDesk.obj
 0001:00019f70       ?CanBeginGame@CGameDesk@@UAE_NXZ 1001af70 f   GameDesk.obj
 0001:0001a290       ?MakeUserOffLine@CGameDesk@@QAE_NE_N@Z 1001b290 f   GameDesk.obj
 0001:0001a680       ?UserLeftDesk@CGameDesk@@UAEEEPAVCGameUserInfo@@@Z 1001b680 f   GameDesk.obj
 0001:0001acb0       ?WatchUserSitDesk@CGameDesk@@UAEEPAUMSG_GR_S_UserSit@@PAVCGameUserInfo@@@Z 1001bcb0 f   GameDesk.obj
 0001:0001ae00       ?WatchUserLeftDesk@CGameDesk@@UAEEEPAVCGameUserInfo@@@Z 1001be00 f   GameDesk.obj
 0001:0001af20       ?SetAt@CPtrArray@@QAEXHPAX@Z 1001bf20 f i GameDesk.obj
 0001:0001af60       ?UserAgreeGame@CGameDesk@@UAE_NE@Z 1001bf60 f   GameDesk.obj
 0001:0001b4a0       ?SendGameStation@CGameDesk@@QAE_NEI_NPAXI@Z 1001c4a0 f   GameDesk.obj
 0001:0001b700       ?GameBegin@CGameDesk@@UAE_NE@Z 1001c700 f   GameDesk.obj
 0001:0001c210       ??0VipDeskInfoResult@@QAE@XZ 1001d210 f i GameDesk.obj
 0001:0001c240       ??0DL_GR_I_CutNetRecord@@QAE@XZ 1001d240 f i GameDesk.obj
 0001:0001c270       ??0DL_GR_I_BuyRoom_CostFee@@QAE@XZ 1001d270 f i GameDesk.obj
 0001:0001c2a0       ??0DL_GR_I_UpdateBeginTime@@QAE@XZ 1001d2a0 f i GameDesk.obj
 0001:0001c2d0       ?GameFinish@CGameDesk@@UAE_NEE@Z 1001d2d0 f   GameDesk.obj
 0001:0001c5b0       ?GameFinishContest@CGameDesk@@UAE_NEE@Z 1001d5b0 f   GameDesk.obj
 0001:0001c920       ?OnTimer@CGameDesk@@UAE_NI@Z 1001d920 f   GameDesk.obj
 0001:0001ca50       ?HandleFrameMessage@CGameDesk@@UAE_NEPAUNetMessageHead@@PAXII_N@Z 1001da50 f   GameDesk.obj
 0001:0001d240       ?HandleNotifyMessage@CGameDesk@@UAE_NEPAUNetMessageHead@@PAXII_N@Z 1001e240 f   GameDesk.obj
 0001:0001d290       ?UpdateUserDB@CGameDesk@@MAEHJHH@Z 1001e290 f   GameDesk.obj
 0001:0001d450       ?UserUseProp@CGameDesk@@UAE_NEEPAU_TAG_PROP_MOIVE_USE@@@Z 1001e450 f   GameDesk.obj
 0001:0001d500       ?PropChange@CGameDesk@@UAEHABUTPropChange@@@Z 1001e500 f   GameDesk.obj
 0001:0001d570       ?UpDataRoomPond@CGameDesk@@UAEX_J@Z 1001e570 f   GameDesk.obj
 0001:0001d5a0       ?GetGRM_SET_KEY@CGameDesk@@QAEXQAD@Z 1001e5a0 f   GameDesk.obj
 0001:0001d5e0       ?GetGRM_SET_KEY_Win@CGameDesk@@QAEXQAD@Z 1001e5e0 f   GameDesk.obj
 0001:0001d620       ?GetGRM_SET_KEY_Los@CGameDesk@@QAEXQAD@Z 1001e620 f   GameDesk.obj
 0001:0001d660       ?SendDissmissingData@CGameDesk@@QAEXH@Z 1001e660 f   GameDesk.obj
 0001:0001d870       ??0NetCutDismissNotify@@QAE@XZ 1001e870 f i GameDesk.obj
 0001:0001d8a0       ?CreateGameSN@CGameDesk@@QAEXXZ 1001e8a0 f   GameDesk.obj
 0001:0001d910       ?ReleaseRoom@CGameDesk@@QAEXHPAXH@Z 1001e910 f   GameDesk.obj
 0001:0001d9c0       ??0DL_GR_I_RECORD_GAMEINFO@@QAE@XZ 1001e9c0 f i GameDesk.obj
 0001:0001d9f0       ?SendReturnInfo@CGameDesk@@QAEXI@Z 1001e9f0 f   GameDesk.obj
 0001:0001dbb0       ?IsBuyDeskPlaying@CGameDesk@@QAE_NXZ 1001ebb0 f   GameDesk.obj
 0001:0001dc00       ?DismissDeskbyGame@CGameDesk@@QAEXXZ 1001ec00 f   GameDesk.obj
 0001:0001dc40       ?SavePlayBackFile@CGameDesk@@QAEHXZ 1001ec40 f   GameDesk.obj
 0001:0001dd40       ?UpdateRunCount@CGameDesk@@QAEXH@Z 1001ed40 f   GameDesk.obj
 0001:0001dd70       ?onCheckPrevent@CGameDesk@@AAEXXZ 1001ed70 f   GameDesk.obj
 0001:0001df80       ?onCheckGameBegin@CGameDesk@@QAEXXZ 1001ef80 f   GameDesk.obj
 0001:0001e050       ?onCheckIP_Location@CGameDesk@@AAEXXZ 1001f050 f   GameDesk.obj
 0001:0001e290       ?UserNotAgreePrevent@CGameDesk@@QAEXH@Z 1001f290 f   GameDesk.obj
 0001:0001e370       ?SendDeskUserInfo@CGameDesk@@QAEXH@Z 1001f370 f   GameDesk.obj
 0001:0001e510       ?PlayerNetCutContest@CGameDesk@@QAEXE@Z 1001f510 f   GameDesk.obj
 0001:0001e550       ?ChangeStation@CGameDesk@@QAE_NEE@Z 1001f550 f   GameDesk.obj
 0001:0001e940       ??0MSG_GR_O_ChangeUserStation@@QAE@XZ 1001f940 f i GameDesk.obj
 0001:0001e970       ??0DL_GR_I_ChangeUserStation@@QAE@XZ 1001f970 f i GameDesk.obj
 0001:0001e9b0       ?SetDynamicInfo@CGameDesk@@QAEXQAE@Z 1001f9b0 f   GameDesk.obj
 0001:0001ea10       ??HATL@@YA?AV?$CStringT@DV?$StrTraitMFC_DLL@DV?$ChTraitsCRT@D@ATL@@@@@0@ABV10@0@Z 1001fa10 f i GameDesk.obj
 0001:0001ead0       ??8ATL@@YA_NABV?$CStringT@DV?$StrTraitMFC_DLL@DV?$ChTraitsCRT@D@ATL@@@@@0@PBD@Z 1001fad0 f i GameDesk.obj
 0001:0001eb00       ??NATL@@YA_NABV?$CStringT@DV?$StrTraitMFC_DLL@DV?$ChTraitsCRT@D@ATL@@@@@0@PBD@Z 1001fb00 f i GameDesk.obj
 0001:0001eb30       ??PATL@@YA_NABV?$CStringT@DV?$StrTraitMFC_DLL@DV?$ChTraitsCRT@D@ATL@@@@@0@PBD@Z 1001fb30 f i GameDesk.obj
 0001:0001eb60       ??4?$basic_string@DU?$char_traits@D@std@@V?$allocator@D@2@@std@@QAEAAV01@PBD@Z 1001fb60 f i GameDesk.obj
 0001:0001eb90       ??1?$vector@JV?$allocator@J@std@@@std@@QAE@XZ 1001fb90 f i GameMainManage.obj
 0001:0001eb90       ??1?$vector@PAVCGameUserInfo@@V?$allocator@PAVCGameUserInfo@@@std@@@std@@QAE@XZ 1001fb90 f i GameMainManage.obj
 0001:0001eb90       ??1?$vector@HV?$allocator@H@std@@@std@@QAE@XZ 1001fb90 f i GameDesk.obj
 0001:0001eb90       ??1?$vector@IV?$allocator@I@std@@@std@@QAE@XZ 1001fb90 f i GameMainManage.obj
 0001:0001ebf0       ?end@?$vector@PAVCGameUserInfo@@V?$allocator@PAVCGameUserInfo@@@std@@@std@@QAE?AV?$_Vector_iterator@V?$_Vector_val@PAVCGameUserInfo@@V?$allocator@PAVCGameUserInfo@@@std@@@std@@@2@XZ 1001fbf0 f i GameMainManage.obj
 0001:0001ebf0       ?end@?$vector@UMSG_GR_S_Position_Notice@@V?$allocator@UMSG_GR_S_Position_Notice@@@std@@@std@@QAE?AV?$_Vector_iterator@V?$_Vector_val@UMSG_GR_S_Position_Notice@@V?$allocator@UMSG_GR_S_Position_Notice@@@std@@@std@@@2@XZ 1001fbf0 f i GameDesk.obj
 0001:0001ebf0       ?end@?$vector@UQueueInfo_t@@V?$allocator@UQueueInfo_t@@@std@@@std@@QAE?AV?$_Vector_iterator@V?$_Vector_val@UQueueInfo_t@@V?$allocator@UQueueInfo_t@@@std@@@std@@@2@XZ 1001fbf0 f i AutoAllotDesk.obj
 0001:0001ebf0       ?end@?$vector@UMSG_GM_S_ReturnGameInfo@@V?$allocator@UMSG_GM_S_ReturnGameInfo@@@std@@@std@@QAE?AV?$_Vector_iterator@V?$_Vector_val@UMSG_GM_S_ReturnGameInfo@@V?$allocator@UMSG_GM_S_ReturnGameInfo@@@std@@@std@@@2@XZ 1001fbf0 f i GameDesk.obj
 0001:0001ebf0       ?end@?$vector@HV?$allocator@H@std@@@std@@QAE?AV?$_Vector_iterator@V?$_Vector_val@HV?$allocator@H@std@@@std@@@2@XZ 1001fbf0 f i GameDesk.obj
 0001:0001ebf0       ?end@?$vector@JV?$allocator@J@std@@@std@@QAE?AV?$_Vector_iterator@V?$_Vector_val@JV?$allocator@J@std@@@std@@@2@XZ 1001fbf0 f i GameMainManage.obj
 0001:0001ebf0       ?end@?$vector@IV?$allocator@I@std@@@std@@QAE?AV?$_Vector_iterator@V?$_Vector_val@IV?$allocator@I@std@@@std@@@2@XZ 1001fbf0 f i GameMainManage.obj
 0001:0001ec20       ?clear@?$vector@IV?$allocator@I@std@@@std@@QAEXXZ 1001fc20 f i GameMainManage.obj
 0001:0001ec20       ?clear@?$vector@PAVCGameUserInfo@@V?$allocator@PAVCGameUserInfo@@@std@@@std@@QAEXXZ 1001fc20 f i GameMainManage.obj
 0001:0001ec20       ?clear@?$vector@HV?$allocator@H@std@@@std@@QAEXXZ 1001fc20 f i GameDesk.obj
 0001:0001ec20       ?clear@?$vector@JV?$allocator@J@std@@@std@@QAEXXZ 1001fc20 f i GameMainManage.obj
 0001:0001ec70       ??1?$vector@UMSG_GM_S_ReturnGameInfo@@V?$allocator@UMSG_GM_S_ReturnGameInfo@@@std@@@std@@QAE@XZ 1001fc70 f i GameDesk.obj
 0001:0001ecd0       ?begin@?$vector@UMSG_GM_S_ReturnGameInfo@@V?$allocator@UMSG_GM_S_ReturnGameInfo@@@std@@@std@@QAE?AV?$_Vector_iterator@V?$_Vector_val@UMSG_GM_S_ReturnGameInfo@@V?$allocator@UMSG_GM_S_ReturnGameInfo@@@std@@@std@@@2@XZ 1001fcd0 f i GameDesk.obj
 0001:0001ecd0       ?begin@?$vector@IV?$allocator@I@std@@@std@@QAE?AV?$_Vector_iterator@V?$_Vector_val@IV?$allocator@I@std@@@std@@@2@XZ 1001fcd0 f i GameMainManage.obj
 0001:0001ecd0       ?begin@?$vector@UMSG_GR_S_Position_Notice@@V?$allocator@UMSG_GR_S_Position_Notice@@@std@@@std@@QAE?AV?$_Vector_iterator@V?$_Vector_val@UMSG_GR_S_Position_Notice@@V?$allocator@UMSG_GR_S_Position_Notice@@@std@@@std@@@2@XZ 1001fcd0 f i GameDesk.obj
 0001:0001ecd0       ?end@?$list@PAVCGameUserInfo@@V?$allocator@PAVCGameUserInfo@@@std@@@std@@QBE?AV?$_List_const_iterator@V?$_List_val@PAVCGameUserInfo@@V?$allocator@PAVCGameUserInfo@@@std@@@std@@@2@XZ 1001fcd0 f i GameMainManage.obj
 0001:0001ecd0       ?begin@?$vector@HV?$allocator@H@std@@@std@@QAE?AV?$_Vector_iterator@V?$_Vector_val@HV?$allocator@H@std@@@std@@@2@XZ 1001fcd0 f i GameDesk.obj
 0001:0001ecd0       ?begin@?$vector@PAVCGameUserInfo@@V?$allocator@PAVCGameUserInfo@@@std@@@std@@QAE?AV?$_Vector_iterator@V?$_Vector_val@PAVCGameUserInfo@@V?$allocator@PAVCGameUserInfo@@@std@@@std@@@2@XZ 1001fcd0 f i GameMainManage.obj
 0001:0001ecd0       ?begin@?$vector@UQueueInfo_t@@V?$allocator@UQueueInfo_t@@@std@@@std@@QAE?AV?$_Vector_iterator@V?$_Vector_val@UQueueInfo_t@@V?$allocator@UQueueInfo_t@@@std@@@std@@@2@XZ 1001fcd0 f i AutoAllotDesk.obj
 0001:0001ecd0       ?end@?$list@PAUFILEINFO@@V?$allocator@PAUFILEINFO@@@std@@@std@@QBE?AV?$_List_const_iterator@V?$_List_val@PAUFILEINFO@@V?$allocator@PAUFILEINFO@@@std@@@std@@@2@XZ 1001fcd0 f i stdafx.obj
 0001:0001ecd0       ?begin@?$vector@JV?$allocator@J@std@@@std@@QAE?AV?$_Vector_iterator@V?$_Vector_val@JV?$allocator@J@std@@@std@@@2@XZ 1001fcd0 f i GameMainManage.obj
 0001:0001ed00       ?clear@?$vector@UMSG_GM_S_ReturnGameInfo@@V?$allocator@UMSG_GM_S_ReturnGameInfo@@@std@@@std@@QAEXXZ 1001fd00 f i GameDesk.obj
 0001:0001ed50       ??1?$vector@UMSG_GR_S_Position_Notice@@V?$allocator@UMSG_GR_S_Position_Notice@@@std@@@std@@QAE@XZ 1001fd50 f i GameDesk.obj
 0001:0001edb0       ?size@?$vector@UMSG_GR_S_Position_Notice@@V?$allocator@UMSG_GR_S_Position_Notice@@@std@@@std@@QBEIXZ 1001fdb0 f i GameDesk.obj
 0001:0001ede0       ??A?$vector@UMSG_GR_S_Position_Notice@@V?$allocator@UMSG_GR_S_Position_Notice@@@std@@@std@@QAEAAUMSG_GR_S_Position_Notice@@I@Z 1001fde0 f i GameDesk.obj
 0001:0001ee00       ?push_back@?$vector@UMSG_GR_S_Position_Notice@@V?$allocator@UMSG_GR_S_Position_Notice@@@std@@@std@@QAEXABUMSG_GR_S_Position_Notice@@@Z 1001fe00 f i GameDesk.obj
 0001:0001ef10       ?clear@?$vector@UMSG_GR_S_Position_Notice@@V?$allocator@UMSG_GR_S_Position_Notice@@@std@@@std@@QAEXXZ 1001ff10 f i GameDesk.obj
 0001:0001ef60       ??E?$_Vector_iterator@V?$_Vector_val@HV?$allocator@H@std@@@std@@@std@@QAE?AV01@H@Z 1001ff60 f i GameDesk.obj
 0001:0001ef90       ??D?$_Vector_iterator@V?$_Vector_val@UMSG_GM_S_ReturnGameInfo@@V?$allocator@UMSG_GM_S_ReturnGameInfo@@@std@@@std@@@std@@QBEAAUMSG_GM_S_ReturnGameInfo@@XZ 1001ff90 f i GameDesk.obj
 0001:0001ef90       ??D?$_Vector_iterator@V?$_Vector_val@UQueueInfo_t@@V?$allocator@UQueueInfo_t@@@std@@@std@@@std@@QBEAAUQueueInfo_t@@XZ 1001ff90 f i AutoAllotDesk.obj
 0001:0001ef90       ??D?$_Vector_iterator@V?$_Vector_val@HV?$allocator@H@std@@@std@@@std@@QBEAAHXZ 1001ff90 f i GameDesk.obj
 0001:0001efb0       ??C?$_Vector_iterator@V?$_Vector_val@UQueueInfo_t@@V?$allocator@UQueueInfo_t@@@std@@@std@@@std@@QBEPAUQueueInfo_t@@XZ 1001ffb0 f i AutoAllotDesk.obj
 0001:0001efb0       ??C?$_Vector_iterator@V?$_Vector_val@UMSG_GM_S_ReturnGameInfo@@V?$allocator@UMSG_GM_S_ReturnGameInfo@@@std@@@std@@@std@@QBEPAUMSG_GM_S_ReturnGameInfo@@XZ 1001ffb0 f i GameDesk.obj
 0001:0001efd0       ??E?$_Vector_iterator@V?$_Vector_val@UMSG_GM_S_ReturnGameInfo@@V?$allocator@UMSG_GM_S_ReturnGameInfo@@@std@@@std@@@std@@QAE?AV01@H@Z 1001ffd0 f i GameDesk.obj
 0001:0001f000       ??9?$_Vector_const_iterator@V?$_Vector_val@PAVCGameUserInfo@@V?$allocator@PAVCGameUserInfo@@@std@@@std@@@std@@QBE_NABV01@@Z 10020000 f i GameMainManage.obj
 0001:0001f000       ??9?$_Vector_const_iterator@V?$_Vector_val@HV?$allocator@H@std@@@std@@@std@@QBE_NABV01@@Z 10020000 f i GameDesk.obj
 0001:0001f000       ??9?$_Vector_const_iterator@V?$_Vector_val@UMSG_GR_S_Position_Notice@@V?$allocator@UMSG_GR_S_Position_Notice@@@std@@@std@@@std@@QBE_NABV01@@Z 10020000 f i GameDesk.obj
 0001:0001f000       ??9?$_Vector_const_iterator@V?$_Vector_val@UMSG_GM_S_ReturnGameInfo@@V?$allocator@UMSG_GM_S_ReturnGameInfo@@@std@@@std@@@std@@QBE_NABV01@@Z 10020000 f i GameDesk.obj
 0001:0001f000       ??9?$_Vector_const_iterator@V?$_Vector_val@UQueueInfo_t@@V?$allocator@UQueueInfo_t@@@std@@@std@@@std@@QBE_NABV01@@Z 10020000 f i AutoAllotDesk.obj
 0001:0001f000       ??9?$_Vector_const_iterator@V?$_Vector_val@IV?$allocator@I@std@@@std@@@std@@QBE_NABV01@@Z 10020000 f i GameMainManage.obj
 0001:0001f000       ??9?$_Vector_const_iterator@V?$_Vector_val@JV?$allocator@J@std@@@std@@@std@@QBE_NABV01@@Z 10020000 f i GameMainManage.obj
 0001:0001f030       ?erase@?$vector@PAVCGameUserInfo@@V?$allocator@PAVCGameUserInfo@@@std@@@std@@QAE?AV?$_Vector_iterator@V?$_Vector_val@PAVCGameUserInfo@@V?$allocator@PAVCGameUserInfo@@@std@@@std@@@2@V?$_Vector_const_iterator@V?$_Vector_val@PAVCGameUserInfo@@V?$allocator@PAVCGameUserInfo@@@std@@@std@@@2@0@Z 10020030 f i GameMainManage.obj
 0001:0001f030       ?erase@?$vector@HV?$allocator@H@std@@@std@@QAE?AV?$_Vector_iterator@V?$_Vector_val@HV?$allocator@H@std@@@std@@@2@V?$_Vector_const_iterator@V?$_Vector_val@HV?$allocator@H@std@@@std@@@2@0@Z 10020030 f i GameDesk.obj
 0001:0001f030       ?erase@?$vector@IV?$allocator@I@std@@@std@@QAE?AV?$_Vector_iterator@V?$_Vector_val@IV?$allocator@I@std@@@std@@@2@V?$_Vector_const_iterator@V?$_Vector_val@IV?$allocator@I@std@@@std@@@2@0@Z 10020030 f i GameMainManage.obj
 0001:0001f030       ?erase@?$vector@JV?$allocator@J@std@@@std@@QAE?AV?$_Vector_iterator@V?$_Vector_val@JV?$allocator@J@std@@@std@@@2@V?$_Vector_const_iterator@V?$_Vector_val@JV?$allocator@J@std@@@std@@@2@0@Z 10020030 f i GameMainManage.obj
 0001:0001f0c0       ?erase@?$vector@UMSG_GM_S_ReturnGameInfo@@V?$allocator@UMSG_GM_S_ReturnGameInfo@@@std@@@std@@QAE?AV?$_Vector_iterator@V?$_Vector_val@UMSG_GM_S_ReturnGameInfo@@V?$allocator@UMSG_GM_S_ReturnGameInfo@@@std@@@std@@@2@V?$_Vector_const_iterator@V?$_Vector_val@UMSG_GM_S_ReturnGameInfo@@V?$allocator@UMSG_GM_S_ReturnGameInfo@@@std@@@std@@@2@0@Z 100200c0 f i GameDesk.obj
 0001:0001f150       ?_Tidy@?$vector@UMSG_GM_S_ReturnGameInfo@@V?$allocator@UMSG_GM_S_ReturnGameInfo@@@std@@@std@@IAEXXZ 10020150 f i GameDesk.obj
 0001:0001f1d0       ??0?$allocator@D@std@@QAE@XZ 100201d0 f i GameDesk.obj
 0001:0001f1d0       ??0?$allocator@UMSG_GM_S_ReturnGameInfo@@@std@@QAE@XZ 100201d0 f i GameDesk.obj
 0001:0001f1d0       ??0CObject@@IAE@XZ         100201d0 f i GameMainManage.obj
 0001:0001f1d0       ??0?$allocator@H@std@@QAE@XZ 100201d0 f i GameDesk.obj
 0001:0001f1d0       ??0?$allocator@J@std@@QAE@XZ 100201d0 f i GameMainManage.obj
 0001:0001f1d0       ??0?$allocator@I@std@@QAE@XZ 100201d0 f i GameMainManage.obj
 0001:0001f1d0       ??0?$allocator@UQueueInfo_t@@@std@@QAE@XZ 100201d0 f i AutoAllotDesk.obj
 0001:0001f1d0       ??0?$allocator@PAVCGameUserInfo@@@std@@QAE@XZ 100201d0 f i GameMainManage.obj
 0001:0001f1d0       ??0?$allocator@UMSG_GR_S_Position_Notice@@@std@@QAE@XZ 100201d0 f i GameDesk.obj
 0001:0001f1f0       ?erase@?$vector@UMSG_GR_S_Position_Notice@@V?$allocator@UMSG_GR_S_Position_Notice@@@std@@@std@@QAE?AV?$_Vector_iterator@V?$_Vector_val@UMSG_GR_S_Position_Notice@@V?$allocator@UMSG_GR_S_Position_Notice@@@std@@@std@@@2@V?$_Vector_const_iterator@V?$_Vector_val@UMSG_GR_S_Position_Notice@@V?$allocator@UMSG_GR_S_Position_Notice@@@std@@@std@@@2@0@Z 100201f0 f i GameDesk.obj
 0001:0001f280       ?_Inside@?$vector@PAVCGameUserInfo@@V?$allocator@PAVCGameUserInfo@@@std@@@std@@IBE_NPBQAVCGameUserInfo@@@Z 10020280 f i GameMainManage.obj
 0001:0001f280       ?_Inside@?$vector@HV?$allocator@H@std@@@std@@IBE_NPBH@Z 10020280 f i GameDesk.obj
 0001:0001f280       ?_Inside@?$vector@UMSG_GR_S_Position_Notice@@V?$allocator@UMSG_GR_S_Position_Notice@@@std@@@std@@IBE_NPBUMSG_GR_S_Position_Notice@@@Z 10020280 f i GameDesk.obj
 0001:0001f280       ?_Inside@?$vector@JV?$allocator@J@std@@@std@@IBE_NPBJ@Z 10020280 f i GameMainManage.obj
 0001:0001f280       ?_Inside@?$vector@UQueueInfo_t@@V?$allocator@UQueueInfo_t@@@std@@@std@@IBE_NPBUQueueInfo_t@@@Z 10020280 f i AutoAllotDesk.obj
 0001:0001f280       ?_Inside@?$vector@UMSG_GM_S_ReturnGameInfo@@V?$allocator@UMSG_GM_S_ReturnGameInfo@@@std@@@std@@IBE_NPBUMSG_GM_S_ReturnGameInfo@@@Z 10020280 f i GameMainManage.obj
 0001:0001f2c0       ?_Reserve@?$vector@UMSG_GR_S_Position_Notice@@V?$allocator@UMSG_GR_S_Position_Notice@@@std@@@std@@IAEXI@Z 100202c0 f i GameDesk.obj
 0001:0001f330       ?_Tidy@?$vector@UMSG_GR_S_Position_Notice@@V?$allocator@UMSG_GR_S_Position_Notice@@@std@@@std@@IAEXXZ 10020330 f i GameDesk.obj
 0001:0001f3b0       ?_Orphan_range@?$vector@JV?$allocator@J@std@@@std@@IBEXPAJ0@Z 100203b0 f i GameMainManage.obj
 0001:0001f3b0       ?_Orphan_range@?$vector@UQueueInfo_t@@V?$allocator@UQueueInfo_t@@@std@@@std@@IBEXPAUQueueInfo_t@@0@Z 100203b0 f i AutoAllotDesk.obj
 0001:0001f3b0       ?_Orphan_range@?$vector@UMSG_GM_S_ReturnGameInfo@@V?$allocator@UMSG_GM_S_ReturnGameInfo@@@std@@@std@@IBEXPAUMSG_GM_S_ReturnGameInfo@@0@Z 100203b0 f i GameMainManage.obj
 0001:0001f3b0       ?_Orphan_range@?$vector@HV?$allocator@H@std@@@std@@IBEXPAH0@Z 100203b0 f i GameDesk.obj
 0001:0001f3b0       ?_Orphan_range@?$vector@UMSG_GR_S_Position_Notice@@V?$allocator@UMSG_GR_S_Position_Notice@@@std@@@std@@IBEXPAUMSG_GR_S_Position_Notice@@0@Z 100203b0 f i GameDesk.obj
 0001:0001f3b0       ?_Orphan_range@?$vector@PAVCGameUserInfo@@V?$allocator@PAVCGameUserInfo@@@std@@@std@@IBEXPAPAVCGameUserInfo@@0@Z 100203b0 f i GameMainManage.obj
 0001:0001f3d0       ??E?$_Vector_iterator@V?$_Vector_val@HV?$allocator@H@std@@@std@@@std@@QAEAAV01@XZ 100203d0 f i GameDesk.obj
 0001:0001f3f0       ??E?$_Vector_iterator@V?$_Vector_val@UMSG_GM_S_ReturnGameInfo@@V?$allocator@UMSG_GM_S_ReturnGameInfo@@@std@@@std@@@std@@QAEAAV01@XZ 100203f0 f i GameDesk.obj
 0001:0001f410       ??D?$_Vector_const_iterator@V?$_Vector_val@UMSG_GM_S_ReturnGameInfo@@V?$allocator@UMSG_GM_S_ReturnGameInfo@@@std@@@std@@@std@@QBEABUMSG_GM_S_ReturnGameInfo@@XZ 10020410 f i GameDesk.obj
 0001:0001f410       ??D?$_Vector_const_iterator@V?$_Vector_val@UQueueInfo_t@@V?$allocator@UQueueInfo_t@@@std@@@std@@@std@@QBEABUQueueInfo_t@@XZ 10020410 f i AutoAllotDesk.obj
 0001:0001f410       ??D?$_Vector_const_iterator@V?$_Vector_val@HV?$allocator@H@std@@@std@@@std@@QBEABHXZ 10020410 f i GameDesk.obj
 0001:0001f430       ??8?$_Vector_const_iterator@V?$_Vector_val@IV?$allocator@I@std@@@std@@@std@@QBE_NABV01@@Z 10020430 f i GameMainManage.obj
 0001:0001f430       ??8?$_Vector_const_iterator@V?$_Vector_val@JV?$allocator@J@std@@@std@@@std@@QBE_NABV01@@Z 10020430 f i GameMainManage.obj
 0001:0001f430       ??8?$_Vector_const_iterator@V?$_Vector_val@UMSG_GR_S_Position_Notice@@V?$allocator@UMSG_GR_S_Position_Notice@@@std@@@std@@@std@@QBE_NABV01@@Z 10020430 f i GameDesk.obj
 0001:0001f430       ??8?$_Vector_const_iterator@V?$_Vector_val@UMSG_GM_S_ReturnGameInfo@@V?$allocator@UMSG_GM_S_ReturnGameInfo@@@std@@@std@@@std@@QBE_NABV01@@Z 10020430 f i GameDesk.obj
 0001:0001f430       ??8?$_Vector_const_iterator@V?$_Vector_val@UQueueInfo_t@@V?$allocator@UQueueInfo_t@@@std@@@std@@@std@@QBE_NABV01@@Z 10020430 f i AutoAllotDesk.obj
 0001:0001f430       ??8?$_Vector_const_iterator@V?$_Vector_val@HV?$allocator@H@std@@@std@@@std@@QBE_NABV01@@Z 10020430 f i GameDesk.obj
 0001:0001f430       ??8?$_Vector_const_iterator@V?$_Vector_val@PAVCGameUserInfo@@V?$allocator@PAVCGameUserInfo@@@std@@@std@@@std@@QBE_NABV01@@Z 10020430 f i GameMainManage.obj
 0001:0001f460       ?_Destroy@?$vector@IV?$allocator@I@std@@@std@@IAEXPAI0@Z 10020460 f i GameMainManage.obj
 0001:0001f460       ?_Destroy@?$vector@PAVCGameUserInfo@@V?$allocator@PAVCGameUserInfo@@@std@@@std@@IAEXPAPAVCGameUserInfo@@0@Z 10020460 f i GameMainManage.obj
 0001:0001f460       ?_Destroy@?$vector@JV?$allocator@J@std@@@std@@IAEXPAJ0@Z 10020460 f i GameMainManage.obj
 0001:0001f460       ?_Destroy@?$vector@HV?$allocator@H@std@@@std@@IAEXPAH0@Z 10020460 f i GameDesk.obj
 0001:0001f490       ?_Destroy@?$vector@UMSG_GM_S_ReturnGameInfo@@V?$allocator@UMSG_GM_S_ReturnGameInfo@@@std@@@std@@IAEXPAUMSG_GM_S_ReturnGameInfo@@0@Z 10020490 f i GameDesk.obj
 0001:0001f4c0       ?reserve@?$vector@UMSG_GR_S_Position_Notice@@V?$allocator@UMSG_GR_S_Position_Notice@@@std@@@std@@QAEXI@Z 100204c0 f i GameDesk.obj
 0001:0001f610       ?capacity@?$vector@UMSG_GR_S_Position_Notice@@V?$allocator@UMSG_GR_S_Position_Notice@@@std@@@std@@QBEIXZ 10020610 f i GameDesk.obj
 0001:0001f640       ?max_size@?$vector@UMSG_GR_S_Position_Notice@@V?$allocator@UMSG_GR_S_Position_Notice@@@std@@@std@@QBEIXZ 10020640 f i GameDesk.obj
 0001:0001f660       ?_Destroy@?$vector@UMSG_GR_S_Position_Notice@@V?$allocator@UMSG_GR_S_Position_Notice@@@std@@@std@@IAEXPAUMSG_GR_S_Position_Notice@@0@Z 10020660 f i GameDesk.obj
 0001:0001f690       ?_Grow_to@?$vector@UMSG_GR_S_Position_Notice@@V?$allocator@UMSG_GR_S_Position_Notice@@@std@@@std@@IBEII@Z 10020690 f i GameDesk.obj
 0001:0001f6f0       ??E?$_Vector_const_iterator@V?$_Vector_val@HV?$allocator@H@std@@@std@@@std@@QAEAAV01@XZ 100206f0 f i GameDesk.obj
 0001:0001f720       ??E?$_Vector_const_iterator@V?$_Vector_val@UMSG_GM_S_ReturnGameInfo@@V?$allocator@UMSG_GM_S_ReturnGameInfo@@@std@@@std@@@std@@QAEAAV01@XZ 10020720 f i GameDesk.obj
 0001:0001f750       ?allocate@?$allocator@UMSG_GR_S_Position_Notice@@@std@@QAEPAUMSG_GR_S_Position_Notice@@I@Z 10020750 f i GameDesk.obj
 0001:0001f780       ?max_size@?$allocator@UMSG_GR_S_Position_Notice@@@std@@QBEIXZ 10020780 f i GameDesk.obj
 0001:0001f7c0       ??$find@V?$_Vector_iterator@V?$_Vector_val@IV?$allocator@I@std@@@std@@@std@@I@std@@YA?AV?$_Vector_iterator@V?$_Vector_val@IV?$allocator@I@std@@@std@@@0@V10@0ABI@Z 100207c0 f i GameMainManage.obj
 0001:0001f7c0       ??$find@V?$_Vector_iterator@V?$_Vector_val@JV?$allocator@J@std@@@std@@@std@@J@std@@YA?AV?$_Vector_iterator@V?$_Vector_val@JV?$allocator@J@std@@@std@@@0@V10@0ABJ@Z 100207c0 f i GameMainManage.obj
 0001:0001f7c0       ??$find@V?$_Vector_iterator@V?$_Vector_val@HV?$allocator@H@std@@@std@@@std@@H@std@@YA?AV?$_Vector_iterator@V?$_Vector_val@HV?$allocator@H@std@@@std@@@0@V10@0ABH@Z 100207c0 f i GameDesk.obj
 0001:0001f810       ??$strcpy_s@$0BE@@@YAHAAY0BE@DPBD@Z 10020810 f i GameDesk.obj
 0001:0001f840       ??$strcpy_s@$0EA@@@YAHAAY0EA@DPBD@Z 10020840 f i GameDesk.obj
 0001:0001f870       ??$sprintf_s@$0BAA@@@YAHAAY0BAA@DPBDZZ 10020870 f i GameDesk.obj
 0001:0001f8a0       ??$_Cons_val@V?$allocator@UMSG_GR_S_Position_Notice@@@std@@UMSG_GR_S_Position_Notice@@ABU3@@std@@YAXAAV?$allocator@UMSG_GR_S_Position_Notice@@@0@PAUMSG_GR_S_Position_Notice@@ABU2@@Z 100208a0 f i GameDesk.obj
 0001:0001f8d0       ??$_Move@PAJPAJ@std@@YAPAJPAJ00@Z 100208d0 f i GameMainManage.obj
 0001:0001f8d0       ??$_Move@PAHPAH@std@@YAPAHPAH00@Z 100208d0 f i GameDesk.obj
 0001:0001f8d0       ??$_Move@PAIPAI@std@@YAPAIPAI00@Z 100208d0 f i GameMainManage.obj
 0001:0001f8d0       ??$_Move@PAPAVCGameUserInfo@@PAPAV1@@std@@YAPAPAVCGameUserInfo@@PAPAV1@00@Z 100208d0 f i GameMainManage.obj
 0001:0001f910       ??$_Move@PAUMSG_GM_S_ReturnGameInfo@@PAU1@@std@@YAPAUMSG_GM_S_ReturnGameInfo@@PAU1@00@Z 10020910 f i GameDesk.obj
 0001:0001f950       ??$_Move@PAUMSG_GR_S_Position_Notice@@PAU1@@std@@YAPAUMSG_GR_S_Position_Notice@@PAU1@00@Z 10020950 f i GameDesk.obj
 0001:0001f990       ??$_Umove@PAH@?$vector@HV?$allocator@H@std@@@std@@IAEPAHPAH00@Z 10020990 f i GameDesk.obj
 0001:0001f990       ??$_Umove@PAJ@?$vector@JV?$allocator@J@std@@@std@@IAEPAJPAJ00@Z 10020990 f i GameMainManage.obj
 0001:0001f990       ??$_Umove@PAPAVCGameUserInfo@@@?$vector@PAVCGameUserInfo@@V?$allocator@PAVCGameUserInfo@@@std@@@std@@IAEPAPAVCGameUserInfo@@PAPAV2@00@Z 10020990 f i GameMainManage.obj
 0001:0001f9c0       ??$_Destroy_range@V?$allocator@H@std@@@std@@YAXPAH0AAV?$allocator@H@0@@Z 100209c0 f i GameDesk.obj
 0001:0001f9c0       ??$_Destroy_range@V?$allocator@J@std@@@std@@YAXPAJ0AAV?$allocator@J@0@@Z 100209c0 f i GameMainManage.obj
 0001:0001f9c0       ??$_Destroy_range@V?$allocator@PAVCGameUserInfo@@@std@@@std@@YAXPAPAVCGameUserInfo@@0AAV?$allocator@PAVCGameUserInfo@@@0@@Z 100209c0 f i GameMainManage.obj
 0001:0001f9c0       ??$_Destroy_range@V?$allocator@I@std@@@std@@YAXPAI0AAV?$allocator@I@0@@Z 100209c0 f i GameMainManage.obj
 0001:0001fa00       ??$_Destroy_range@V?$allocator@UMSG_GM_S_ReturnGameInfo@@@std@@@std@@YAXPAUMSG_GM_S_ReturnGameInfo@@0AAV?$allocator@UMSG_GM_S_ReturnGameInfo@@@0@@Z 10020a00 f i GameDesk.obj
 0001:0001fa40       ??$_Umove@PAUMSG_GR_S_Position_Notice@@@?$vector@UMSG_GR_S_Position_Notice@@V?$allocator@UMSG_GR_S_Position_Notice@@@std@@@std@@IAEPAUMSG_GR_S_Position_Notice@@PAU2@00@Z 10020a40 f i GameDesk.obj
 0001:0001fa70       ??$_Destroy_range@V?$allocator@UMSG_GR_S_Position_Notice@@@std@@@std@@YAXPAUMSG_GR_S_Position_Notice@@0AAV?$allocator@UMSG_GR_S_Position_Notice@@@0@@Z 10020a70 f i GameDesk.obj
 0001:0001fab0       ??$_Allocate@UMSG_GR_S_Position_Notice@@@std@@YAPAUMSG_GR_S_Position_Notice@@IPAU1@@Z 10020ab0 f i GameDesk.obj
 0001:0001fb20       ?construct@?$allocator@PAUFILEINFO@@@std@@QAEXPAPAUFILEINFO@@ABQAU3@@Z 10020b20 f i stdafx.obj
 0001:0001fb20       ?construct@?$allocator@PAVCGameUserInfo@@@std@@QAEXPAPAVCGameUserInfo@@ABQAV3@@Z 10020b20 f i GameMainManage.obj
 0001:0001fb20       ?construct@?$allocator@J@std@@QAEXPAJABJ@Z 10020b20 f i GameMainManage.obj
 0001:0001fb20       ?construct@?$allocator@H@std@@QAEXPAHABH@Z 10020b20 f i GameDesk.obj
 0001:0001fb50       ?construct@?$allocator@UMSG_GR_S_Position_Notice@@@std@@QAEXPAUMSG_GR_S_Position_Notice@@ABU3@@Z 10020b50 f i GameDesk.obj
 0001:0001fb80       ??$_Find@PAHH@std@@YAPAHPAH0ABH@Z 10020b80 f i GameDesk.obj
 0001:0001fb80       ??$_Find@PAII@std@@YAPAIPAI0ABI@Z 10020b80 f i GameMainManage.obj
 0001:0001fb80       ??$_Find@PAJJ@std@@YAPAJPAJ0ABJ@Z 10020b80 f i GameMainManage.obj
 0001:0001fbc0       ??$_Move@PAHPAH@std@@YAPAHPAH00U_Scalar_ptr_iterator_tag@0@@Z 10020bc0 f i GameDesk.obj
 0001:0001fbc0       ??$_Move@PAJPAJ@std@@YAPAJPAJ00U_Scalar_ptr_iterator_tag@0@@Z 10020bc0 f i GameMainManage.obj
 0001:0001fbc0       ??$_Move@PAIPAI@std@@YAPAIPAI00U_Scalar_ptr_iterator_tag@0@@Z 10020bc0 f i GameMainManage.obj
 0001:0001fbc0       ??$_Move@PAPAVCGameUserInfo@@PAPAV1@@std@@YAPAPAVCGameUserInfo@@PAPAV1@00U_Scalar_ptr_iterator_tag@0@@Z 10020bc0 f i GameMainManage.obj
 0001:0001fc00       ??$_Move@PAUMSG_GM_S_ReturnGameInfo@@PAU1@@std@@YAPAUMSG_GM_S_ReturnGameInfo@@PAU1@00U_Nonscalar_ptr_iterator_tag@0@@Z 10020c00 f i GameDesk.obj
 0001:0001fc50       ??$_Move@PAUMSG_GR_S_Position_Notice@@PAU1@@std@@YAPAUMSG_GR_S_Position_Notice@@PAU1@00U_Nonscalar_ptr_iterator_tag@0@@Z 10020c50 f i GameDesk.obj
 0001:0001fcb0       ??$_Uninitialized_move@PAPAVCGameUserInfo@@PAPAV1@V?$allocator@PAVCGameUserInfo@@@std@@@std@@YAPAPAVCGameUserInfo@@PAPAV1@00AAV?$allocator@PAVCGameUserInfo@@@0@@Z 10020cb0 f i GameMainManage.obj
 0001:0001fcb0       ??$_Uninitialized_move@PAJPAJV?$allocator@J@std@@@std@@YAPAJPAJ00AAV?$allocator@J@0@@Z 10020cb0 f i GameMainManage.obj
 0001:0001fcb0       ??$_Uninitialized_move@PAHPAHV?$allocator@H@std@@@std@@YAPAHPAH00AAV?$allocator@H@0@@Z 10020cb0 f i GameDesk.obj
 0001:0001fd00       ??$_Destroy_range@V?$allocator@UMSG_GM_S_ReturnGameInfo@@@std@@@std@@YAXPAUMSG_GM_S_ReturnGameInfo@@0AAV?$allocator@UMSG_GM_S_ReturnGameInfo@@@0@U_Nonscalar_ptr_iterator_tag@0@@Z 10020d00 f i GameDesk.obj
 0001:0001fd40       ??$_Uninitialized_move@PAUMSG_GR_S_Position_Notice@@PAU1@V?$allocator@UMSG_GR_S_Position_Notice@@@std@@@std@@YAPAUMSG_GR_S_Position_Notice@@PAU1@00AAV?$allocator@UMSG_GR_S_Position_Notice@@@0@@Z 10020d40 f i GameDesk.obj
 0001:0001fd90       ??$_Destroy_range@V?$allocator@UMSG_GR_S_Position_Notice@@@std@@@std@@YAXPAUMSG_GR_S_Position_Notice@@0AAV?$allocator@UMSG_GR_S_Position_Notice@@@0@U_Nonscalar_ptr_iterator_tag@0@@Z 10020d90 f i GameDesk.obj
 0001:0001fdd0       ??$_Construct@HABH@std@@YAXPAHABH@Z 10020dd0 f i GameDesk.obj
 0001:0001fdd0       ??$_Construct@PAVCGameUserInfo@@ABQAV1@@std@@YAXPAPAVCGameUserInfo@@ABQAV1@@Z 10020dd0 f i GameMainManage.obj
 0001:0001fdd0       ??$_Construct@JABJ@std@@YAXPAJABJ@Z 10020dd0 f i GameMainManage.obj
 0001:0001fdd0       ??$_Construct@PAUFILEINFO@@ABQAU1@@std@@YAXPAPAUFILEINFO@@ABQAU1@@Z 10020dd0 f i stdafx.obj
 0001:0001fe60       ??$_Construct@UMSG_GR_S_Position_Notice@@ABU1@@std@@YAXPAUMSG_GR_S_Position_Notice@@ABU1@@Z 10020e60 f i GameDesk.obj
 0001:0001ff10       ??0CHandleMSMessage@@QAE@PAVCWnd@@@Z 10020f10 f i HNHandleMSMessage.obj
 0001:0001ff10       ?_Rechecked@?$_Vector_iterator@V?$_Vector_val@IV?$allocator@I@std@@@std@@@std@@QAEAAV12@PAI@Z 10020f10 f i GameMainManage.obj
 0001:0001ff10       ?_Rechecked@?$_Vector_iterator@V?$_Vector_val@UMSG_GM_S_ReturnGameInfo@@V?$allocator@UMSG_GM_S_ReturnGameInfo@@@std@@@std@@@std@@QAEAAV12@PAUMSG_GM_S_ReturnGameInfo@@@Z 10020f10 f i GameMainManage.obj
 0001:0001ff10       ?_Rechecked@?$_Vector_iterator@V?$_Vector_val@JV?$allocator@J@std@@@std@@@std@@QAEAAV12@PAJ@Z 10020f10 f i GameMainManage.obj
 0001:0001ff10       ??0CBankService@@QAE@PAVCWnd@@@Z 10020f10 f i BankService.obj
 0001:0001ff10       ?_Rechecked@?$_Vector_iterator@V?$_Vector_val@HV?$allocator@H@std@@@std@@@std@@QAEAAV12@PAH@Z 10020f10 f i GameDesk.obj
 0001:0001ff10       ??0CPropService@@QAE@PAVCWnd@@@Z 10020f10 f i PropService.obj
 0001:0001ff30       ??$_Uninit_move@PAVCGameUserInfo@@PAV1@PAV1@@std@@YAPAPAVCGameUserInfo@@PAPAV1@00AAV?$allocator@PAVCGameUserInfo@@@0@0U_Scalar_ptr_iterator_tag@0@@Z 10020f30 f i GameMainManage.obj
 0001:0001ff30       ??$_Uninit_move@JJJ@std@@YAPAJPAJ00AAV?$allocator@J@0@0U_Scalar_ptr_iterator_tag@0@@Z 10020f30 f i GameMainManage.obj
 0001:0001ff30       ??$_Uninit_move@HHH@std@@YAPAHPAH00AAV?$allocator@H@0@0U_Scalar_ptr_iterator_tag@0@@Z 10020f30 f i GameDesk.obj
 0001:0001ff70       ??$_Dest_val@V?$allocator@UQueueInfo_t@@@std@@UQueueInfo_t@@@std@@YAXAAV?$allocator@UQueueInfo_t@@@0@PAUQueueInfo_t@@@Z 10020f70 f i AutoAllotDesk.obj
 0001:0001ff70       ??$_Dest_val@V?$allocator@U_Node@?$_List_nod@PAUFILEINFO@@V?$allocator@PAUFILEINFO@@@std@@@std@@@std@@U_Node@?$_List_nod@PAUFILEINFO@@V?$allocator@PAUFILEINFO@@@std@@@2@@std@@YAXAAV?$allocator@U_Node@?$_List_nod@PAUFILEINFO@@V?$allocator@PAUFILEINFO@@@std@@@std@@@0@PAU_Node@?$_List_nod@PAUFILEINFO@@V?$allocator@PAUFILEINFO@@@std@@@0@@Z 10020f70 f i stdafx.obj
 0001:0001ff70       ??$_Dest_val@V?$allocator@U_Node@?$_List_nod@PAVCGameUserInfo@@V?$allocator@PAVCGameUserInfo@@@std@@@std@@@std@@U_Node@?$_List_nod@PAVCGameUserInfo@@V?$allocator@PAVCGameUserInfo@@@std@@@2@@std@@YAXAAV?$allocator@U_Node@?$_List_nod@PAVCGameUserInfo@@V?$allocator@PAVCGameUserInfo@@@std@@@std@@@0@PAU_Node@?$_List_nod@PAVCGameUserInfo@@V?$allocator@PAVCGameUserInfo@@@std@@@0@@Z 10020f70 f i GameMainManage.obj
 0001:0001ff70       ??$_Dest_val@V?$allocator@UMSG_GR_S_Position_Notice@@@std@@UMSG_GR_S_Position_Notice@@@std@@YAXAAV?$allocator@UMSG_GR_S_Position_Notice@@@0@PAUMSG_GR_S_Position_Notice@@@Z 10020f70 f i GameDesk.obj
 0001:0001ff70       ??$_Dest_val@V?$allocator@UMSG_GM_S_ReturnGameInfo@@@std@@UMSG_GM_S_ReturnGameInfo@@@std@@YAXAAV?$allocator@UMSG_GM_S_ReturnGameInfo@@@0@PAUMSG_GM_S_ReturnGameInfo@@@Z 10020f70 f i GameDesk.obj
 0001:0001ff90       ??$_Uninit_move@PAUMSG_GR_S_Position_Notice@@PAU1@V?$allocator@UMSG_GR_S_Position_Notice@@@std@@U1@@std@@YAPAUMSG_GR_S_Position_Notice@@PAU1@00AAV?$allocator@UMSG_GR_S_Position_Notice@@@0@0U_Nonscalar_ptr_iterator_tag@0@@Z 10020f90 f i GameDesk.obj
 0001:00020060       ?destroy@?$allocator@U_Node@?$_List_nod@PAVCGameUserInfo@@V?$allocator@PAVCGameUserInfo@@@std@@@std@@@std@@QAEXPAU_Node@?$_List_nod@PAVCGameUserInfo@@V?$allocator@PAVCGameUserInfo@@@std@@@2@@Z 10021060 f i GameMainManage.obj
 0001:00020060       ?destroy@?$allocator@UMSG_GR_S_Position_Notice@@@std@@QAEXPAUMSG_GR_S_Position_Notice@@@Z 10021060 f i GameDesk.obj
 0001:00020060       ?destroy@?$allocator@UMSG_GM_S_ReturnGameInfo@@@std@@QAEXPAUMSG_GM_S_ReturnGameInfo@@@Z 10021060 f i GameDesk.obj
 0001:00020060       ?destroy@?$allocator@UQueueInfo_t@@@std@@QAEXPAUQueueInfo_t@@@Z 10021060 f i AutoAllotDesk.obj
 0001:00020060       ?destroy@?$allocator@U_Node@?$_List_nod@PAUFILEINFO@@V?$allocator@PAUFILEINFO@@@std@@@std@@@std@@QAEXPAU_Node@?$_List_nod@PAUFILEINFO@@V?$allocator@PAUFILEINFO@@@std@@@2@@Z 10021060 f i stdafx.obj
 0001:00020090       ??$_Cons_val@V?$allocator@UMSG_GR_S_Position_Notice@@@std@@UMSG_GR_S_Position_Notice@@AAU3@@std@@YAXAAV?$allocator@UMSG_GR_S_Position_Notice@@@0@PAUMSG_GR_S_Position_Notice@@AAU2@@Z 10021090 f i GameDesk.obj
 0001:00020090       ??$_Cons_val@V?$allocator@UMSG_GR_S_Position_Notice@@@std@@UMSG_GR_S_Position_Notice@@U3@@std@@YAXAAV?$allocator@UMSG_GR_S_Position_Notice@@@0@PAUMSG_GR_S_Position_Notice@@$$QAU2@@Z 10021090 f i GameDesk.obj
 0001:000200c0       ?construct@?$allocator@UMSG_GR_S_Position_Notice@@@std@@QAEXPAUMSG_GR_S_Position_Notice@@$$QAU3@@Z 100210c0 f i GameDesk.obj
 0001:000200c0       ??$construct@AAUMSG_GR_S_Position_Notice@@@?$allocator@UMSG_GR_S_Position_Notice@@@std@@QAEXPAUMSG_GR_S_Position_Notice@@AAU2@@Z 100210c0 f i GameDesk.obj
 0001:00020160       ??0COleDateTimeSpan@ATL@@QAE@JHHH@Z 10021160 f i GameDesk.obj
 0001:00020190       ?GetTotalSeconds@COleDateTimeSpan@ATL@@QBENXZ 10021190 f i GameDesk.obj
 0001:000201f0       ?SetDateTimeSpan@COleDateTimeSpan@ATL@@QAEXJHHH@Z 100211f0 f i GameDesk.obj
 0001:00020240       ?CheckRange@COleDateTimeSpan@ATL@@QAEXXZ 10021240 f i GameDesk.obj
 0001:00020290       ?GetTickCount@COleDateTime@ATL@@SG?AV12@XZ 10021290 f i GameDesk.obj
 0001:000202c0       ??0COleDateTime@ATL@@QAE@_J@Z 100212c0 f i GameDesk.obj
 0001:00020300       ??4COleDateTime@ATL@@QAEAAV01@AB_J@Z 10021300 f i GameDesk.obj
 0001:00020380       ?GetAsSystemTime@CTime@ATL@@QBE_NAAU_SYSTEMTIME@@@Z 10021380 f i GameDesk.obj
 0001:00020440       ?GetLocalTm@CTime@ATL@@QBEPAUtm@@PAU3@@Z 10021440 f i GameDesk.obj
 0001:000204d0       ?ConvertSystemTimeToVariantTime@COleDateTime@ATL@@IAEHABU_SYSTEMTIME@@@Z 100214d0 f i GameDesk.obj
 0001:00020500       ?AtlConvertSystemTimeToVariantTime@ATL@@YAHABU_SYSTEMTIME@@PAN@Z 10021500 f i GameDesk.obj
 0001:00020620       ??HCOleDateTime@ATL@@QBE?AV01@VCOleDateTimeSpan@1@@Z 10021620 f i GameDesk.obj
 0001:00020670       ??BCOleDateTimeSpan@ATL@@QBENXZ 10021670 f i GameDesk.obj
 0001:00020690       ??0COleDateTime@ATL@@QAE@N@Z 10021690 f i GameDesk.obj
 0001:000206c0       ??GCOleDateTime@ATL@@QBE?AVCOleDateTimeSpan@1@ABV01@@Z 100216c0 f i GameDesk.obj
 0001:00020710       ??0COleDateTimeSpan@ATL@@QAE@N@Z 10021710 f i GameDesk.obj
 0001:00020750       ?DoubleFromDate@COleDateTime@ATL@@KGNN@Z 10021750 f i GameDesk.obj
 0001:000207a0       ?DateFromDouble@COleDateTime@ATL@@KGNN@Z 100217a0 f i GameDesk.obj
 0001:000207f0       ?GetKeyVal@CINIFile@@QAEHV?$CStringT@DV?$StrTraitMFC_DLL@DV?$ChTraitsCRT@D@ATL@@@@@ATL@@0H@Z 100217f0 f i GameDesk.obj
 0001:00020850       ??0?$basic_string@DU?$char_traits@D@std@@V?$allocator@D@2@@std@@QAE@XZ 10021850 f i GameDesk.obj
 0001:000208c0       ??0?$basic_string@DU?$char_traits@D@std@@V?$allocator@D@2@@std@@QAE@PBD@Z 100218c0 f i GameDesk.obj
 0001:00020940       ?c_str@?$basic_string@DU?$char_traits@D@std@@V?$allocator@D@2@@std@@QBEPBDXZ 10021940 f i GameDesk.obj
 0001:00020960       ?assign@?$basic_string@DU?$char_traits@D@std@@V?$allocator@D@2@@std@@QAEAAV12@PBD@Z 10021960 f i GameDesk.obj
 0001:00020990       ?length@?$char_traits@D@std@@SAIPBD@Z 10021990 f i GameDesk.obj
 0001:000209b0       ?assign@?$basic_string@DU?$char_traits@D@std@@V?$allocator@D@2@@std@@QAEAAV12@PBDI@Z 100219b0 f i GameDesk.obj
 0001:00020a40       ?_Inside@?$basic_string@DU?$char_traits@D@std@@V?$allocator@D@2@@std@@QAE_NPBD@Z 10021a40 f i GameDesk.obj
 0001:00020a90       ??_ECGameMainManage@@UAEPAXI@Z 10021a90 f i GameMainManage.obj
 0001:00020b10       ??0CGameMainManage@@QAE@XZ 10021b10 f   GameMainManage.obj
 0001:00020ea0       ??1CGameMainManage@@UAE@XZ 10021ea0 f   GameMainManage.obj
 0001:000211e0       ??_GCHandleMSMessage@@QAEPAXI@Z 100221e0 f i GameMainManage.obj
 0001:000211e0       ??_GCBankService@@QAEPAXI@Z 100221e0 f i GameMainManage.obj
 0001:000211e0       ??_GCPropService@@QAEPAXI@Z 100221e0 f i GameMainManage.obj
 0001:00021220       ?OnInit@CGameMainManage@@EAE_NPAUManageInfoStruct@@PAUKernelInfoStruct@@@Z 10022220 f   GameMainManage.obj
 0001:00021780       ?OnUnInit@CGameMainManage@@EAE_NXZ 10022780 f   GameMainManage.obj
 0001:00021ab0       ??_GCMainServerSocket@@QAEPAXI@Z 10022ab0 f i GameMainManage.obj
 0001:00021af0       ?OnStart@CGameMainManage@@EAE_NXZ 10022af0 f   GameMainManage.obj
 0001:00021e80       ?StopTimer@CGameMainManage@@UAE_NXZ 10022e80 f   GameMainManage.obj
 0001:00021ec0       ?OnStop@CGameMainManage@@EAE_NXZ 10022ec0 f   GameMainManage.obj
 0001:00021f80       ?UpdateDeskInfo@CGameMainManage@@QAEXXZ 10022f80 f   GameMainManage.obj
 0001:00021fe0       ?OnGMSocketMessage@CGameMainManage@@AAE_NPAUNetMessageHead@@PAXIKIK@Z 10022fe0 f   GameMainManage.obj
 0001:00022380       ??YCTime@ATL@@QAEAAV01@VCTimeSpan@1@@Z 10023380 f i GameMainManage.obj
 0001:000223b0       ?GetTime@CTime@ATL@@QBE_JXZ 100233b0 f i AutoAllotDesk.obj
 0001:000223b0       ?GetTimeSpan@CTimeSpan@ATL@@QBE_JXZ 100233b0 f i GameMainManage.obj
 0001:000223d0       ?OnSocketRead@CGameMainManage@@EAE_NPAUNetMessageHead@@PAXIKIK@Z 100233d0 f   GameMainManage.obj
 0001:00022d30       ?OnUserActionMessage@CGameMainManage@@AAE_NPAUNetMessageHead@@PAXIKIK@Z 10023d30 f   GameMainManage.obj
 0001:000236d0       ?OnAboutMoney@CGameMainManage@@AAE_NPAUNetMessageHead@@PAXIKIK@Z 100246d0 f   GameMainManage.obj
 0001:00025010       ??0DL_GR_I_TransferMoney@@QAE@XZ 10026010 f i GameMainManage.obj
 0001:00025040       ??0DL_GR_I_ChangePasswd_t@@QAE@XZ 10026040 f i GameMainManage.obj
 0001:00025070       ??0MSG_GR_S_ChangePasswd_t@@QAE@XZ 10026070 f i GameMainManage.obj
 0001:000250a0       ?OnUserSetRebateRequest@CGameMainManage@@AAE_NPAXIIK@Z 100260a0 f   GameMainManage.obj
 0001:00025110       ?TransferIDCompare@CGameMainManage@@SAHJJJJ@Z 10026110 f   GameMainManage.obj
 0001:000256e0       ?GetIDInformation@CGameMainManage@@SAHJJJ@Z 100266e0 f   GameMainManage.obj
 0001:00025870       ?GetGameDesk@CGameMainManage@@QAEPBVCGameDesk@@E@Z 10026870 f   GameMainManage.obj
 0001:000258c0       ?PrintUsersLog@CGameMainManage@@AAEXXZ 100268c0 f   GameMainManage.obj
 0001:000260b0       ?Writeline@CGameMainManage@@CA_NPAVCFile@@V?$CStringT@DV?$StrTraitMFC_DLL@DV?$ChTraitsCRT@D@ATL@@@@@ATL@@@Z 100270b0 f   GameMainManage.obj
 0001:00026160       ?OnManageMessage@CGameMainManage@@AAE_NPAUNetMessageHead@@PAXIKIK@Z 10027160 f   GameMainManage.obj
 0001:00027b70       ?SendRoomPondUpData@CGameMainManage@@QAEX_J@Z 10028b70 f   GameMainManage.obj
 0001:00027c60       ??0MSG_GR_GRM_UpData@@QAE@XZ 10028c60 f i GameMainManage.obj
 0001:00027c90       ?SendRoomPondUpDataALL@CGameMainManage@@QAEXXZ 10028c90 f   GameMainManage.obj
 0001:000286f0       ?OnPointMessage@CGameMainManage@@AAE_NPAUNetMessageHead@@PAXIKIK@Z 100296f0 f   GameMainManage.obj
 0001:00028790       ?OnFriendManageMsg@CGameMainManage@@AAE_NPAUNetMessageHead@@PAXIKIK@Z 10029790 f   GameMainManage.obj
 0001:000287d0       ?OnQueueMsg@CGameMainManage@@AAE_NPAUNetMessageHead@@PAXIKIK@Z 100297d0 f   GameMainManage.obj
 0001:00028830       ?IsContestGameOver@CGameMainManage@@AAE_NXZ 10029830 f   GameMainManage.obj
 0001:000289d0       ?IsLeaseTimeOver@CGameMainManage@@QAE_NXZ 100299d0 f   GameMainManage.obj
 0001:00028a30       ?queuerGame@CGameMainManage@@AAEXXZ 10029a30 f   GameMainManage.obj
 0001:000290c0       ?OnRoomMessage@CGameMainManage@@AAE_NPAUNetMessageHead@@PAXIKIK@Z 1002a0c0 f   GameMainManage.obj
 0001:000298b0       ??0DL_GR_I_GetNickNameOnID@@QAE@XZ 1002a8b0 f i GameMainManage.obj
 0001:000298e0       ??0MSG_GR_S_GetNickNameOnID_t@@QAE@XZ 1002a8e0 f i GameMainManage.obj
 0001:00029910       ?OnUserLogonMessage@CGameMainManage@@AAE_NPAUNetMessageHead@@PAXIKIK@Z 1002a910 f   GameMainManage.obj
 0001:00029d90       ?IsExistGRMRoom@CGameMainManage@@QAE_NI@Z 1002ad90 f   GameMainManage.obj
 0001:00029e30       ?IsExistGRMUserID@CGameMainManage@@QAE_NJ@Z 1002ae30 f   GameMainManage.obj
 0001:00029ed0       ?UserLeftDesk@CGameMainManage@@AAE_NPAVCGameUserInfo@@_N@Z 1002aed0 f   GameMainManage.obj
 0001:0002a0e0       ?IsUserPlayGame@CGameMainManage@@AAE_NPAVCGameUserInfo@@@Z 1002b0e0 f   GameMainManage.obj
 0001:0002a1a0       ?IsUserPlayGameByStation@CGameMainManage@@AAE_NPAVCGameUserInfo@@@Z 1002b1a0 f   GameMainManage.obj
 0001:0002a250       ?IsLimitedTalk@CGameMainManage@@AAE_NPAVCGameUserInfo@@_N@Z 1002b250 f   GameMainManage.obj
 0001:0002a310       ?OnSocketClose@CGameMainManage@@EAE_NKIJ@Z 1002b310 f   GameMainManage.obj
 0001:0002a670       ?OnDataBaseResult@CGameMainManage@@EAE_NPAUDataBaseResultLine@@@Z 1002b670 f   GameMainManage.obj
 0001:0002aae0       ?GetDeskObject@CGameMainManage@@UAEPAVCGameDesk@@E@Z 1002bae0 f   GameMainManage.obj
 0001:0002ab10       ?OnBattleRoomRecord@CGameMainManage@@AAE_NPAUDataBaseResultLine@@@Z 1002bb10 f   GameMainManage.obj
 0001:0002ab70       ?CleanUserInfo@CGameMainManage@@AAE_NPAVCGameUserInfo@@@Z 1002bb70 f   GameMainManage.obj
 0001:0002aca0       ?SendRoomMessage@CGameMainManage@@AAE_NIKPADEEE@Z 1002bca0 f   GameMainManage.obj
 0001:0002ada0       ?SendGameMessage@CGameMainManage@@AAE_NIKPADEEE@Z 1002bda0 f   GameMainManage.obj
 0001:0002aeb0       ?SendMatchInfo@CGameMainManage@@AAE_NIK@Z 1002beb0 f   GameMainManage.obj
 0001:0002af70       ?SendRoomInfo@CGameMainManage@@AAE_NPAVCGameUserInfo@@IKPAUDL_GR_O_LogonResult@@_N@Z 1002bf70 f   GameMainManage.obj
 0001:0002b4c0       ??0MSG_GR_R_LogonResult@@QAE@XZ 1002c4c0 f i GameMainManage.obj
 0001:0002b500       ??0MSG_GR_R_UserCome@@QAE@XZ 1002c500 f i GameMainManage.obj
 0001:0002b520       ?OnCheckConnect@CGameMainManage@@AAE_NPAUDataBaseResultLine@@@Z 1002c520 f   GameMainManage.obj
 0001:0002b560       ?OnRoomLogonResult@CGameMainManage@@AAE_NPAUDataBaseResultLine@@@Z 1002c560 f   GameMainManage.obj
 0001:0002bd30       ??0<lambda0>@?A0x052a31a2@@QAE@ABQAUDL_GR_O_LogonResult@@@Z 1002cd30 f i GameMainManage.obj
 0001:0002bd60       ?OnGetNickNameOnIDResult@CGameMainManage@@AAE_NPAUDataBaseResultLine@@@Z 1002cd60 f   GameMainManage.obj
 0001:0002be90       ?OnUseKickPropResult@CGameMainManage@@AAE_NPAUDataBaseResultLine@@H@Z 1002ce90 f   GameMainManage.obj
 0001:0002bf70       ?OnNewKickUserPropResult@CGameMainManage@@AAE_NPAUDataBaseResultLine@@@Z 1002cf70 f   GameMainManage.obj
 0001:0002c150       ?OnNewKickUserProp@CGameMainManage@@AAE_NPAUNetMessageHead@@PAXIKIK@Z 1002d150 f   GameMainManage.obj
 0001:0002c220       ?OnAboutMoneyResult@CGameMainManage@@AAE_NPAUDataBaseResultLine@@I@Z 1002d220 f   GameMainManage.obj
 0001:0002c370       ?OnGetBankRebateResponse@CGameMainManage@@AAE_NPAUDataBaseResultLine@@@Z 1002d370 f   GameMainManage.obj
 0001:0002c3a0       ?OnGetBankUserRebateResponse@CGameMainManage@@AAE_NPAUDataBaseResultLine@@I@Z 1002d3a0 f   GameMainManage.obj
 0001:0002c430       ?OnGetBankUserSetRebateResponse@CGameMainManage@@AAE_NPAUDataBaseResultLine@@I@Z 1002d430 f   GameMainManage.obj
 0001:0002c550       ?OnCheckInMoney@CGameMainManage@@AAE_NPAUDataBaseResultLine@@I@Z 1002d550 f   GameMainManage.obj
 0001:0002c750       ?OnCheckOutMoney@CGameMainManage@@AAE_NPAUDataBaseResultLine@@I@Z 1002d750 f   GameMainManage.obj
 0001:0002c950       ?OnTransferRecord@CGameMainManage@@AAE_NPAUDataBaseResultLine@@I@Z 1002d950 f   GameMainManage.obj
 0001:0002ca60       ?OnChangePasswd@CGameMainManage@@AAE_NPAUDataBaseResultLine@@I@Z 1002da60 f   GameMainManage.obj
 0001:0002cb30       ?OnTransferMoney@CGameMainManage@@AAE_NPAUDataBaseResultLine@@I@Z 1002db30 f   GameMainManage.obj
 0001:0002d060       ?OnFriendManageDBOperateResult@CGameMainManage@@AAE_NPAUDataBaseResultLine@@@Z 1002e060 f   GameMainManage.obj
 0001:0002d060       ?SendUserMoenyByTimesResult@CGameMainManage@@AAE_NPAUDataBaseResultLine@@@Z 1002e060 f   GameMainManage.obj
 0001:0002d060       ?OnBufferIMMessageDBOperateResult@CGameMainManage@@AAE_NPAUDataBaseResultLine@@@Z 1002e060 f   GameMainManage.obj
 0001:0002d080       ?OnGetContestApplyResult@CGameMainManage@@AAE_NPAUDataBaseResultLine@@@Z 1002e080 f   GameMainManage.obj
 0001:0002d120       ?OnGetContestAbandonResult@CGameMainManage@@AAE_NPAUDataBaseResultLine@@@Z 1002e120 f   GameMainManage.obj
 0001:0002d240       ?OnBroadCastConstestInfo@CGameMainManage@@AAE_NPAUDataBaseResultLine@@@Z 1002e240 f   GameMainManage.obj
 0001:0002d2a0       ?RandRank@CGameMainManage@@QAE_NPAHH@Z 1002e2a0 f   GameMainManage.obj
 0001:0002d370       ?OnGetContestBeginResult@CGameMainManage@@AAE_NPAUDataBaseResultLine@@@Z 1002e370 f   GameMainManage.obj
 0001:0002d610       ?OnGetContestGameOverResult@CGameMainManage@@AAE_NPAUDataBaseResultLine@@@Z 1002e610 f   GameMainManage.obj
 0001:0002d760       ?OnGetContestRankResult@CGameMainManage@@AAE_NPAUDataBaseResultLine@@@Z 1002e760 f   GameMainManage.obj
 0001:0002d840       ?OnPropChangeResult@CGameMainManage@@AAE_NPAUDataBaseResultLine@@@Z 1002e840 f   GameMainManage.obj
 0001:0002d930       ?OnCallGMResult@CGameMainManage@@AAE_NPAUDataBaseResultLine@@@Z 1002e930 f   GameMainManage.obj
 0001:0002da00       ?OnTimerMessage@CGameMainManage@@EAE_NI@Z 1002ea00 f   GameMainManage.obj
 0001:0002de60       ?OnTimerMessageForUpdateToOtherServer@CGameMainManage@@QAE_NI@Z 1002ee60 f   GameMainManage.obj
 0001:0002deb0       ?IsQueueGameRoom@CGameMainManage@@QAE_NXZ 1002eeb0 f   GameMainManage.obj
 0001:0002df00       ?InitGameDesk@CGameMainManage@@AAE_NII@Z 1002ef00 f   GameMainManage.obj
 0001:0002e2a0       ?CreateAutoAllotDesk@CGameMainManage@@UAEPAUIAutoAllotDesk@@HH@Z 1002f2a0 f   GameMainManage.obj
 0001:0002e340       ?AutoAllotDeskAddUser@CGameMainManage@@UAEHPAVCGameUserInfo@@@Z 1002f340 f   GameMainManage.obj
 0001:0002e380       ?AutoAllotDeskDeleteUser@CGameMainManage@@UAEHPAVCGameUserInfo@@@Z 1002f380 f   GameMainManage.obj
 0001:0002e3c0       ?AutoAllotDeskDeleteAll@CGameMainManage@@UAEHXZ 1002f3c0 f   GameMainManage.obj
 0001:0002e400       ?NewQueueGame@CGameMainManage@@QAEXXZ 1002f400 f   GameMainManage.obj
 0001:0002ea00       ?OnStartTimingMatchTimer@CGameMainManage@@QAEXVCOleDateTime@ATL@@@Z 1002fa00 f   GameMainManage.obj
 0001:0002ec20       ?OnBeforeMatchBeginInfo@CGameMainManage@@QAEXXZ 1002fc20 f   GameMainManage.obj
 0001:0002ec70       ?OnFindBuyDeskStationResult@CGameMainManage@@QAE_NPAUDataBaseResultLine@@@Z 1002fc70 f   GameMainManage.obj
 0001:0002ef00       ??0DL_GR_I_MidCostJewel@@QAE@XZ 1002ff00 f i GameMainManage.obj
 0001:0002ef00       ??0DL_GR_I_CREATE_GAMESN@@QAE@XZ 1002ff00 f i GameDesk.obj
 0001:0002ef00       ??0DL_GR_I_ReturnDesk@@QAE@XZ 1002ff00 f i GameMainManage.obj
 0001:0002ef00       ??0DL_GR_I_GET_GAMEINFO@@QAE@XZ 1002ff00 f i GameMainManage.obj
 0001:0002ef30       ?OnGetDeskInfo@CGameMainManage@@QAE_NPAUDataBaseResultLine@@@Z 1002ff30 f   GameMainManage.obj
 0001:0002f320       ?OnReturnDeskResult@CGameMainManage@@QAE_NPAUDataBaseResultLine@@@Z 10030320 f   GameMainManage.obj
 0001:0002f4e0       ??0MSG_GM_S_ReturnGameInfo@@QAE@XZ 100304e0 f i GameMainManage.obj
 0001:0002f510       ?OnCreateGameSNResult@CGameMainManage@@QAE_NPAUDataBaseResultLine@@@Z 10030510 f   GameMainManage.obj
 0001:0002f5a0       ?OnSetReturnGameInfo@CGameMainManage@@QAE_NPAUDataBaseResultLine@@@Z 100305a0 f   GameMainManage.obj
 0001:0002f630       ?OnContestRegistResult@CGameMainManage@@QAE_NPAUDataBaseResultLine@@@Z 10030630 f   GameMainManage.obj
 0001:0002f680       ?OnContestActiveResult@CGameMainManage@@QAE_NPAUDataBaseResultLine@@@Z 10030680 f   GameMainManage.obj
 0001:0002f700       ?OnUserAction_FastSit@CGameMainManage@@AAE_NPAUNetMessageHead@@PAXIKIK@Z 10030700 f   GameMainManage.obj
 0001:0002fca0       ?OnUserAction_ChangeDesk@CGameMainManage@@AAE_NPAUNetMessageHead@@PAXIKIK@Z 10030ca0 f   GameMainManage.obj
 0001:000300b0       ?OnGetDeskUserInfo@CGameMainManage@@AAE_NPAUNetMessageHead@@PAXIKIK@Z 100310b0 f   GameMainManage.obj
 0001:00030360       ??0MSG_GR_O_GetDeskUserInfo@@QAE@XZ 10031360 f i GameMainManage.obj
 0001:000303a0       ?SendErrorUserSit@CGameMainManage@@QAEXIIK@Z 100313a0 f   GameMainManage.obj
 0001:00030440       ?OnVoiceInfo@CGameMainManage@@AAE_NPAUNetMessageHead@@PAXIKIK@Z 10031440 f   GameMainManage.obj
 0001:000304a0       ?OnDeskDissmiss@CGameMainManage@@AAE_NPAUNetMessageHead@@PAXIKIK@Z 100314a0 f   GameMainManage.obj
 0001:000310a0       ??0VipDeskRunOut@@QAE@XZ   100320a0 f i GameMainManage.obj
 0001:000310d0       ??0VipDeskDismissNotify@@QAE@XZ 100320d0 f i GameMainManage.obj
 0001:00031100       ??0VipDeskDismissTimeCount@@QAE@XZ 10032100 f i GameMainManage.obj
 0001:00031130       ?OnCostFee@CGameMainManage@@QAE_NPAUDataBaseResultLine@@@Z 10032130 f   GameMainManage.obj
 0001:000311a0       ?OnGetRoomInfoResult@CGameMainManage@@QAE_NPAUDataBaseResultLine@@@Z 100321a0 f   GameMainManage.obj
 0001:00031210       ?OnSetContestInfoResult@CGameMainManage@@QAE_NPAUDataBaseResultLine@@@Z 10032210 f   GameMainManage.obj
 0001:00031270       ?OnDissmissDeskByMS@CGameMainManage@@QAE_NPAUDataBaseResultLine@@@Z 10032270 f   GameMainManage.obj
 0001:000313f0       ?_Compat@?$_Vector_const_iterator@V?$_Vector_val@IV?$allocator@I@std@@@std@@@std@@QBEXABV12@@Z 100323f0 f   GameMainManage.obj
 0001:000313f0       ?Serialize@CObject@@UAEXAAVCArchive@@@Z 100323f0 f   GameMainManage.obj
 0001:000313f0       ?Dump@CObject@@UBEXAAVCDumpContext@@@Z 100323f0 f   GameMainManage.obj
 0001:000313f0       ?_Compat@?$_Vector_const_iterator@V?$_Vector_val@JV?$allocator@J@std@@@std@@@std@@QBEXABV12@@Z 100323f0 f   GameMainManage.obj
 0001:000313f0       ?OnUserNetCutDissmiss@CGameMainManage@@QAEXPAVCGameUserInfo@@@Z 100323f0 f   GameMainManage.obj
 0001:000313f0       ?_Compat@?$_Vector_const_iterator@V?$_Vector_val@UMSG_GM_S_ReturnGameInfo@@V?$allocator@UMSG_GM_S_ReturnGameInfo@@@std@@@std@@@std@@QBEXABV12@@Z 100323f0 f   GameDesk.obj
 0001:000313f0       ?_Adopt@_Iterator_base0@std@@QAEXPBX@Z 100323f0 f   mainserversocket.obj
 0001:000313f0       ?_Compat@?$_Vector_const_iterator@V?$_Vector_val@UMSG_GR_S_Position_Notice@@V?$allocator@UMSG_GR_S_Position_Notice@@@std@@@std@@@std@@QBEXABV12@@Z 100323f0 f   GameDesk.obj
 0001:000313f0       ?_Compat@?$_Vector_const_iterator@V?$_Vector_val@PAVCGameUserInfo@@V?$allocator@PAVCGameUserInfo@@@std@@@std@@@std@@QBEXABV12@@Z 100323f0 f   GameMainManage.obj
 0001:000313f0       ?_Compat@?$_Vector_const_iterator@V?$_Vector_val@HV?$allocator@H@std@@@std@@@std@@QBEXABV12@@Z 100323f0 f   GameDesk.obj
 0001:000313f0       ?_Compat@?$_Vector_const_iterator@V?$_Vector_val@UQueueInfo_t@@V?$allocator@UQueueInfo_t@@@std@@@std@@@std@@QBEXABV12@@Z 100323f0 f   AutoAllotDesk.obj
 0001:00031410       ?GetDeskInfo@CGameMainManage@@QAEPAVCGameDesk@@E@Z 10032410 f   GameMainManage.obj
 0001:00031460       ?OnClearDesk@CGameMainManage@@QAE_NE@Z 10032460 f   GameMainManage.obj
 0001:000317a0       ??0DL_GR_I_BuyDeskOut@@QAE@XZ 100327a0 f i GameMainManage.obj
 0001:000317a0       ??0DL_GR_I_ReleaseDesk@@QAE@XZ 100327a0 f i GameMainManage.obj
 0001:000317a0       ??0MSG_GP_S_BUY_DESK_RES@@QAE@XZ 100327a0 f i GameDataBaseHandle.obj
 0001:000317d0       ?OnReleaseDesk@CGameMainManage@@QAE_NE@Z 100327d0 f   GameMainManage.obj
 0001:000319d0       ?OnHandleMSMessage@CGameMainManage@@QAE_NPAUNetMessageHead@@PAXIPAVCTCPClientSocket@@@Z 100329d0 f   GameMainManage.obj
 0001:00031a20       ?BeforeContestBegin@CGameMainManage@@QAE_NXZ 10032a20 f   GameMainManage.obj
 0001:00031b10       ?OnTimingMatchBeginFillQueue@CGameMainManage@@QAE_NPAUDataBaseResultLine@@@Z 10032b10 f   GameMainManage.obj
 0001:00031c80       ?OnContestRoomReset@CGameMainManage@@QAEXXZ 10032c80 f   GameMainManage.obj
 0001:00031d00       ?GetVipReseverCount@?$CAFCPtrArray@VCGameUserInfo@@@@QAEIXZ 10032d00 f i GameMainManage.obj
 0001:00031d20       ?GetArrayItem@?$CAFCPtrArray@VCGameUserInfo@@@@QAEPAVCGameUserInfo@@I@Z 10032d20 f i GameMainManage.obj
 0001:00031d50       ?push_back@?$vector@UMSG_GM_S_ReturnGameInfo@@V?$allocator@UMSG_GM_S_ReturnGameInfo@@@std@@@std@@QAEXABUMSG_GM_S_ReturnGameInfo@@@Z 10032d50 f i GameMainManage.obj
 0001:00031e70       ??0?$list@PAVCGameUserInfo@@V?$allocator@PAVCGameUserInfo@@@std@@@std@@QAE@XZ 10032e70 f i GameMainManage.obj
 0001:00031ea0       ??1?$list@PAVCGameUserInfo@@V?$allocator@PAVCGameUserInfo@@@std@@@std@@QAE@XZ 10032ea0 f i GameMainManage.obj
 0001:00031f00       ??4?$list@PAUFILEINFO@@V?$allocator@PAUFILEINFO@@@std@@@std@@QAEAAV01@ABV01@@Z 10032f00 f i stdafx.obj
 0001:00031f00       ??4?$list@PAVCGameUserInfo@@V?$allocator@PAVCGameUserInfo@@@std@@@std@@QAEAAV01@ABV01@@Z 10032f00 f i GameMainManage.obj
 0001:00031f50       ?begin@?$list@PAVCGameUserInfo@@V?$allocator@PAVCGameUserInfo@@@std@@@std@@QAE?AV?$_List_iterator@V?$_List_val@PAVCGameUserInfo@@V?$allocator@PAVCGameUserInfo@@@std@@@std@@@2@XZ 10032f50 f i GameMainManage.obj
 0001:00031f50       ?begin@?$list@PAUFILEINFO@@V?$allocator@PAUFILEINFO@@@std@@@std@@QAE?AV?$_List_iterator@V?$_List_val@PAUFILEINFO@@V?$allocator@PAUFILEINFO@@@std@@@std@@@2@XZ 10032f50 f i stdafx.obj
 0001:00031f90       ?end@?$list@PAVCGameUserInfo@@V?$allocator@PAVCGameUserInfo@@@std@@@std@@QAE?AV?$_List_iterator@V?$_List_val@PAVCGameUserInfo@@V?$allocator@PAVCGameUserInfo@@@std@@@std@@@2@XZ 10032f90 f i GameMainManage.obj
 0001:00031fc0       ?GetSafeSocket@CListenSocket@@QAEIXZ 10032fc0 f i mainserversocket.obj
 0001:00031fc0       ?size@?$list@PAVCGameUserInfo@@V?$allocator@PAVCGameUserInfo@@@std@@@std@@QBEIXZ 10032fc0 f i GameMainManage.obj
 0001:00031fc0       ?GetPermitCount@?$CAFCPtrArray@VCGameUserInfo@@@@QAEIXZ 10032fc0 f i GameMainManage.obj
 0001:00031fe0       ?push_back@?$list@PAVCGameUserInfo@@V?$allocator@PAVCGameUserInfo@@@std@@@std@@QAEXABQAVCGameUserInfo@@@Z 10032fe0 f i GameMainManage.obj
 0001:00032020       ?clear@?$list@PAVCGameUserInfo@@V?$allocator@PAVCGameUserInfo@@@std@@@std@@QAEXXZ 10033020 f i GameMainManage.obj
 0001:00032020       ?clear@?$list@PAUFILEINFO@@V?$allocator@PAUFILEINFO@@@std@@@std@@QAEXXZ 10033020 f i stdafx.obj
 0001:000320d0       ?swap@?$list@PAVCGameUserInfo@@V?$allocator@PAVCGameUserInfo@@@std@@@std@@QAEXAAV12@@Z 100330d0 f i GameMainManage.obj
 0001:000321b0       ?remove@?$list@PAVCGameUserInfo@@V?$allocator@PAVCGameUserInfo@@@std@@@std@@QAEXABQAVCGameUserInfo@@@Z 100331b0 f i GameMainManage.obj
 0001:00032260       ?empty@?$vector@JV?$allocator@J@std@@@std@@QBE_NXZ 10033260 f i GameMainManage.obj
 0001:00032260       ?empty@?$vector@IV?$allocator@I@std@@@std@@QBE_NXZ 10033260 f i GameMainManage.obj
 0001:00032290       ??0?$vector@IV?$allocator@I@std@@@std@@QAE@XZ 10033290 f i GameMainManage.obj
 0001:00032290       ??0?$vector@HV?$allocator@H@std@@@std@@QAE@XZ 10033290 f i GameDesk.obj
 0001:00032290       ??0?$vector@PAVCGameUserInfo@@V?$allocator@PAVCGameUserInfo@@@std@@@std@@QAE@XZ 10033290 f i GameMainManage.obj
 0001:00032290       ??0?$vector@JV?$allocator@J@std@@@std@@QAE@XZ 10033290 f i GameMainManage.obj
 0001:00032290       ??0?$vector@UMSG_GM_S_ReturnGameInfo@@V?$allocator@UMSG_GM_S_ReturnGameInfo@@@std@@@std@@QAE@XZ 10033290 f i GameDesk.obj
 0001:00032290       ??0?$vector@UMSG_GR_S_Position_Notice@@V?$allocator@UMSG_GR_S_Position_Notice@@@std@@@std@@QAE@XZ 10033290 f i GameDesk.obj
 0001:00032290       ??0?$vector@UQueueInfo_t@@V?$allocator@UQueueInfo_t@@@std@@@std@@QAE@XZ 10033290 f i AutoAllotDesk.obj
 0001:000322c0       ??0?$_List_iterator@V?$_List_val@PAVCGameUserInfo@@V?$allocator@PAVCGameUserInfo@@@std@@@std@@@std@@QAE@XZ 100332c0 f i GameMainManage.obj
 0001:000322e0       ??D?$_List_iterator@V?$_List_val@PAVCGameUserInfo@@V?$allocator@PAVCGameUserInfo@@@std@@@std@@@std@@QBEAAPAVCGameUserInfo@@XZ 100332e0 f i GameMainManage.obj
 0001:00032300       ??E?$_List_iterator@V?$_List_val@PAVCGameUserInfo@@V?$allocator@PAVCGameUserInfo@@@std@@@std@@@std@@QAEAAV01@XZ 10033300 f i GameMainManage.obj
 0001:00032320       ??E?$_List_iterator@V?$_List_val@PAVCGameUserInfo@@V?$allocator@PAVCGameUserInfo@@@std@@@std@@@std@@QAE?AV01@H@Z 10033320 f i GameMainManage.obj
 0001:00032350       ??A?$vector@PAVCGameUserInfo@@V?$allocator@PAVCGameUserInfo@@@std@@@std@@QAEAAPAVCGameUserInfo@@I@Z 10033350 f i GameMainManage.obj
 0001:00032370       ?push_back@?$vector@HV?$allocator@H@std@@@std@@QAEXABH@Z 10033370 f i GameDesk.obj
 0001:00032370       ?push_back@?$vector@PAVCGameUserInfo@@V?$allocator@PAVCGameUserInfo@@@std@@@std@@QAEXABQAVCGameUserInfo@@@Z 10033370 f i GameMainManage.obj
 0001:00032370       ?push_back@?$vector@JV?$allocator@J@std@@@std@@QAEXABJ@Z 10033370 f i GameMainManage.obj
 0001:00032470       ?_Reserve@?$vector@UMSG_GM_S_ReturnGameInfo@@V?$allocator@UMSG_GM_S_ReturnGameInfo@@@std@@@std@@IAEXI@Z 10033470 f i GameMainManage.obj
 0001:000324e0       ?splice@?$list@PAVCGameUserInfo@@V?$allocator@PAVCGameUserInfo@@@std@@@std@@QAEXV?$_List_const_iterator@V?$_List_val@PAVCGameUserInfo@@V?$allocator@PAVCGameUserInfo@@@std@@@std@@@2@AAV12@@Z 100334e0 f i GameMainManage.obj
 0001:00032550       ?splice@?$list@PAVCGameUserInfo@@V?$allocator@PAVCGameUserInfo@@@std@@@std@@QAEXV?$_List_const_iterator@V?$_List_val@PAVCGameUserInfo@@V?$allocator@PAVCGameUserInfo@@@std@@@std@@@2@AAV12@00@Z 10033550 f i GameMainManage.obj
 0001:00032670       ?_Tidy@?$list@PAUFILEINFO@@V?$allocator@PAUFILEINFO@@@std@@@std@@QAEXXZ 10033670 f i stdafx.obj
 0001:00032670       ?_Tidy@?$list@PAVCGameUserInfo@@V?$allocator@PAVCGameUserInfo@@@std@@@std@@QAEXXZ 10033670 f i GameMainManage.obj
 0001:00032690       ??1?$_List_val@PAUFILEINFO@@V?$allocator@PAUFILEINFO@@@std@@@std@@QAE@XZ 10033690 f i stdafx.obj
 0001:00032690       ??1?$_List_val@PAVCGameUserInfo@@V?$allocator@PAVCGameUserInfo@@@std@@@std@@QAE@XZ 10033690 f i GameMainManage.obj
 0001:000326c0       ?_Tidy@?$vector@JV?$allocator@J@std@@@std@@IAEXXZ 100336c0 f i GameMainManage.obj
 0001:000326c0       ?_Tidy@?$vector@HV?$allocator@H@std@@@std@@IAEXXZ 100336c0 f i GameDesk.obj
 0001:000326c0       ?_Tidy@?$vector@IV?$allocator@I@std@@@std@@IAEXXZ 100336c0 f i GameMainManage.obj
 0001:000326c0       ?_Tidy@?$vector@PAVCGameUserInfo@@V?$allocator@PAVCGameUserInfo@@@std@@@std@@IAEXXZ 100336c0 f i GameMainManage.obj
 0001:00032740       ??0?$_Vector_iterator@V?$_Vector_val@JV?$allocator@J@std@@@std@@@std@@QAE@XZ 10033740 f i GameMainManage.obj
 0001:00032740       ??0?$_List_const_iterator@V?$_List_val@PAVCGameUserInfo@@V?$allocator@PAVCGameUserInfo@@@std@@@std@@@std@@QAE@XZ 10033740 f i GameMainManage.obj
 0001:00032740       ??0?$_Vector_iterator@V?$_Vector_val@IV?$allocator@I@std@@@std@@@std@@QAE@XZ 10033740 f i GameMainManage.obj
 0001:00032760       ??0?$_Vector_const_iterator@V?$_Vector_val@JV?$allocator@J@std@@@std@@@std@@QAE@XZ 10033760 f i GameMainManage.obj
 0001:00032760       ??0?$_Vector_const_iterator@V?$_Vector_val@IV?$allocator@I@std@@@std@@@std@@QAE@XZ 10033760 f i GameMainManage.obj
 0001:00032760       ??0?$_List_unchecked_const_iterator@V?$_List_val@PAVCGameUserInfo@@V?$allocator@PAVCGameUserInfo@@@std@@@std@@U_Iterator_base0@2@@std@@QAE@XZ 10033760 f i GameMainManage.obj
 0001:00032780       ?_Reserve@?$vector@JV?$allocator@J@std@@@std@@IAEXI@Z 10033780 f i GameMainManage.obj
 0001:00032780       ?_Reserve@?$vector@PAVCGameUserInfo@@V?$allocator@PAVCGameUserInfo@@@std@@@std@@IAEXI@Z 10033780 f i GameMainManage.obj
 0001:00032780       ?_Reserve@?$vector@HV?$allocator@H@std@@@std@@IAEXI@Z 10033780 f i GameDesk.obj
 0001:000327f0       ?reserve@?$vector@UMSG_GM_S_ReturnGameInfo@@V?$allocator@UMSG_GM_S_ReturnGameInfo@@@std@@@std@@QAEXI@Z 100337f0 f i GameMainManage.obj
 0001:00032950       ?capacity@?$vector@UMSG_GM_S_ReturnGameInfo@@V?$allocator@UMSG_GM_S_ReturnGameInfo@@@std@@@std@@QBEIXZ 10033950 f i GameMainManage.obj
 0001:00032980       ?size@?$vector@UMSG_GM_S_ReturnGameInfo@@V?$allocator@UMSG_GM_S_ReturnGameInfo@@@std@@@std@@QBEIXZ 10033980 f i GameMainManage.obj
 0001:000329b0       ?max_size@?$vector@UMSG_GM_S_ReturnGameInfo@@V?$allocator@UMSG_GM_S_ReturnGameInfo@@@std@@@std@@QBEIXZ 100339b0 f i GameMainManage.obj
 0001:000329d0       ?_Grow_to@?$vector@UMSG_GM_S_ReturnGameInfo@@V?$allocator@UMSG_GM_S_ReturnGameInfo@@@std@@@std@@IBEII@Z 100339d0 f i GameMainManage.obj
 0001:00032a30       ?_Xlen@?$vector@HV?$allocator@H@std@@@std@@IBEXXZ 10033a30 f i GameDesk.obj
 0001:00032a30       ?_Xlen@?$vector@UMSG_GR_S_Position_Notice@@V?$allocator@UMSG_GR_S_Position_Notice@@@std@@@std@@IBEXXZ 10033a30 f i GameDesk.obj
 0001:00032a30       ?_Xlen@?$vector@PAVCGameUserInfo@@V?$allocator@PAVCGameUserInfo@@@std@@@std@@IBEXXZ 10033a30 f i GameMainManage.obj
 0001:00032a30       ?_Xlen@?$vector@UMSG_GM_S_ReturnGameInfo@@V?$allocator@UMSG_GM_S_ReturnGameInfo@@@std@@@std@@IBEXXZ 10033a30 f i GameMainManage.obj
 0001:00032a30       ?_Xlen@?$vector@JV?$allocator@J@std@@@std@@IBEXXZ 10033a30 f i GameMainManage.obj
 0001:00032a30       ?_Xlen@?$vector@UQueueInfo_t@@V?$allocator@UQueueInfo_t@@@std@@@std@@IBEXXZ 10033a30 f i AutoAllotDesk.obj
 0001:00032a50       ?empty@?$list@PAVCGameUserInfo@@V?$allocator@PAVCGameUserInfo@@@std@@@std@@QBE_NXZ 10033a50 f i GameMainManage.obj
 0001:00032a80       ?_Splice@?$list@PAVCGameUserInfo@@V?$allocator@PAVCGameUserInfo@@@std@@@std@@QAEXV?$_List_const_iterator@V?$_List_val@PAVCGameUserInfo@@V?$allocator@PAVCGameUserInfo@@@std@@@std@@@2@AAV12@00I@Z 10033a80 f i GameMainManage.obj
 0001:00032b30       ?capacity@?$vector@HV?$allocator@H@std@@@std@@QBEIXZ 10033b30 f i GameDesk.obj
 0001:00032b30       ?capacity@?$vector@JV?$allocator@J@std@@@std@@QBEIXZ 10033b30 f i GameMainManage.obj
 0001:00032b30       ?capacity@?$vector@PAVCGameUserInfo@@V?$allocator@PAVCGameUserInfo@@@std@@@std@@QBEIXZ 10033b30 f i GameMainManage.obj
 0001:00032b60       ?size@?$vector@HV?$allocator@H@std@@@std@@QBEIXZ 10033b60 f i GameDesk.obj
 0001:00032b60       ?size@?$vector@PAVCGameUserInfo@@V?$allocator@PAVCGameUserInfo@@@std@@@std@@QBEIXZ 10033b60 f i GameMainManage.obj
 0001:00032b60       ?size@?$vector@JV?$allocator@J@std@@@std@@QBEIXZ 10033b60 f i GameMainManage.obj
 0001:00032b90       ?max_size@?$vector@JV?$allocator@J@std@@@std@@QBEIXZ 10033b90 f i GameMainManage.obj
 0001:00032b90       ?max_size@?$vector@HV?$allocator@H@std@@@std@@QBEIXZ 10033b90 f i GameDesk.obj
 0001:00032b90       ?max_size@?$vector@PAVCGameUserInfo@@V?$allocator@PAVCGameUserInfo@@@std@@@std@@QBEIXZ 10033b90 f i GameMainManage.obj
 0001:00032bb0       ?_Grow_to@?$vector@PAVCGameUserInfo@@V?$allocator@PAVCGameUserInfo@@@std@@@std@@IBEII@Z 10033bb0 f i GameMainManage.obj
 0001:00032bb0       ?_Grow_to@?$vector@JV?$allocator@J@std@@@std@@IBEII@Z 10033bb0 f i GameMainManage.obj
 0001:00032bb0       ?_Grow_to@?$vector@HV?$allocator@H@std@@@std@@IBEII@Z 10033bb0 f i GameDesk.obj
 0001:00032c10       ?_Make_iter@?$vector@UMSG_GR_S_Position_Notice@@V?$allocator@UMSG_GR_S_Position_Notice@@@std@@@std@@QBE?AV?$_Vector_iterator@V?$_Vector_val@UMSG_GR_S_Position_Notice@@V?$allocator@UMSG_GR_S_Position_Notice@@@std@@@std@@@2@V?$_Vector_const_iterator@V?$_Vector_val@UMSG_GR_S_Position_Notice@@V?$allocator@UMSG_GR_S_Position_Notice@@@std@@@std@@@2@@Z 10033c10 f i GameDesk.obj
 0001:00032c10       ?_Make_iter@?$vector@JV?$allocator@J@std@@@std@@QBE?AV?$_Vector_iterator@V?$_Vector_val@JV?$allocator@J@std@@@std@@@2@V?$_Vector_const_iterator@V?$_Vector_val@JV?$allocator@J@std@@@std@@@2@@Z 10033c10 f i GameMainManage.obj
 0001:00032c10       ?_Make_iter@?$vector@UMSG_GM_S_ReturnGameInfo@@V?$allocator@UMSG_GM_S_ReturnGameInfo@@@std@@@std@@QBE?AV?$_Vector_iterator@V?$_Vector_val@UMSG_GM_S_ReturnGameInfo@@V?$allocator@UMSG_GM_S_ReturnGameInfo@@@std@@@std@@@2@V?$_Vector_const_iterator@V?$_Vector_val@UMSG_GM_S_ReturnGameInfo@@V?$allocator@UMSG_GM_S_ReturnGameInfo@@@std@@@std@@@2@@Z 10033c10 f i GameDesk.obj
 0001:00032c10       ?_Make_iter@?$vector@UQueueInfo_t@@V?$allocator@UQueueInfo_t@@@std@@@std@@QBE?AV?$_Vector_iterator@V?$_Vector_val@UQueueInfo_t@@V?$allocator@UQueueInfo_t@@@std@@@std@@@2@V?$_Vector_const_iterator@V?$_Vector_val@UQueueInfo_t@@V?$allocator@UQueueInfo_t@@@std@@@std@@@2@@Z 10033c10 f i AutoAllotDesk.obj
 0001:00032c10       ?_Make_iter@?$vector@HV?$allocator@H@std@@@std@@QBE?AV?$_Vector_iterator@V?$_Vector_val@HV?$allocator@H@std@@@std@@@2@V?$_Vector_const_iterator@V?$_Vector_val@HV?$allocator@H@std@@@std@@@2@@Z 10033c10 f i GameDesk.obj
 0001:00032c10       ?_Make_iter@?$vector@PAVCGameUserInfo@@V?$allocator@PAVCGameUserInfo@@@std@@@std@@QBE?AV?$_Vector_iterator@V?$_Vector_val@PAVCGameUserInfo@@V?$allocator@PAVCGameUserInfo@@@std@@@std@@@2@V?$_Vector_const_iterator@V?$_Vector_val@PAVCGameUserInfo@@V?$allocator@PAVCGameUserInfo@@@std@@@std@@@2@@Z 10033c10 f i GameMainManage.obj
 0001:00032c10       ?_Make_iter@?$vector@IV?$allocator@I@std@@@std@@QBE?AV?$_Vector_iterator@V?$_Vector_val@IV?$allocator@I@std@@@std@@@2@V?$_Vector_const_iterator@V?$_Vector_val@IV?$allocator@I@std@@@std@@@2@@Z 10033c10 f i GameMainManage.obj
 0001:00032c40       ?deallocate@?$allocator@UQueueInfo_t@@@std@@QAEXPAUQueueInfo_t@@I@Z 10033c40 f i AutoAllotDesk.obj
 0001:00032c40       ?deallocate@?$allocator@UMSG_GM_S_ReturnGameInfo@@@std@@QAEXPAUMSG_GM_S_ReturnGameInfo@@I@Z 10033c40 f i GameDesk.obj
 0001:00032c40       ?deallocate@?$allocator@I@std@@QAEXPAII@Z 10033c40 f i GameMainManage.obj
 0001:00032c40       ?deallocate@?$allocator@U_Node@?$_List_nod@PAUFILEINFO@@V?$allocator@PAUFILEINFO@@@std@@@std@@@std@@QAEXPAU_Node@?$_List_nod@PAUFILEINFO@@V?$allocator@PAUFILEINFO@@@std@@@2@I@Z 10033c40 f i stdafx.obj
 0001:00032c40       ?deallocate@?$allocator@D@std@@QAEXPADI@Z 10033c40 f i mainserversocket.obj
 0001:00032c40       ?deallocate@?$allocator@U_Node@?$_List_nod@PAVCGameUserInfo@@V?$allocator@PAVCGameUserInfo@@@std@@@std@@@std@@QAEXPAU_Node@?$_List_nod@PAVCGameUserInfo@@V?$allocator@PAVCGameUserInfo@@@std@@@2@I@Z 10033c40 f i GameMainManage.obj
 0001:00032c40       ?deallocate@?$allocator@PAVCGameUserInfo@@@std@@QAEXPAPAVCGameUserInfo@@I@Z 10033c40 f i GameMainManage.obj
 0001:00032c40       ?deallocate@?$allocator@J@std@@QAEXPAJI@Z 10033c40 f i GameMainManage.obj
 0001:00032c40       ?deallocate@?$allocator@UMSG_GR_S_Position_Notice@@@std@@QAEXPAUMSG_GR_S_Position_Notice@@I@Z 10033c40 f i GameDesk.obj
 0001:00032c40       ?deallocate@?$allocator@H@std@@QAEXPAHI@Z 10033c40 f i GameDesk.obj
 0001:00032c40       ?deallocate@?$allocator@U_Node@?$_Tree_nod@V?$_Tmap_traits@V?$basic_string@DU?$char_traits@D@std@@V?$allocator@D@2@@std@@VHNTreeNode@@U?$less@V?$basic_string@DU?$char_traits@D@std@@V?$allocator@D@2@@std@@@2@V?$allocator@U?$pair@$$CBV?$basic_string@DU?$char_traits@D@std@@V?$allocator@D@2@@std@@VHNTreeNode@@@std@@@2@$0A@@std@@@std@@@std@@QAEXPAU_Node@?$_Tree_nod@V?$_Tmap_traits@V?$basic_string@DU?$char_traits@D@std@@V?$allocator@D@2@@std@@VHNTreeNode@@U?$less@V?$basic_string@DU?$char_traits@D@std@@V?$allocator@D@2@@std@@@2@V?$allocator@U?$pair@$$CBV?$basic_string@DU?$char_traits@D@std@@V?$allocator@D@2@@std@@VHNTreeNode@@@std@@@2@$0A@@std@@@2@I@Z 10033c40 f i mainserversocket.obj
 0001:00032c70       ?reserve@?$vector@JV?$allocator@J@std@@@std@@QAEXI@Z 10033c70 f i GameMainManage.obj
 0001:00032c70       ?reserve@?$vector@PAVCGameUserInfo@@V?$allocator@PAVCGameUserInfo@@@std@@@std@@QAEXI@Z 10033c70 f i GameMainManage.obj
 0001:00032c70       ?reserve@?$vector@HV?$allocator@H@std@@@std@@QAEXI@Z 10033c70 f i GameDesk.obj
 0001:00032dc0       ?allocate@?$allocator@UMSG_GM_S_ReturnGameInfo@@@std@@QAEPAUMSG_GM_S_ReturnGameInfo@@I@Z 10033dc0 f i GameMainManage.obj
 0001:00032df0       ?max_size@?$allocator@UMSG_GM_S_ReturnGameInfo@@@std@@QBEIXZ 10033df0 f i GameMainManage.obj
 0001:00032e30       ?max_size@?$list@PAUFILEINFO@@V?$allocator@PAUFILEINFO@@@std@@@std@@QBEIXZ 10033e30 f i stdafx.obj
 0001:00032e30       ?max_size@?$list@PAVCGameUserInfo@@V?$allocator@PAVCGameUserInfo@@@std@@@std@@QBEIXZ 10033e30 f i GameMainManage.obj
 0001:00032e50       ?erase@?$list@PAVCGameUserInfo@@V?$allocator@PAVCGameUserInfo@@@std@@@std@@QAE?AV?$_List_iterator@V?$_List_val@PAVCGameUserInfo@@V?$allocator@PAVCGameUserInfo@@@std@@@std@@@2@V?$_List_const_iterator@V?$_List_val@PAVCGameUserInfo@@V?$allocator@PAVCGameUserInfo@@@std@@@std@@@2@0@Z 10033e50 f i GameMainManage.obj
 0001:00032f00       ?_Splice_same@?$list@PAVCGameUserInfo@@V?$allocator@PAVCGameUserInfo@@@std@@@std@@QAEXV?$_List_const_iterator@V?$_List_val@PAVCGameUserInfo@@V?$allocator@PAVCGameUserInfo@@@std@@@std@@@2@AAV12@00I@Z 10033f00 f i GameMainManage.obj
 0001:00033030       ?allocate@?$allocator@J@std@@QAEPAJI@Z 10034030 f i GameMainManage.obj
 0001:00033030       ?allocate@?$allocator@H@std@@QAEPAHI@Z 10034030 f i GameDesk.obj
 0001:00033030       ?allocate@?$allocator@PAVCGameUserInfo@@@std@@QAEPAPAVCGameUserInfo@@I@Z 10034030 f i GameMainManage.obj
 0001:00033060       ?max_size@?$allocator@PAVCGameUserInfo@@@std@@QBEIXZ 10034060 f i GameMainManage.obj
 0001:00033060       ?max_size@?$allocator@H@std@@QBEIXZ 10034060 f i GameDesk.obj
 0001:00033060       ?max_size@?$allocator@PAUFILEINFO@@@std@@QBEIXZ 10034060 f i stdafx.obj
 0001:00033060       ?max_size@?$allocator@J@std@@QBEIXZ 10034060 f i GameMainManage.obj
 0001:000330a0       ??0?$CArray@ULimitTalkStruct@@U1@@@QAE@XZ 100340a0 f i GameMainManage.obj
 0001:000330f0       ?RemoveAll@?$CArray@ULimitTalkStruct@@U1@@@QAEXXZ 100340f0 f i GameMainManage.obj
 0001:00033110       ?GetAt@?$CArray@ULimitTalkStruct@@U1@@@QAEAAULimitTalkStruct@@H@Z 10034110 f i GameMainManage.obj
 0001:00033150       ??1?$CArray@ULimitTalkStruct@@U1@@@UAE@XZ 10034150 f i GameMainManage.obj
 0001:000331c0       ?Serialize@?$CArray@ULimitTalkStruct@@U1@@@UAEXAAVCArchive@@@Z 100341c0 f i GameMainManage.obj
 0001:00033230       ?IsStoring@CArchive@@QBEHXZ 10034230 f i GameMainManage.obj
 0001:00033260       ??$strcpy_s@$0BAA@@@YAHAAY0BAA@DPBD@Z 10034260 f i GameMainManage.obj
 0001:00033290       ??$sort@Vcompare@@@?$list@PAVCGameUserInfo@@V?$allocator@PAVCGameUserInfo@@@std@@@std@@QAEXVcompare@@@Z 10034290 f i GameMainManage.obj
 0001:00033560       ??$find_if@V?$_Vector_iterator@V?$_Vector_val@UMSG_GM_S_ReturnGameInfo@@V?$allocator@UMSG_GM_S_ReturnGameInfo@@@std@@@std@@@std@@V<lambda0>@?A0x052a31a2@@@std@@YA?AV?$_Vector_iterator@V?$_Vector_val@UMSG_GM_S_ReturnGameInfo@@V?$allocator@UMSG_GM_S_ReturnGameInfo@@@std@@@std@@@0@V10@0V<lambda0>@?A0x052a31a2@@@Z 10034560 f i GameMainManage.obj
 0001:000335b0       ??$strcpy_s@$0BPE@@@YAHAAY0BPE@DPBD@Z 100345b0 f i GameMainManage.obj
 0001:000335e0       ??$_Cons_val@V?$allocator@UMSG_GM_S_ReturnGameInfo@@@std@@UMSG_GM_S_ReturnGameInfo@@ABU3@@std@@YAXAAV?$allocator@UMSG_GM_S_ReturnGameInfo@@@0@PAUMSG_GM_S_ReturnGameInfo@@ABU2@@Z 100345e0 f i GameMainManage.obj
 0001:00033610       ??$?8PAVCGameUserInfo@@PAV0@@std@@YA_NABV?$allocator@PAVCGameUserInfo@@@0@0@Z 10034610 f i GameMainManage.obj
 0001:00033630       ??$swap@PAU_Node@?$_List_nod@PAVCGameUserInfo@@V?$allocator@PAVCGameUserInfo@@@std@@@std@@@std@@YAXAAPAU_Node@?$_List_nod@PAVCGameUserInfo@@V?$allocator@PAVCGameUserInfo@@@std@@@0@0@Z 10034630 f i GameMainManage.obj
 0001:00033630       ??$swap@I@std@@YAXAAI0@Z   10034630 f i GameMainManage.obj
 0001:00033680       ??$_Cons_val@V?$allocator@J@std@@JABJ@std@@YAXAAV?$allocator@J@0@PAJABJ@Z 10034680 f i GameMainManage.obj
 0001:00033680       ??$_Cons_val@V?$allocator@PAVCGameUserInfo@@@std@@PAVCGameUserInfo@@ABQAV3@@std@@YAXAAV?$allocator@PAVCGameUserInfo@@@0@PAPAVCGameUserInfo@@ABQAV2@@Z 10034680 f i GameMainManage.obj
 0001:00033680       ??$_Cons_val@V?$allocator@PAUFILEINFO@@@std@@PAUFILEINFO@@ABQAU3@@std@@YAXAAV?$allocator@PAUFILEINFO@@@0@PAPAUFILEINFO@@ABQAU2@@Z 10034680 f i stdafx.obj
 0001:00033680       ??$_Cons_val@V?$allocator@H@std@@HABH@std@@YAXAAV?$allocator@H@0@PAHABH@Z 10034680 f i GameDesk.obj
 0001:000336b0       ??$_Umove@PAUMSG_GM_S_ReturnGameInfo@@@?$vector@UMSG_GM_S_ReturnGameInfo@@V?$allocator@UMSG_GM_S_ReturnGameInfo@@@std@@@std@@IAEPAUMSG_GM_S_ReturnGameInfo@@PAU2@00@Z 100346b0 f i GameMainManage.obj
 0001:000336e0       ??$insert@PAVCGameUserInfo@@@?$list@PAVCGameUserInfo@@V?$allocator@PAVCGameUserInfo@@@std@@@std@@QAE?AV?$_List_iterator@V?$_List_val@PAVCGameUserInfo@@V?$allocator@PAVCGameUserInfo@@@std@@@std@@@1@V?$_List_const_iterator@V?$_List_val@PAVCGameUserInfo@@V?$allocator@PAVCGameUserInfo@@@std@@@std@@@1@$$QAPAVCGameUserInfo@@@Z 100346e0 f i GameMainManage.obj
 0001:00033720       ??$_Allocate@UMSG_GM_S_ReturnGameInfo@@@std@@YAPAUMSG_GM_S_ReturnGameInfo@@IPAU1@@Z 10034720 f i GameMainManage.obj
 0001:00033790       ??$_Allocate@PAVCGameUserInfo@@@std@@YAPAPAVCGameUserInfo@@IPAPAV1@@Z 10034790 f i GameMainManage.obj
 0001:00033790       ??$_Allocate@H@std@@YAPAHIPAH@Z 10034790 f i GameDesk.obj
 0001:00033790       ??$_Allocate@J@std@@YAPAJIPAJ@Z 10034790 f i GameMainManage.obj
 0001:00033800       ??_E?$CArray@ULimitTalkStruct@@U1@@@UAEPAXI@Z 10034800 f i GameMainManage.obj
 0001:00033800       ??_G?$CArray@ULimitTalkStruct@@U1@@@UAEPAXI@Z 10034800 f i GameMainManage.obj
 0001:00033840       ?construct@?$allocator@UMSG_GM_S_ReturnGameInfo@@@std@@QAEXPAUMSG_GM_S_ReturnGameInfo@@ABU3@@Z 10034840 f i GameMainManage.obj
 0001:00033870       ??0?$list@PAVCGameUserInfo@@V?$allocator@PAVCGameUserInfo@@@std@@@std@@QAE@ABV?$allocator@PAVCGameUserInfo@@@1@@Z 10034870 f i GameMainManage.obj
 0001:000338a0       ?SetSize@?$CArray@ULimitTalkStruct@@U1@@@QAEXHH@Z 100348a0 f i GameMainManage.obj
 0001:00033c20       ?memcpy_s@Checked@ATL@@YAXPAXIPBXI@Z 10034c20 f i GameMainManage.obj
 0001:00033c60       ?AfxCrtErrorCheck@@YAHH@Z  10034c60 f i GameMainManage.obj
 0001:00033d10       ??$SerializeElements@ULimitTalkStruct@@@@YGXAAVCArchive@@PAULimitTalkStruct@@H@Z 10034d10 f i GameMainManage.obj
 0001:00033e20       ?EnsureRead@CArchive@@QAEXPAXI@Z 10034e20 f i GameMainManage.obj
 0001:00033e60       ??$merge@Vcompare@@@?$list@PAVCGameUserInfo@@V?$allocator@PAVCGameUserInfo@@@std@@@std@@QAEXAAV01@Vcompare@@@Z 10034e60 f i GameMainManage.obj
 0001:00033f90       ??Rcompare@@QBE_NAAPAVCGameUserInfo@@0@Z 10034f90 f i GameMainManage.obj
 0001:00033fd0       ??$_Unchecked@V?$_Vector_val@HV?$allocator@H@std@@@std@@@std@@YAPAHV?$_Vector_iterator@V?$_Vector_val@HV?$allocator@H@std@@@std@@@0@@Z 10034fd0 f i GameDesk.obj
 0001:00033fd0       ??$_Unchecked@V?$_Vector_val@JV?$allocator@J@std@@@std@@@std@@YAPAJV?$_Vector_iterator@V?$_Vector_val@JV?$allocator@J@std@@@std@@@0@@Z 10034fd0 f i GameMainManage.obj
 0001:00033fd0       ??$_Unchecked@V?$_Vector_val@UQueueInfo_t@@V?$allocator@UQueueInfo_t@@@std@@@std@@@std@@YAPAUQueueInfo_t@@V?$_Vector_iterator@V?$_Vector_val@UQueueInfo_t@@V?$allocator@UQueueInfo_t@@@std@@@std@@@0@@Z 10034fd0 f i AutoAllotDesk.obj
 0001:00033fd0       ??$_Unchecked@V?$_Vector_val@IV?$allocator@I@std@@@std@@@std@@YAPAIV?$_Vector_iterator@V?$_Vector_val@IV?$allocator@I@std@@@std@@@0@@Z 10034fd0 f i GameMainManage.obj
 0001:00033fd0       ??$_Unchecked@V?$_Vector_val@UMSG_GM_S_ReturnGameInfo@@V?$allocator@UMSG_GM_S_ReturnGameInfo@@@std@@@std@@@std@@YAPAUMSG_GM_S_ReturnGameInfo@@V?$_Vector_iterator@V?$_Vector_val@UMSG_GM_S_ReturnGameInfo@@V?$allocator@UMSG_GM_S_ReturnGameInfo@@@std@@@std@@@0@@Z 10034fd0 f i GameMainManage.obj
 0001:00033ff0       ??$_Find_if@PAUMSG_GM_S_ReturnGameInfo@@V<lambda0>@?A0x052a31a2@@@std@@YAPAUMSG_GM_S_ReturnGameInfo@@PAU1@0V<lambda0>@?A0x052a31a2@@@Z 10034ff0 f i GameMainManage.obj
 0001:00034040       ??R<lambda0>@?A0x052a31a2@@QBE_NUMSG_GM_S_ReturnGameInfo@@@Z 10035040 f i GameMainManage.obj
 0001:00034070       ??$_Rechecked@V?$_Vector_val@IV?$allocator@I@std@@@std@@@std@@YAAAV?$_Vector_iterator@V?$_Vector_val@IV?$allocator@I@std@@@std@@@0@AAV10@PAI@Z 10035070 f i GameMainManage.obj
 0001:00034070       ??$_Rechecked@V?$_Vector_val@JV?$allocator@J@std@@@std@@@std@@YAAAV?$_Vector_iterator@V?$_Vector_val@JV?$allocator@J@std@@@std@@@0@AAV10@PAJ@Z 10035070 f i GameMainManage.obj
 0001:00034070       ??$_Rechecked@V?$_Vector_val@UMSG_GM_S_ReturnGameInfo@@V?$allocator@UMSG_GM_S_ReturnGameInfo@@@std@@@std@@@std@@YAAAV?$_Vector_iterator@V?$_Vector_val@UMSG_GM_S_ReturnGameInfo@@V?$allocator@UMSG_GM_S_ReturnGameInfo@@@std@@@std@@@0@AAV10@PAUMSG_GM_S_ReturnGameInfo@@@Z 10035070 f i GameMainManage.obj
 0001:00034070       ??$_Rechecked@V?$_Vector_val@HV?$allocator@H@std@@@std@@@std@@YAAAV?$_Vector_iterator@V?$_Vector_val@HV?$allocator@H@std@@@std@@@0@AAV10@PAH@Z 10035070 f i GameDesk.obj
 0001:00034090       ??$_Iter_cat@V?$_List_const_iterator@V?$_List_val@PAVCGameUserInfo@@V?$allocator@PAVCGameUserInfo@@@std@@@std@@@std@@@std@@YA?AUbidirectional_iterator_tag@0@ABV?$_List_const_iterator@V?$_List_val@PAVCGameUserInfo@@V?$allocator@PAVCGameUserInfo@@@std@@@std@@@0@@Z 10035090 f i GameMainManage.obj
 0001:00034090       ??$_Iter_cat@V?$_List_const_iterator@V?$_List_val@PAUFILEINFO@@V?$allocator@PAUFILEINFO@@@std@@@std@@@std@@@std@@YA?AUbidirectional_iterator_tag@0@ABV?$_List_const_iterator@V?$_List_val@PAUFILEINFO@@V?$allocator@PAUFILEINFO@@@std@@@std@@@0@@Z 10035090 f i stdafx.obj
 0001:000340b0       ??$_Ptr_cat@UQueueInfo_t@@U1@@std@@YA?AU_Nonscalar_ptr_iterator_tag@0@PAUQueueInfo_t@@0@Z 100350b0 f i AutoAllotDesk.obj
 0001:000340b0       ??$_Ptr_cat@JJ@std@@YA?AU_Scalar_ptr_iterator_tag@0@PAJ0@Z 100350b0 f i GameMainManage.obj
 0001:000340b0       ??$_Ptr_cat@UMSG_GR_S_Position_Notice@@U1@@std@@YA?AU_Nonscalar_ptr_iterator_tag@0@PAUMSG_GR_S_Position_Notice@@0@Z 100350b0 f i GameDesk.obj
 0001:000340b0       ??$_Ptr_cat@PAVCGameUserInfo@@PAV1@@std@@YA?AU_Scalar_ptr_iterator_tag@0@PAPAVCGameUserInfo@@0@Z 100350b0 f i GameMainManage.obj
 0001:000340b0       ??$_Ptr_cat@HH@std@@YA?AU_Scalar_ptr_iterator_tag@0@PAH0@Z 100350b0 f i GameDesk.obj
 0001:000340b0       ??$_Ptr_cat@UMSG_GM_S_ReturnGameInfo@@U1@@std@@YA?AU_Nonscalar_ptr_iterator_tag@0@PAUMSG_GM_S_ReturnGameInfo@@0@Z 100350b0 f i GameDesk.obj
 0001:000340b0       ??$_Ptr_cat@II@std@@YA?AU_Scalar_ptr_iterator_tag@0@PAI0@Z 100350b0 f i GameMainManage.obj
 0001:000340d0       ??$_Uninitialized_move@PAUMSG_GM_S_ReturnGameInfo@@PAU1@V?$allocator@UMSG_GM_S_ReturnGameInfo@@@std@@@std@@YAPAUMSG_GM_S_ReturnGameInfo@@PAU1@00AAV?$allocator@UMSG_GM_S_ReturnGameInfo@@@0@@Z 100350d0 f i GameMainManage.obj
 0001:00034120       ??$emplace@PAVCGameUserInfo@@@?$list@PAVCGameUserInfo@@V?$allocator@PAVCGameUserInfo@@@std@@@std@@QAE?AV?$_List_iterator@V?$_List_val@PAVCGameUserInfo@@V?$allocator@PAVCGameUserInfo@@@std@@@std@@@1@V?$_List_const_iterator@V?$_List_val@PAVCGameUserInfo@@V?$allocator@PAVCGameUserInfo@@@std@@@std@@@1@$$QAPAVCGameUserInfo@@@Z 10035120 f i GameMainManage.obj
 0001:00034170       ??$_Destroy@UMSG_GM_S_ReturnGameInfo@@@std@@YAXPAUMSG_GM_S_ReturnGameInfo@@@Z 10035170 f i GameDesk.obj
 0001:00034170       ??$_Destroy_range@V?$allocator@H@std@@@std@@YAXPAH0AAV?$allocator@H@0@U_Scalar_ptr_iterator_tag@0@@Z 10035170 f i GameDesk.obj
 0001:00034170       ??$_Destroy@UMSG_GR_S_Position_Notice@@@std@@YAXPAUMSG_GR_S_Position_Notice@@@Z 10035170 f i GameDesk.obj
 0001:00034170       ??$_Destroy_range@V?$allocator@J@std@@@std@@YAXPAJ0AAV?$allocator@J@0@U_Scalar_ptr_iterator_tag@0@@Z 10035170 f i GameMainManage.obj
 0001:00034170       ??$_Destroy@U_Node@?$_List_nod@PAVCGameUserInfo@@V?$allocator@PAVCGameUserInfo@@@std@@@std@@@std@@YAXPAU_Node@?$_List_nod@PAVCGameUserInfo@@V?$allocator@PAVCGameUserInfo@@@std@@@0@@Z 10035170 f i GameMainManage.obj
 0001:00034170       ??3@YAXPAX0@Z              10035170 f i mainserversocket.obj
 0001:00034170       ??$_Destroy@UQueueInfo_t@@@std@@YAXPAUQueueInfo_t@@@Z 10035170 f i AutoAllotDesk.obj
 0001:00034170       ??$_Destroy@U_Node@?$_List_nod@PAUFILEINFO@@V?$allocator@PAUFILEINFO@@@std@@@std@@@std@@YAXPAU_Node@?$_List_nod@PAUFILEINFO@@V?$allocator@PAUFILEINFO@@@std@@@0@@Z 10035170 f i stdafx.obj
 0001:00034170       ??$_Destroy_range@V?$allocator@I@std@@@std@@YAXPAI0AAV?$allocator@I@0@U_Scalar_ptr_iterator_tag@0@@Z 10035170 f i GameMainManage.obj
 0001:00034170       ??$_Destroy_range@V?$allocator@PAVCGameUserInfo@@@std@@@std@@YAXPAPAVCGameUserInfo@@0AAV?$allocator@PAVCGameUserInfo@@@0@U_Scalar_ptr_iterator_tag@0@@Z 10035170 f i GameMainManage.obj
 0001:00034180       ??$_Construct@UMSG_GM_S_ReturnGameInfo@@ABU1@@std@@YAXPAUMSG_GM_S_ReturnGameInfo@@ABU1@@Z 10035180 f i GameMainManage.obj
 0001:00034220       ??F?$_List_const_iterator@V?$_List_val@PAUFILEINFO@@V?$allocator@PAUFILEINFO@@@std@@@std@@@std@@QAEAAV01@XZ 10035220 f i stdafx.obj
 0001:00034220       ??F?$_List_const_iterator@V?$_List_val@PAVCGameUserInfo@@V?$allocator@PAVCGameUserInfo@@@std@@@std@@@std@@QAEAAV01@XZ 10035220 f i GameMainManage.obj
 0001:00034250       ?_Unchecked@?$_Vector_iterator@V?$_Vector_val@UMSG_GM_S_ReturnGameInfo@@V?$allocator@UMSG_GM_S_ReturnGameInfo@@@std@@@std@@@std@@QBEPAUMSG_GM_S_ReturnGameInfo@@XZ 10035250 f i GameMainManage.obj
 0001:00034250       ?_Mynode@?$_List_unchecked_const_iterator@V?$_List_val@PAUFILEINFO@@V?$allocator@PAUFILEINFO@@@std@@@std@@U_Iterator_base0@2@@std@@QBEPAU_Node@?$_List_nod@PAUFILEINFO@@V?$allocator@PAUFILEINFO@@@std@@@2@XZ 10035250 f i stdafx.obj
 0001:00034250       ?_Unchecked@?$_Vector_iterator@V?$_Vector_val@JV?$allocator@J@std@@@std@@@std@@QBEPAJXZ 10035250 f i GameMainManage.obj
 0001:00034250       ?GetOnLineUserCount@CGameUserInfoManage@@QAEIXZ 10035250 f i mainserversocket.obj
 0001:00034250       ?_Unchecked@?$_Vector_iterator@V?$_Vector_val@IV?$allocator@I@std@@@std@@@std@@QBEPAIXZ 10035250 f i GameMainManage.obj
 0001:00034250       ?_Unchecked@?$_Vector_iterator@V?$_Vector_val@UQueueInfo_t@@V?$allocator@UQueueInfo_t@@@std@@@std@@@std@@QBEPAUQueueInfo_t@@XZ 10035250 f i AutoAllotDesk.obj
 0001:00034250       ?_Unchecked@?$_Vector_iterator@V?$_Vector_val@HV?$allocator@H@std@@@std@@@std@@QBEPAHXZ 10035250 f i GameDesk.obj
 0001:00034250       ?GetActiveCount@?$CAFCPtrArray@VCGameUserInfo@@@@QAEIXZ 10035250 f i mainserversocket.obj
 0001:00034250       ?_Mynode@?$_List_unchecked_const_iterator@V?$_List_val@PAVCGameUserInfo@@V?$allocator@PAVCGameUserInfo@@@std@@@std@@U_Iterator_base0@2@@std@@QBEPAU_Node@?$_List_nod@PAVCGameUserInfo@@V?$allocator@PAVCGameUserInfo@@@std@@@2@XZ 10035250 f i GameMainManage.obj
 0001:00034250       ?_Mynode@?$_Tree_unchecked_const_iterator@V?$_Tree_val@V?$_Tmap_traits@V?$basic_string@DU?$char_traits@D@std@@V?$allocator@D@2@@std@@VHNTreeNode@@U?$less@V?$basic_string@DU?$char_traits@D@std@@V?$allocator@D@2@@std@@@2@V?$allocator@U?$pair@$$CBV?$basic_string@DU?$char_traits@D@std@@V?$allocator@D@2@@std@@VHNTreeNode@@@std@@@2@$0A@@std@@@std@@U_Iterator_base0@2@@std@@QBEPAU_Node@?$_Tree_nod@V?$_Tmap_traits@V?$basic_string@DU?$char_traits@D@std@@V?$allocator@D@2@@std@@VHNTreeNode@@U?$less@V?$basic_string@DU?$char_traits@D@std@@V?$allocator@D@2@@std@@@2@V?$allocator@U?$pair@$$CBV?$basic_string@DU?$char_traits@D@std@@V?$allocator@D@2@@std@@VHNTreeNode@@@std@@@2@$0A@@std@@@2@XZ 10035250 f i mainserversocket.obj
 0001:00034270       ??$_Val_type@PAUQueueInfo_t@@@std@@YAPAUQueueInfo_t@@PAU1@@Z 10035270 f i AutoAllotDesk.obj
 0001:00034270       ??$_Dist_type@PAUQueueInfo_t@@@std@@YAPAHPAUQueueInfo_t@@@Z 10035270 f i AutoAllotDesk.obj
 0001:00034270       ??$_Val_type@PAH@std@@YAPAHPAH@Z 10035270 f i GameDesk.obj
 0001:00034270       ??$_Val_type@PAJ@std@@YAPAJPAJ@Z 10035270 f i GameMainManage.obj
 0001:00034270       ??$_Val_type@PAUMSG_GR_S_Position_Notice@@@std@@YAPAUMSG_GR_S_Position_Notice@@PAU1@@Z 10035270 f i GameDesk.obj
 0001:00034270       ??$_Val_type@PAUMSG_GM_S_ReturnGameInfo@@@std@@YAPAUMSG_GM_S_ReturnGameInfo@@PAU1@@Z 10035270 f i GameMainManage.obj
 0001:00034270       ??$_Val_type@PAPAVCGameUserInfo@@@std@@YAPAPAVCGameUserInfo@@PAPAV1@@Z 10035270 f i GameMainManage.obj
 0001:00034270       ?_AfxInitManaged@@YAHXZ    10035270 f i stdafx.obj
 0001:00034290       ??$_Uninit_move@PAUMSG_GM_S_ReturnGameInfo@@PAU1@V?$allocator@UMSG_GM_S_ReturnGameInfo@@@std@@U1@@std@@YAPAUMSG_GM_S_ReturnGameInfo@@PAU1@00AAV?$allocator@UMSG_GM_S_ReturnGameInfo@@@0@0U_Nonscalar_ptr_iterator_tag@0@@Z 10035290 f i GameMainManage.obj
 0001:00034360       ??$_Insert_rv@PAVCGameUserInfo@@@?$list@PAVCGameUserInfo@@V?$allocator@PAVCGameUserInfo@@@std@@@std@@QAEXV?$_List_const_iterator@V?$_List_val@PAVCGameUserInfo@@V?$allocator@PAVCGameUserInfo@@@std@@@std@@@1@$$QAPAVCGameUserInfo@@@Z 10035360 f i GameMainManage.obj
 0001:000343f0       ??$_Cons_val@V?$allocator@UMSG_GM_S_ReturnGameInfo@@@std@@UMSG_GM_S_ReturnGameInfo@@U3@@std@@YAXAAV?$allocator@UMSG_GM_S_ReturnGameInfo@@@0@PAUMSG_GM_S_ReturnGameInfo@@$$QAU2@@Z 100353f0 f i GameMainManage.obj
 0001:000343f0       ??$_Cons_val@V?$allocator@UMSG_GM_S_ReturnGameInfo@@@std@@UMSG_GM_S_ReturnGameInfo@@AAU3@@std@@YAXAAV?$allocator@UMSG_GM_S_ReturnGameInfo@@@0@PAUMSG_GM_S_ReturnGameInfo@@AAU2@@Z 100353f0 f i GameMainManage.obj
 0001:00034420       ??$_Buynode@PAVCGameUserInfo@@@?$_List_val@PAVCGameUserInfo@@V?$allocator@PAVCGameUserInfo@@@std@@@std@@QAEPAU_Node@?$_List_nod@PAVCGameUserInfo@@V?$allocator@PAVCGameUserInfo@@@std@@@1@PAU231@0$$QAPAVCGameUserInfo@@@Z 10035420 f i GameMainManage.obj
 0001:00034520       ??$construct@AAUMSG_GM_S_ReturnGameInfo@@@?$allocator@UMSG_GM_S_ReturnGameInfo@@@std@@QAEXPAUMSG_GM_S_ReturnGameInfo@@AAU2@@Z 10035520 f i GameMainManage.obj
 0001:00034520       ?construct@?$allocator@UMSG_GM_S_ReturnGameInfo@@@std@@QAEXPAUMSG_GM_S_ReturnGameInfo@@$$QAU3@@Z 10035520 f i GameMainManage.obj
 0001:000345c0       ??$_Cons_val@V?$allocator@J@std@@JAAJ@std@@YAXAAV?$allocator@J@0@PAJAAJ@Z 100355c0 f i GameMainManage.obj
 0001:000345c0       ??$_Cons_val@V?$allocator@PAVCGameUserInfo@@@std@@PAVCGameUserInfo@@PAV3@@std@@YAXAAV?$allocator@PAVCGameUserInfo@@@0@PAPAVCGameUserInfo@@$$QAPAV2@@Z 100355c0 f i GameMainManage.obj
 0001:000345c0       ??$_Cons_val@V?$allocator@H@std@@HAAH@std@@YAXAAV?$allocator@H@0@PAHAAH@Z 100355c0 f i GameDesk.obj
 0001:000345c0       ??$_Cons_val@V?$allocator@PAVCGameUserInfo@@@std@@PAVCGameUserInfo@@AAPAV3@@std@@YAXAAV?$allocator@PAVCGameUserInfo@@@0@PAPAVCGameUserInfo@@AAPAV2@@Z 100355c0 f i GameMainManage.obj
 0001:000345f0       ??$construct@AAJ@?$allocator@J@std@@QAEXPAJAAJ@Z 100355f0 f i GameMainManage.obj
 0001:000345f0       ?construct@?$allocator@PAVCGameUserInfo@@@std@@QAEXPAPAVCGameUserInfo@@$$QAPAV3@@Z 100355f0 f i GameMainManage.obj
 0001:000345f0       ??$construct@AAPAVCGameUserInfo@@@?$allocator@PAVCGameUserInfo@@@std@@QAEXPAPAVCGameUserInfo@@AAPAV2@@Z 100355f0 f i GameMainManage.obj
 0001:000345f0       ??$construct@AAH@?$allocator@H@std@@QAEXPAHAAH@Z 100355f0 f i GameDesk.obj
 0001:00034680       ??OCOleDateTime@ATL@@QBE_NABV01@@Z 10035680 f i GameMainManage.obj
 0001:00034700       ?GetKeyVal@CINIFile@@QAE_JV?$CStringT@DV?$StrTraitMFC_DLL@DV?$ChTraitsCRT@D@ATL@@@@@ATL@@0_J@Z 10035700 f i GameMainManage.obj
 0001:00034840       ?my_atoi@CINIFile@@SA_JPBD@Z 10035840 f i GameMainManage.obj
 0001:00034930       ?SetKeyValString@CINIFile@@QAEXV?$CStringT@DV?$StrTraitMFC_DLL@DV?$ChTraitsCRT@D@ATL@@@@@ATL@@00@Z 10035930 f i GameMainManage.obj
 0001:00034990       ?OnNetMessage@CHandleMSMessage@@QAE_NPAUNetMessageHead@@PAXIPAVCTCPClientSocket@@@Z 10035990 f   HNHandleMSMessage.obj
 0001:00034ae0       ?OnBuyDeskNotice@CHandleMSMessage@@QAE_NPAXIPAVCTCPClientSocket@@@Z 10035ae0 f   HNHandleMSMessage.obj
 0001:00034bb0       ??0DL_GR_I_GET_DESKINFO@@QAE@XZ 10035bb0 f i HNHandleMSMessage.obj
 0001:00034c00       ?OnReturnDeskNotice@CHandleMSMessage@@QAE_NPAXIPAVCTCPClientSocket@@@Z 10035c00 f   HNHandleMSMessage.obj
 0001:00034d40       ?OnNetCutPlace@CHandleMSMessage@@QAE_NPAXIPAVCTCPClientSocket@@@Z 10035d40 f   HNHandleMSMessage.obj
 0001:00034dc0       ?OnContestActive@CHandleMSMessage@@QAE_NPAXIPAVCTCPClientSocket@@@Z 10035dc0 f   HNHandleMSMessage.obj
 0001:00034ed0       ??0DL_GR_I_ContestActive@@QAE@XZ 10035ed0 f i HNHandleMSMessage.obj
 0001:00034f10       ?OnHallDissmissDesk@CHandleMSMessage@@QAE_NPAXIPAVCTCPClientSocket@@@Z 10035f10 f   HNHandleMSMessage.obj
 0001:00034fa0       ?OnClubDissmissDesk@CHandleMSMessage@@QAE_NPAXIPAVCTCPClientSocket@@@Z 10035fa0 f   HNHandleMSMessage.obj
 0001:00035030       ?OnClubBuyDesk@CHandleMSMessage@@QAE_NPAXIPAVCTCPClientSocket@@@Z 10036030 f   HNHandleMSMessage.obj
 0001:00035100       ??MCOleDateTime@ATL@@QBE_NABV01@@Z 10036100 f i HNHandleMSMessage.obj
 0001:00035180       ?OnNetMessage@CPropService@@QAE_NPAUNetMessageHead@@PAXIKIK@Z 10036180 f   PropService.obj
 0001:00035440       ?OnUserSmallBoardcase@CPropService@@QAE_NPAUNetMessageHead@@PAXIKIK@Z 10036440 f   PropService.obj
 0001:000355a0       ?OnDataBaseResult@CPropService@@QAE_NPAUDataBaseResultLine@@@Z 100365a0 f   PropService.obj
 0001:00035600       ?OnUseProp@CPropService@@QAE_NPAUNetMessageHead@@PAXIKIK@Z 10036600 f   PropService.obj
 0001:000356f0       ?OnUserSmallBoardcaseResult@CPropService@@QAE_NPAUDataBaseResultLine@@@Z 100366f0 f   PropService.obj
 0001:00035750       ?OnUsePropResult@CPropService@@QAE_NPAUDataBaseResultLine@@@Z 10036750 f   PropService.obj
 0001:000359c0       ??0CSmtp@@QAE@ABV0@@Z      100369c0 f i stdafx.obj
 0001:00035b00       ??4CSmtp@@QAEAAV0@ABV0@@Z  10036b00 f i stdafx.obj
 0001:00035c10       ??0?$list@PAUFILEINFO@@V?$allocator@PAUFILEINFO@@@std@@@std@@QAE@ABV01@@Z 10036c10 f i stdafx.obj
 0001:00035d00       ?begin@?$list@PAVCGameUserInfo@@V?$allocator@PAVCGameUserInfo@@@std@@@std@@QBE?AV?$_List_const_iterator@V?$_List_val@PAVCGameUserInfo@@V?$allocator@PAVCGameUserInfo@@@std@@@std@@@2@XZ 10036d00 f i GameMainManage.obj
 0001:00035d00       ?begin@?$list@PAUFILEINFO@@V?$allocator@PAUFILEINFO@@@std@@@std@@QBE?AV?$_List_const_iterator@V?$_List_val@PAUFILEINFO@@V?$allocator@PAUFILEINFO@@@std@@@std@@@2@XZ 10036d00 f i stdafx.obj
 0001:00035d40       ??0?$_List_val@PAUFILEINFO@@V?$allocator@PAUFILEINFO@@@std@@@std@@QAE@V?$allocator@PAUFILEINFO@@@1@@Z 10036d40 f i stdafx.obj
 0001:00035d40       ??0?$_List_val@PAVCGameUserInfo@@V?$allocator@PAVCGameUserInfo@@@std@@@std@@QAE@V?$allocator@PAVCGameUserInfo@@@1@@Z 10036d40 f i GameMainManage.obj
 0001:00035dc0       ??0?$_List_nod@PAVCGameUserInfo@@V?$allocator@PAVCGameUserInfo@@@std@@@std@@QAE@V?$allocator@PAVCGameUserInfo@@@1@@Z 10036dc0 f i GameMainManage.obj
 0001:00035dc0       ??0?$_List_nod@PAUFILEINFO@@V?$allocator@PAUFILEINFO@@@std@@@std@@QAE@V?$allocator@PAUFILEINFO@@@1@@Z 10036dc0 f i stdafx.obj
 0001:00035e00       ?allocate@?$allocator@U_Node@?$_List_nod@PAVCGameUserInfo@@V?$allocator@PAVCGameUserInfo@@@std@@@std@@@std@@QAEPAU_Node@?$_List_nod@PAVCGameUserInfo@@V?$allocator@PAVCGameUserInfo@@@std@@@2@I@Z 10036e00 f i GameMainManage.obj
 0001:00035e00       ?allocate@?$allocator@U_Node@?$_List_nod@PAUFILEINFO@@V?$allocator@PAUFILEINFO@@@std@@@std@@@std@@QAEPAU_Node@?$_List_nod@PAUFILEINFO@@V?$allocator@PAUFILEINFO@@@std@@@2@I@Z 10036e00 f i stdafx.obj
 0001:00035e30       ??$insert@V?$_List_const_iterator@V?$_List_val@PAVCGameUserInfo@@V?$allocator@PAVCGameUserInfo@@@std@@@std@@@std@@@?$list@PAVCGameUserInfo@@V?$allocator@PAVCGameUserInfo@@@std@@@std@@QAEXV?$_List_const_iterator@V?$_List_val@PAVCGameUserInfo@@V?$allocator@PAVCGameUserInfo@@@std@@@std@@@1@00@Z 10036e30 f i GameMainManage.obj
 0001:00035e30       ??$insert@V?$_List_const_iterator@V?$_List_val@PAUFILEINFO@@V?$allocator@PAUFILEINFO@@@std@@@std@@@std@@@?$list@PAUFILEINFO@@V?$allocator@PAUFILEINFO@@@std@@@std@@QAEXV?$_List_const_iterator@V?$_List_val@PAUFILEINFO@@V?$allocator@PAUFILEINFO@@@std@@@std@@@1@00@Z 10036e30 f i stdafx.obj
 0001:00035e80       ??$assign@V?$_List_const_iterator@V?$_List_val@PAUFILEINFO@@V?$allocator@PAUFILEINFO@@@std@@@std@@@std@@@?$list@PAUFILEINFO@@V?$allocator@PAUFILEINFO@@@std@@@std@@QAEXV?$_List_const_iterator@V?$_List_val@PAUFILEINFO@@V?$allocator@PAUFILEINFO@@@std@@@std@@@1@0@Z 10036e80 f i stdafx.obj
 0001:00035e80       ??$assign@V?$_List_const_iterator@V?$_List_val@PAVCGameUserInfo@@V?$allocator@PAVCGameUserInfo@@@std@@@std@@@std@@@?$list@PAVCGameUserInfo@@V?$allocator@PAVCGameUserInfo@@@std@@@std@@QAEXV?$_List_const_iterator@V?$_List_val@PAVCGameUserInfo@@V?$allocator@PAVCGameUserInfo@@@std@@@std@@@1@0@Z 10036e80 f i GameMainManage.obj
 0001:00035ec0       ??$_Allocate@U_Node@?$_List_nod@PAVCGameUserInfo@@V?$allocator@PAVCGameUserInfo@@@std@@@std@@@std@@YAPAU_Node@?$_List_nod@PAVCGameUserInfo@@V?$allocator@PAVCGameUserInfo@@@std@@@0@IPAU120@@Z 10036ec0 f i GameMainManage.obj
 0001:00035ec0       ??$_Allocate@U_Node@?$_List_nod@PAUFILEINFO@@V?$allocator@PAUFILEINFO@@@std@@@std@@@std@@YAPAU_Node@?$_List_nod@PAUFILEINFO@@V?$allocator@PAUFILEINFO@@@std@@@0@IPAU120@@Z 10036ec0 f i stdafx.obj
 0001:00035f30       ??$_Insert@V?$_List_const_iterator@V?$_List_val@PAUFILEINFO@@V?$allocator@PAUFILEINFO@@@std@@@std@@@std@@@?$list@PAUFILEINFO@@V?$allocator@PAUFILEINFO@@@std@@@std@@QAEXV?$_List_const_iterator@V?$_List_val@PAUFILEINFO@@V?$allocator@PAUFILEINFO@@@std@@@std@@@1@00Uforward_iterator_tag@1@@Z 10036f30 f i stdafx.obj
 0001:00035f30       ??$_Insert@V?$_List_const_iterator@V?$_List_val@PAVCGameUserInfo@@V?$allocator@PAVCGameUserInfo@@@std@@@std@@@std@@@?$list@PAVCGameUserInfo@@V?$allocator@PAVCGameUserInfo@@@std@@@std@@QAEXV?$_List_const_iterator@V?$_List_val@PAVCGameUserInfo@@V?$allocator@PAVCGameUserInfo@@@std@@@std@@@1@00Uforward_iterator_tag@1@@Z 10036f30 f i GameMainManage.obj
 0001:00036020       ??$_Assign@V?$_List_const_iterator@V?$_List_val@PAVCGameUserInfo@@V?$allocator@PAVCGameUserInfo@@@std@@@std@@@std@@@?$list@PAVCGameUserInfo@@V?$allocator@PAVCGameUserInfo@@@std@@@std@@QAEXV?$_List_const_iterator@V?$_List_val@PAVCGameUserInfo@@V?$allocator@PAVCGameUserInfo@@@std@@@std@@@1@0Uinput_iterator_tag@1@@Z 10037020 f i GameMainManage.obj
 0001:00036020       ??$_Assign@V?$_List_const_iterator@V?$_List_val@PAUFILEINFO@@V?$allocator@PAUFILEINFO@@@std@@@std@@@std@@@?$list@PAUFILEINFO@@V?$allocator@PAUFILEINFO@@@std@@@std@@QAEXV?$_List_const_iterator@V?$_List_val@PAUFILEINFO@@V?$allocator@PAUFILEINFO@@@std@@@std@@@1@0Uinput_iterator_tag@1@@Z 10037020 f i stdafx.obj
 0001:00036070       ?_Insert@?$list@PAUFILEINFO@@V?$allocator@PAUFILEINFO@@@std@@@std@@QAEXV?$_List_const_iterator@V?$_List_val@PAUFILEINFO@@V?$allocator@PAUFILEINFO@@@std@@@std@@@2@ABQAUFILEINFO@@@Z 10037070 f i stdafx.obj
 0001:00036070       ?_Insert@?$list@PAVCGameUserInfo@@V?$allocator@PAVCGameUserInfo@@@std@@@std@@QAEXV?$_List_const_iterator@V?$_List_val@PAVCGameUserInfo@@V?$allocator@PAVCGameUserInfo@@@std@@@std@@@2@ABQAVCGameUserInfo@@@Z 10037070 f i GameMainManage.obj
 0001:000360f0       ?erase@?$list@PAVCGameUserInfo@@V?$allocator@PAVCGameUserInfo@@@std@@@std@@QAE?AV?$_List_iterator@V?$_List_val@PAVCGameUserInfo@@V?$allocator@PAVCGameUserInfo@@@std@@@std@@@2@V?$_List_const_iterator@V?$_List_val@PAVCGameUserInfo@@V?$allocator@PAVCGameUserInfo@@@std@@@std@@@2@@Z 100370f0 f i GameMainManage.obj
 0001:000360f0       ?erase@?$list@PAUFILEINFO@@V?$allocator@PAUFILEINFO@@@std@@@std@@QAE?AV?$_List_iterator@V?$_List_val@PAUFILEINFO@@V?$allocator@PAUFILEINFO@@@std@@@std@@@2@V?$_List_const_iterator@V?$_List_val@PAUFILEINFO@@V?$allocator@PAUFILEINFO@@@std@@@std@@@2@@Z 100370f0 f i stdafx.obj
 0001:000361d0       ??D?$_List_const_iterator@V?$_List_val@PAVCGameUserInfo@@V?$allocator@PAVCGameUserInfo@@@std@@@std@@@std@@QBEABQAVCGameUserInfo@@XZ 100371d0 f i GameMainManage.obj
 0001:000361d0       ??D?$_List_const_iterator@V?$_List_val@PAUFILEINFO@@V?$allocator@PAUFILEINFO@@@std@@@std@@@std@@QBEABQAUFILEINFO@@XZ 100371d0 f i stdafx.obj
 0001:00036200       ??E?$_List_const_iterator@V?$_List_val@PAUFILEINFO@@V?$allocator@PAUFILEINFO@@@std@@@std@@@std@@QAEAAV01@XZ 10037200 f i stdafx.obj
 0001:00036200       ??E?$_List_const_iterator@V?$_List_val@PAVCGameUserInfo@@V?$allocator@PAVCGameUserInfo@@@std@@@std@@@std@@QAEAAV01@XZ 10037200 f i GameMainManage.obj
 0001:00036230       ?_Make_iter@?$list@PAVCGameUserInfo@@V?$allocator@PAVCGameUserInfo@@@std@@@std@@QBE?AV?$_List_iterator@V?$_List_val@PAVCGameUserInfo@@V?$allocator@PAVCGameUserInfo@@@std@@@std@@@2@V?$_List_const_iterator@V?$_List_val@PAVCGameUserInfo@@V?$allocator@PAVCGameUserInfo@@@std@@@std@@@2@@Z 10037230 f i GameMainManage.obj
 0001:00036230       ?_Make_iter@?$list@PAUFILEINFO@@V?$allocator@PAUFILEINFO@@@std@@@std@@QBE?AV?$_List_iterator@V?$_List_val@PAUFILEINFO@@V?$allocator@PAUFILEINFO@@@std@@@std@@@2@V?$_List_const_iterator@V?$_List_val@PAUFILEINFO@@V?$allocator@PAUFILEINFO@@@std@@@std@@@2@@Z 10037230 f i stdafx.obj
 0001:00036260       ?_Incsize@?$list@PAVCGameUserInfo@@V?$allocator@PAVCGameUserInfo@@@std@@@std@@QAEXI@Z 10037260 f i GameMainManage.obj
 0001:00036260       ?_Incsize@?$list@PAUFILEINFO@@V?$allocator@PAUFILEINFO@@@std@@@std@@QAEXI@Z 10037260 f i stdafx.obj
 0001:000362b0       ?_Buynode@?$_List_val@PAUFILEINFO@@V?$allocator@PAUFILEINFO@@@std@@@std@@QAEPAU_Node@?$_List_nod@PAUFILEINFO@@V?$allocator@PAUFILEINFO@@@std@@@2@PAU342@0ABQAUFILEINFO@@@Z 100372b0 f i stdafx.obj
 0001:000362b0       ?_Buynode@?$_List_val@PAVCGameUserInfo@@V?$allocator@PAVCGameUserInfo@@@std@@@std@@QAEPAU_Node@?$_List_nod@PAVCGameUserInfo@@V?$allocator@PAVCGameUserInfo@@@std@@@2@PAU342@0ABQAVCGameUserInfo@@@Z 100372b0 f i GameMainManage.obj
 0001:000363a0       ?_Right@?$_Tree_val@V?$_Tmap_traits@V?$basic_string@DU?$char_traits@D@std@@V?$allocator@D@2@@std@@VHNTreeNode@@U?$less@V?$basic_string@DU?$char_traits@D@std@@V?$allocator@D@2@@std@@@2@V?$allocator@U?$pair@$$CBV?$basic_string@DU?$char_traits@D@std@@V?$allocator@D@2@@std@@VHNTreeNode@@@std@@@2@$0A@@std@@@std@@SAAAPAU_Node@?$_Tree_nod@V?$_Tmap_traits@V?$basic_string@DU?$char_traits@D@std@@V?$allocator@D@2@@std@@VHNTreeNode@@U?$less@V?$basic_string@DU?$char_traits@D@std@@V?$allocator@D@2@@std@@@2@V?$allocator@U?$pair@$$CBV?$basic_string@DU?$char_traits@D@std@@V?$allocator@D@2@@std@@VHNTreeNode@@@std@@@2@$0A@@std@@@2@PAU342@@Z 100373a0 f i mainserversocket.obj
 0001:000363a0       ?_Myval@?$_List_val@PAVCGameUserInfo@@V?$allocator@PAVCGameUserInfo@@@std@@@std@@SAAAPAVCGameUserInfo@@PAU_Node@?$_List_nod@PAVCGameUserInfo@@V?$allocator@PAVCGameUserInfo@@@std@@@2@@Z 100373a0 f i GameMainManage.obj
 0001:000363a0       ?_Myval@?$_List_val@PAUFILEINFO@@V?$allocator@PAUFILEINFO@@@std@@@std@@SAAAPAUFILEINFO@@PAU_Node@?$_List_nod@PAUFILEINFO@@V?$allocator@PAUFILEINFO@@@std@@@2@@Z 100373a0 f i stdafx.obj
 0001:000363c0       ??E?$_List_const_iterator@V?$_List_val@PAVCGameUserInfo@@V?$allocator@PAVCGameUserInfo@@@std@@@std@@@std@@QAE?AV01@H@Z 100373c0 f i GameMainManage.obj
 0001:000363c0       ??E?$_List_const_iterator@V?$_List_val@PAUFILEINFO@@V?$allocator@PAUFILEINFO@@@std@@@std@@@std@@QAE?AV01@H@Z 100373c0 f i stdafx.obj
 0001:000363f0       ??8?$_List_const_iterator@V?$_List_val@PAUFILEINFO@@V?$allocator@PAUFILEINFO@@@std@@@std@@@std@@QBE_NABV01@@Z 100373f0 f i stdafx.obj
 0001:000363f0       ??8?$_List_const_iterator@V?$_List_val@PAVCGameUserInfo@@V?$allocator@PAVCGameUserInfo@@@std@@@std@@@std@@QBE_NABV01@@Z 100373f0 f i GameMainManage.obj
 0001:000363f0       ??8?$_Tree_const_iterator@V?$_Tree_val@V?$_Tmap_traits@V?$basic_string@DU?$char_traits@D@std@@V?$allocator@D@2@@std@@VHNTreeNode@@U?$less@V?$basic_string@DU?$char_traits@D@std@@V?$allocator@D@2@@std@@@2@V?$allocator@U?$pair@$$CBV?$basic_string@DU?$char_traits@D@std@@V?$allocator@D@2@@std@@VHNTreeNode@@@std@@@2@$0A@@std@@@std@@@std@@QBE_NABV01@@Z 100373f0 f i mainserversocket.obj
 0001:00036420       ??0CGameUserInfo@@QAE@XZ   10037420 f   UserInfo.obj
 0001:00036500       ?SetUserState@CGameUserInfo@@QAE_NEEE_N@Z 10037500 f   UserInfo.obj
 0001:00036560       ?ChangePoint@CGameUserInfo@@QAE_N_J0_N111JAA_J1@Z 10037560 f   UserInfo.obj
 0001:000367e0       ?SetMD5Pass@CGameUserInfo@@QAE_NQAD@Z 100377e0 f   UserInfo.obj
 0001:00036820       ?SetUserScrPoint@CGameUserInfo@@QAE_NH@Z 10037820 f   UserInfo.obj
 0001:00036850       ?SetUserSendedMoeny@CGameUserInfo@@QAE_NH@Z 10037850 f   UserInfo.obj
 0001:000368a0       ?GetWeigth@CGameUserInfo@@QAEHXZ 100378a0 f   UserInfo.obj
 0001:000369b0       ?SetUserData@CGameUserInfo@@QAE_NAAUUserInfoStruct@@IKJJJ@Z 100379b0 f   UserInfo.obj
 0001:00036a40       ?CleanData@CGameUserInfo@@QAE_NXZ 10037a40 f   UserInfo.obj
 0001:00036b00       ?GetUserAllCount@CGameUserInfo@@QAEIXZ 10037b00 f   UserInfo.obj
 0001:00036b40       ?GetUserData@CGameUserInfo@@QAEPAUUserInfoStruct@@PAU2@@Z 10037b40 f   UserInfo.obj
 0001:00036b90       ?GetChangePointInfo@CGameUserInfo@@QAEPAUUserChangePoint@@PAU2@@Z 10037b90 f   UserInfo.obj
 0001:00036be0       ?IsFixRule@CGameUserInfo@@QAE_NPAUUserRuleStruct@@PAUUserInfoStruct@@AAE@Z 10037be0 f   UserInfo.obj
 0001:00036d20       ?SetRule@CGameUserInfo@@QAE_NPAUUserRuleStruct@@@Z 10037d20 f   UserInfo.obj
 0001:00036d60       ?GetDistance@CGameUserInfo@@QAEHMM@Z 10037d60 f   UserInfo.obj
 0001:00036ec0       ??0CGameUserInfoManage@@QAE@XZ 10037ec0 f   UserInfo.obj
 0001:00036f30       ??1CGameUserInfoManage@@QAE@XZ 10037f30 f   UserInfo.obj
 0001:00036fa0       ?Init@CGameUserInfoManage@@QAE_NIII@Z 10037fa0 f   UserInfo.obj
 0001:00037000       ?UnInit@CGameUserInfoManage@@QAE_NXZ 10038000 f   UserInfo.obj
 0001:00037040       ?FindOnLineUser@CGameUserInfoManage@@QAEPAVCGameUserInfo@@J@Z 10038040 f   UserInfo.obj
 0001:000370e0       ?FindOnLineUser@CGameUserInfoManage@@QAEPAVCGameUserInfo@@PAD@Z 100380e0 f   UserInfo.obj
 0001:00037180       ?FindNetCutUser@CGameUserInfoManage@@QAEPAVCGameUserInfo@@J@Z 10038180 f   UserInfo.obj
 0001:00037200       ?FindNetCutUser@CGameUserInfoManage@@QAEPAVCGameUserInfo@@PAD@Z 10038200 f   UserInfo.obj
 0001:00037290       ?ActiveUser@CGameUserInfoManage@@QAEPAVCGameUserInfo@@PAUUserInfoStruct@@IKJJJ@Z 10038290 f   UserInfo.obj
 0001:00037300       ?FreeUser@CGameUserInfoManage@@QAE_NPAVCGameUserInfo@@_N@Z 10038300 f   UserInfo.obj
 0001:00037370       ?RegNetCutUser@CGameUserInfoManage@@QAEPAVCGameUserInfo@@PAV2@@Z 10038370 f   UserInfo.obj
 0001:00037460       ?GetOnLineUserInfo@CGameUserInfoManage@@QAEPAVCGameUserInfo@@I@Z 10038460 f   UserInfo.obj
 0001:000374c0       ?FillOnLineUserInfo@CGameUserInfoManage@@QAEIPADIAAI1AA_N@Z 100384c0 f   UserInfo.obj
 0001:000375f0       ?FillNetCutUserInfo@CGameUserInfoManage@@QAEIPADIAAIAA_N@Z 100385f0 f   UserInfo.obj
 0001:000376c0       ?GetActiveItem@?$CAFCPtrArray@VCGameUserInfo@@@@QAEPAVCGameUserInfo@@I@Z 100386c0 f i UserInfo.obj
 0001:000376f0       ??0?$CAFCPtrArray@VCGameUserInfo@@@@QAE@XZ 100386f0 f i UserInfo.obj
 0001:00037750       ??1?$CAFCPtrArray@VCGameUserInfo@@@@QAE@XZ 10038750 f i UserInfo.obj
 0001:000377b0       ?Init@?$CAFCPtrArray@VCGameUserInfo@@@@QAE_NII@Z 100387b0 f i UserInfo.obj
 0001:000379a0       ?UnInit@?$CAFCPtrArray@VCGameUserInfo@@@@QAE_NXZ 100389a0 f i UserInfo.obj
 0001:00037ae0       ?NewItem@?$CAFCPtrArray@VCGameUserInfo@@@@QAEPAVCGameUserInfo@@XZ 10038ae0 f i UserInfo.obj
 0001:00037b90       ?FreeItem@?$CAFCPtrArray@VCGameUserInfo@@@@QAE_NPAVCGameUserInfo@@@Z 10038b90 f i UserInfo.obj
 0001:00037c50       ??_ECGameUserInfo@@QAEPAXI@Z 10038c50 f i UserInfo.obj
 0001:00037cd0       ?pow@@YANNH@Z              10038cd0 f i UserInfo.obj
 0001:00037d00       ??$_Pow_int@N@@YANNH@Z     10038d00 f i UserInfo.obj
 0001:00037d6e       ??1CUDPSocket@@UAE@XZ      10038d6e f   AFCComDllEx:AFCComDllEx.dll
 0001:00037d74       ??1CListenSocket@@UAE@XZ   10038d74 f   AFCComDllEx:AFCComDllEx.dll
 0001:00037d7a       ??1CTCPSocket@@UAE@XZ      10038d7a f   AFCComDllEx:AFCComDllEx.dll
 0001:00037d80       ??1CTCPSocketForZ@@UAE@XZ  10038d80 f   AFCComDllEx:AFCComDllEx.dll
 0001:00037d86       ?GetErrorCode@CAFCException@@UBEIXZ 10038d86 f   AFCComDllEx:AFCComDllEx.dll
 0001:00037d8c       ?GetErrorMessage@CAFCException@@UBEPBDPADH@Z 10038d8c f   AFCComDllEx:AFCComDllEx.dll
 0001:00037d92       ?Delete@CAFCException@@UAE_NXZ 10038d92 f   AFCComDllEx:AFCComDllEx.dll
 0001:00037d98       ??1CAFCException@@UAE@XZ   10038d98 f   AFCComDllEx:AFCComDllEx.dll
 0001:00037d9e       ?SetParameter@CDataBaseHandle@@UAE_NPAUIDataBaseResultService@@PAVCAFCDataBaseManage@@PAUManageInfoStruct@@PAUKernelInfoStruct@@@Z 10038d9e f   AFCComDllEx:AFCComDllEx.dll
 0001:00037da4       ??1CDataBaseHandle@@UAE@XZ 10038da4 f   AFCComDllEx:AFCComDllEx.dll
 0001:00037daa       ??1CTCPSocketForWeb@@UAE@XZ 10038daa f   AFCComDllEx:AFCComDllEx.dll
 0001:00037db0       ??0CTCPClientSocket@@QAE@PAUIClientSocketService@@@Z 10038db0 f   AFCComDllEx:AFCComDllEx.dll
 0001:00037db6       ?Connect@CTCPClientSocket@@QAE_NPBDI@Z 10038db6 f   AFCComDllEx:AFCComDllEx.dll
 0001:00037dbc       ?SendData@CTCPClientSocket@@QAEHPAXIEEE@Z 10038dbc f   AFCComDllEx:AFCComDllEx.dll
 0001:00037dc2       ?SendData@CTCPClientSocket@@QAEHEEE@Z 10038dc2 f   AFCComDllEx:AFCComDllEx.dll
 0001:00037dc8       ?SetCheckCode@CTCPClientSocket@@QAEX_JH@Z 10038dc8 f   AFCComDllEx:AFCComDllEx.dll
 0001:00037dce       ?PushLine@CAFCDataBaseManage@@QAE_NPAUDataBaseLineHead@@IIIK@Z 10038dce f   AFCComDllEx:AFCComDllEx.dll
 0001:00037dd4       ?SendData@CTCPSocketManageForWeb@@QAEHIEEEK@Z 10038dd4 f   AFCComDllEx:AFCComDllEx.dll
 0001:00037dda       ?SendData@CTCPSocketManageForWeb@@QAEHIPAXIEEEK@Z 10038dda f   AFCComDllEx:AFCComDllEx.dll
 0001:00037de0       ?SendDataBatch@CTCPSocketManageForWeb@@QAEHPAXIEEE@Z 10038de0 f   AFCComDllEx:AFCComDllEx.dll
 0001:00037de6       ??0CDataBaseHandle@@QAE@XZ 10038de6 f   AFCComDllEx:AFCComDllEx.dll
 0001:00037dec       ?CheckSQLConnect@CAFCDataBaseManage@@QAE_NXZ 10038dec f   AFCComDllEx:AFCComDllEx.dll
 0001:00037df2       ?getReturnValue@CDataBaseHandle@@QAEJXZ 10038df2 f   AFCComDllEx:AFCComDllEx.dll
 0001:00037df8       ?closeRecord@CDataBaseHandle@@QAEXXZ 10038df8 f   AFCComDllEx:AFCComDllEx.dll
 0001:00037dfe       ?execStoredProc@CDataBaseHandle@@QAEHXZ 10038dfe f   AFCComDllEx:AFCComDllEx.dll
 0001:00037e04       ?addInputParameter@CDataBaseHandle@@QAEHPBD0I@Z 10038e04 f   AFCComDllEx:AFCComDllEx.dll
 0001:00037e0a       ?addInputParameter@CDataBaseHandle@@QAEHPBDE@Z 10038e0a f   AFCComDllEx:AFCComDllEx.dll
 0001:00037e10       ?addInputParameter@CDataBaseHandle@@QAEHPBDI@Z 10038e10 f   AFCComDllEx:AFCComDllEx.dll
 0001:00037e16       ?addInputParameter@CDataBaseHandle@@QAEHPBDH@Z 10038e16 f   AFCComDllEx:AFCComDllEx.dll
 0001:00037e1c       ?sqlSPSetNameEx@CDataBaseHandle@@QAE_NPBD_N@Z 10038e1c f   AFCComDllEx:AFCComDllEx.dll
 0001:00037e22       ?WriteStr@@YAXPADHH@Z      10038e22 f   AFCComDllEx:AFCComDllEx.dll
 0001:00037e28       ?DebugPrintf@@YAXPBDH0ZZ   10038e28 f   AFCComDllEx:AFCComDllEx.dll
 0001:00037e2e       ?getValue@CDataBaseHandle@@QAEHPBDPA_N@Z 10038e2e f   AFCComDllEx:AFCComDllEx.dll
 0001:00037e34       ?getValue@CDataBaseHandle@@QAEHPBDPAJ@Z 10038e34 f   AFCComDllEx:AFCComDllEx.dll
 0001:00037e3a       ?getValue@CDataBaseHandle@@QAEHPBDPA_J@Z 10038e3a f   AFCComDllEx:AFCComDllEx.dll
 0001:00037e40       ?getValue@CDataBaseHandle@@QAEHPBDPAH@Z 10038e40 f   AFCComDllEx:AFCComDllEx.dll
 0001:00037e46       ?getValue@CDataBaseHandle@@QAEHPBDPADI@Z 10038e46 f   AFCComDllEx:AFCComDllEx.dll
 0001:00037e4c       ?getValue@CDataBaseHandle@@QAEHPBDPAI@Z 10038e4c f   AFCComDllEx:AFCComDllEx.dll
 0001:00037e52       ?ULongToIP@CTCPSocketManage@@SAPADKPAD@Z 10038e52 f   AFCComDllEx:AFCComDllEx.dll
 0001:00037e58       ?addInputParameter@CDataBaseHandle@@QAEHPBD_J@Z 10038e58 f   AFCComDllEx:AFCComDllEx.dll
 0001:00037e5e       ?adoEndOfFile@CDataBaseHandle@@QAE_NXZ 10038e5e f   AFCComDllEx:AFCComDllEx.dll
 0001:00037e64       ?moveNext@CDataBaseHandle@@QAE_NXZ 10038e64 f   AFCComDllEx:AFCComDllEx.dll
 0001:00037e6a       ?getValue@CDataBaseHandle@@QAEHPBDPAVCOleDateTime@ATL@@@Z 10038e6a f   AFCComDllEx:AFCComDllEx.dll
 0001:00037e70       ?addInputParameter@CDataBaseHandle@@QAEHPBD_N@Z 10038e70 f   AFCComDllEx:AFCComDllEx.dll
 0001:00037e76       ?getValue@CDataBaseHandle@@QAEHPBDPAN@Z 10038e76 f   AFCComDllEx:AFCComDllEx.dll
 0001:00037e7c       ?execSQL@CDataBaseHandle@@QAEHPBD_N@Z 10038e7c f   AFCComDllEx:AFCComDllEx.dll
 0001:00037e82       ?getRecordCount@CDataBaseHandle@@QAEJXZ 10038e82 f   AFCComDllEx:AFCComDllEx.dll
 0001:00037e88       ?getValue@CDataBaseHandle@@QAEHPBDPAE@Z 10038e88 f   AFCComDllEx:AFCComDllEx.dll
 0001:00037e8e       ?getValue@CDataBaseHandle@@QAEHPBDPAEI@Z 10038e8e f   AFCComDllEx:AFCComDllEx.dll
 0001:00037e94       ?SQLConnectReset@CAFCDataBaseManage@@QAE_NXZ 10038e94 f   AFCComDllEx:AFCComDllEx.dll
 0001:00037e9a       ?addInputParameter@CDataBaseHandle@@QAEHPBDPAEI@Z 10038e9a f   AFCComDllEx:AFCComDllEx.dll
 0001:00037ea0       ??1MD5_CTX@@UAE@XZ         10038ea0 f   AFCComDllEx:AFCComDllEx.dll
 0001:00037ea6       ?MD5Final@MD5_CTX@@QAEXQAE@Z 10038ea6 f   AFCComDllEx:AFCComDllEx.dll
 0001:00037eac       ?MD5Update@MD5_CTX@@QAEXPAEI@Z 10038eac f   AFCComDllEx:AFCComDllEx.dll
 0001:00037eb2       ??0MD5_CTX@@QAE@XZ         10038eb2 f   AFCComDllEx:AFCComDllEx.dll
 0001:00037eb8       ?SetTimer@CBaseMainManageForWeb@@QAE_NII@Z 10038eb8 f   AFCComDllEx:AFCComDllEx.dll
 0001:00037ebe       ?KillTimer@CBaseMainManageForWeb@@QAE_NI@Z 10038ebe f   AFCComDllEx:AFCComDllEx.dll
 0001:00037ec4       ?censor@HNFilter@@QAE_NAAV?$basic_string@DU?$char_traits@D@std@@V?$allocator@D@2@@std@@_N@Z 10038ec4 f   AFCComDllEx:AFCComDllEx.dll
 0001:00037eca       ??1CBaseMainManageForWeb@@UAE@XZ 10038eca f   AFCComDllEx:AFCComDllEx.dll
 0001:00037ed0       ??0CBaseMainManageForWeb@@QAE@XZ 10038ed0 f   AFCComDllEx:AFCComDllEx.dll
 0001:00037ed6       ?OnSocketCloseEvent@CBaseMainManageForWeb@@UAE_NKIJ@Z 10038ed6 f   AFCComDllEx:AFCComDllEx.dll
 0001:00037edc       ?OnSocketReadEvent@CBaseMainManageForWeb@@UAE_NPAVCTCPSocketForWeb@@PAUNetMessageHead@@PAXIIK@Z 10038edc f   AFCComDllEx:AFCComDllEx.dll
 0001:00037ee2       ?Init@CBaseMainManageForWeb@@UAE_NPAUManageInfoStruct@@PAUIDataBaseHandleService@@@Z 10038ee2 f   AFCComDllEx:AFCComDllEx.dll
 0001:00037ee8       ?UnInit@CBaseMainManageForWeb@@UAE_NXZ 10038ee8 f   AFCComDllEx:AFCComDllEx.dll
 0001:00037eee       ?Start@CBaseMainManageForWeb@@UAE_NXZ 10038eee f   AFCComDllEx:AFCComDllEx.dll
 0001:00037ef4       ?Stop@CBaseMainManageForWeb@@UAE_NXZ 10038ef4 f   AFCComDllEx:AFCComDllEx.dll
 0001:00037efa       ?OnDataBaseResultEvent@CBaseMainManageForWeb@@UAE_NPAUDataBaseResultLine@@IIIIK@Z 10038efa f   AFCComDllEx:AFCComDllEx.dll
 0001:00037f00       ?CloseSocket@CTCPSocketManageForWeb@@QAE_NIK@Z 10038f00 f   AFCComDllEx:AFCComDllEx.dll
 0001:00037f06       ?IsConnectID@CTCPSocketManageForWeb@@QAE_NIK@Z 10038f06 f   AFCComDllEx:AFCComDllEx.dll
 0001:00037f0c       ??0CAFCException@@QAE@PADI_N@Z 10038f0c f   AFCComDllEx:AFCComDllEx.dll
 0001:00037f12       ??3@YAXPAX@Z               10038f12 f   mfc100:mfc100.dll
 0001:00037f18       ??_V@YAXPAX@Z              10038f18 f   mfc100:mfc100.dll
 0001:00037f1e       ??2@YAPAXI@Z               10038f1e f   mfc100:mfc100.dll
 0001:00037f24       ?AfxGetModuleState@@YGPAVAFX_MODULE_STATE@@XZ 10038f24 f   mfc100:mfc100.dll
 0001:00037f2a       ??_U@YAPAXI@Z              10038f2a f   mfc100:mfc100.dll
 0001:00037f30       ?AfxThrowOleException@@YGXJ@Z 10038f30 f   mfc100:mfc100.dll
 0001:00037f36       ?AfxThrowMemoryException@@YGXXZ 10038f36 f   mfc100:mfc100.dll
 0001:00037f3c       ??1CPtrArray@@UAE@XZ       10038f3c f   mfc100:mfc100.dll
 0001:00037f42       ??0CPtrArray@@QAE@XZ       10038f42 f   mfc100:mfc100.dll
 0001:00037f48       ?AfxThrowInvalidArgException@@YGXXZ 10038f48 f   mfc100:mfc100.dll
 0001:00037f4e       ?SetAtGrow@CPtrArray@@QAEXHPAX@Z 10038f4e f   mfc100:mfc100.dll
 0001:00037f54       ?Close@CFile@@UAEXXZ       10038f54 f   mfc100:mfc100.dll
 0001:00037f5a       ??1CFile@@UAE@XZ           10038f5a f   mfc100:mfc100.dll
 0001:00037f60       ?Open@CFile@@UAEHPBDIPAVCFileException@@@Z 10038f60 f   mfc100:mfc100.dll
 0001:00037f66       ??0CFile@@QAE@XZ           10038f66 f   mfc100:mfc100.dll
 0001:00037f6c       ?AfxMessageBox@@YGHPBDII@Z 10038f6c f   mfc100:mfc100.dll
 0001:00037f72       ?GetRuntimeClass@CObject@@UBEPAUCRuntimeClass@@XZ 10038f72 f   mfc100:mfc100.dll
 0001:00037f78       ?ReadCount@CArchive@@QAEKXZ 10038f78 f   mfc100:mfc100.dll
 0001:00037f7e       ?WriteCount@CArchive@@QAEXK@Z 10038f7e f   mfc100:mfc100.dll
 0001:00037f84       ?Write@CArchive@@QAEXPBXI@Z 10038f84 f   mfc100:mfc100.dll
 0001:00037f8a       ?AfxThrowArchiveException@@YGXHPBD@Z 10038f8a f   mfc100:mfc100.dll
 0001:00037f90       ?Read@CArchive@@QAEIPAXI@Z 10038f90 f   mfc100:mfc100.dll
 0001:00037f96       ?AfxWinInit@@YGHPAUHINSTANCE__@@0PADH@Z 10038f96 f   mfc100:mfc100.dll
 0001:00037f9c       ??0CWinApp@@QAE@PBD@Z      10038f9c f   mfc100:mfc100.dll
 0001:00037fa2       ??1CWinApp@@UAE@XZ         10038fa2 f   mfc100:mfc100.dll
 0001:00037fa8       ?AfxWndProcDllStatic@@YGJPAUHWND__@@IIJ@Z 10038fa8 f   mfcs100:dllmodul.obj
 0001:00037ff3       _InternalDllMain@12        10038ff3 f   mfcs100:dllmodul.obj
 0001:00038183       _RawDllMain@12             10039183 f   mfcs100:dllmodul.obj
 0001:000381e1       _DllMain@12                100391e1 f   mfcs100:dllmodul.obj
 0001:00038220       ??_E_AFX_DLL_MODULE_STATE@@UAEPAXI@Z 10039220 f i mfcs100:dllmodul.obj
 0001:00038220       ??_G_AFX_DLL_MODULE_STATE@@UAEPAXI@Z 10039220 f i mfcs100:dllmodul.obj
 0001:00038240       ?AfxGetApp@@YGPAVCWinApp@@XZ 10039240 f i mfcs100:dllmodulx.obj
 0001:00038249       ??_Etype_info@@UAEPAXI@Z   10039249 f i msvcrt:ti_inst.obj
 0001:00038295       ?__ArrayUnwind@@YGXPAXIHP6EX0@Z@Z 10039295 f   msvcrt:ehvecdtr.obj
 0001:000382f3       ??_M@YGXPAXIHP6EX0@Z@Z     100392f3 f   msvcrt:ehvecdtr.obj
 0001:00038356       _memcpy                    10039356 f   msvcrt:MSVCR100.dll
 0001:0003835c       __purecall                 1003935c f   msvcrt:MSVCR100.dll
 0001:00038362       ___CxxFrameHandler3        10039362 f   msvcrt:MSVCR100.dll
 0001:00038368       @__security_check_cookie@4 10039368 f   msvcrt:secchk.obj
 0001:00038378       __CxxThrowException@8      10039378 f   msvcrt:MSVCR100.dll
 0001:0003837e       ??0exception@std@@QAE@ABV01@@Z 1003937e f   msvcrt:MSVCR100.dll
 0001:00038384       ?what@exception@std@@UBEPBDXZ 10039384 f   msvcrt:MSVCR100.dll
 0001:0003838a       _memset                    1003938a f   msvcrt:MSVCR100.dll
 0001:00038390       __alloca_probe             10039390     msvcrt:chkstk.obj
 0001:00038390       __chkstk                   10039390 f   msvcrt:chkstk.obj
 0001:000383bc       _strcmp                    100393bc f   msvcrt:MSVCR100.dll
 0001:000383c2       _strcpy                    100393c2 f   msvcrt:MSVCR100.dll
 0001:000383d0       __alldiv                   100393d0 f   msvcrt:lldiv.obj
 0001:00038480       __allmul                   10039480 f   msvcrt:llmul.obj
 0001:000384c0       __ftol2_sse                100394c0 f   msvcrt:ftol2.obj
 0001:000384c9       __ftol2_pentium4           100394c9 f   msvcrt:ftol2.obj
 0001:000384dc       __ftol2_sse_excpt          100394dc f   msvcrt:ftol2.obj
 0001:000384f6       __ftol2                    100394f6 f   msvcrt:ftol2.obj
 0001:0003856c       _strlen                    1003956c f   msvcrt:MSVCR100.dll
 0001:00038572       _strcat                    10039572 f   msvcrt:MSVCR100.dll
 0001:00038578       ??_L@YGXPAXIHP6EX0@Z1@Z    10039578 f   msvcrt:ehvecctr.obj
 0001:000385dd       __onexit                   100395dd f   msvcrt:atonexit.obj
 0001:0003867e       _atexit                    1003967e f   msvcrt:atonexit.obj
 0001:00038696       _asin                      10039696 f   msvcrt:MSVCR100.dll
 0001:0003869c       _sqrt                      1003969c f   msvcrt:MSVCR100.dll
 0001:000386a2       _cos                       100396a2 f   msvcrt:MSVCR100.dll
 0001:000386a8       _sin                       100396a8 f   msvcrt:MSVCR100.dll
 0001:000386fc       __CRT_INIT@12              100396fc f   msvcrt:crtdll.obj
 0001:00038a1c       __DllMainCRTStartup@12     10039a1c f   msvcrt:crtdll.obj
 0001:00038a3f       __EH_prolog3               10039a3f f   msvcrt:ehprolg3.obj
 0001:00038a72       __EH_prolog3_catch         10039a72 f   msvcrt:ehprolg3.obj
 0001:00038aa8       __EH_epilog3               10039aa8 f   msvcrt:ehprolg3.obj
 0001:00038abc       ?terminate@@YAXXZ          10039abc f   msvcrt:MSVCR100.dll
 0001:00038ad0       __SEH_prolog4              10039ad0 f   msvcrt:sehprolg4.obj
 0001:00038b15       __SEH_epilog4              10039b15 f   msvcrt:sehprolg4.obj
 0001:00038b29       __except_handler4          10039b29 f   msvcrt:chandler4gs.obj
 0001:00038b4e       ___report_gsfailure        10039b4e f   msvcrt:gs_report.obj
 0001:00038c54       ___sse2_available_init     10039c54 f   msvcrt:cpu_disp.obj
 0001:00038c64       __unlock                   10039c64 f   msvcrt:MSVCR100.dll
 0001:00038c6a       ___dllonexit               10039c6a f   msvcrt:MSVCR100.dll
 0001:00038c70       __lock                     10039c70 f   msvcrt:MSVCR100.dll
 0001:00038c76       ___clean_type_info_names   10039c76 f   msvcrt:tncleanup.obj
 0001:00038c82       __RTC_Initialize           10039c82 f   msvcrt:_initsect_.obj
 0001:00038ca8       __RTC_Terminate            10039ca8 f   msvcrt:_initsect_.obj
 0001:00038cd0       __ValidateImageBase        10039cd0 f   msvcrt:pesect.obj
 0001:00038d10       __FindPESection            10039d10 f   msvcrt:pesect.obj
 0001:00038d60       __IsNonwritableInCurrentImage 10039d60 f   msvcrt:pesect.obj
 0001:00038e1c       __initterm                 10039e1c f   msvcrt:MSVCR100.dll
 0001:00038e22       __initterm_e               10039e22 f   msvcrt:MSVCR100.dll
 0001:00038e28       __amsg_exit                10039e28 f   msvcrt:MSVCR100.dll
 0001:00038e2e       ___CppXcptFilter           10039e2e f   msvcrt:MSVCR100.dll
 0001:00038e34       ___security_init_cookie    10039e34 f   msvcrt:gs_support.obj
 0001:00038ed0       ??1type_info@@UAE@XZ       10039ed0 f   msvcrt:MSVCR100.dll
 0001:00038ed0       ?_type_info_dtor_internal_method@type_info@@QAEXXZ 10039ed0 f   msvcrt:MSVCR100.dll
 0001:00038ed6       __except_handler4_common   10039ed6 f   msvcrt:MSVCR100.dll
 0001:00038edc       __crt_debugger_hook        10039edc f   msvcrt:MSVCR100.dll
 0001:00038ee2       ___clean_type_info_names_internal 10039ee2 f   msvcrt:MSVCR100.dll
 0001:00038ee8       _GetAdaptersInfo@8         10039ee8 f   IPHLPAPI:IPHLPAPI.DLL
 0001:00038eee       ??1AFX_MODULE_STATE@@UAE@XZ 10039eee f   mfc100:mfc100.dll
 0001:00038ef4       ??1AFX_MAINTAIN_STATE2@@QAE@XZ 10039ef4 f   mfc100:mfc100.dll
 0001:00038efa       ?AfxWndProc@@YGJPAUHWND__@@IIJ@Z 10039efa f   mfc100:mfc100.dll
 0001:00038f00       ??0AFX_MAINTAIN_STATE2@@QAE@PAVAFX_MODULE_STATE@@@Z 10039f00 f   mfc100:mfc100.dll
 0001:00038f06       ?AfxTermThread@@YGXPAUHINSTANCE__@@@Z 10039f06 f   mfc100:mfc100.dll
 0001:00038f0c       ?AfxTermExtensionModule@@YGXAAUAFX_EXTENSION_MODULE@@H@Z 10039f0c f   mfc100:mfc100.dll
 0001:00038f12       ?AfxUnlockTempMaps@@YGHH@Z 10039f12 f   mfc100:mfc100.dll
 0001:00038f18       ?AfxLockTempMaps@@YGXXZ    10039f18 f   mfc100:mfc100.dll
 0001:00038f1e       ?AfxSetModuleState@@YGPAVAFX_MODULE_STATE@@PAV1@@Z 10039f1e f   mfc100:mfc100.dll
 0001:00038f24       ?Delete@CException@@QAEXXZ 10039f24 f   mfc100:mfc100.dll
 0001:00038f2a       ??0CDynLinkLibrary@@QAE@AAUAFX_EXTENSION_MODULE@@H@Z 10039f2a f   mfc100:mfc100.dll
 0001:00038f30       ?AfxInitExtensionModule@@YGHAAUAFX_EXTENSION_MODULE@@PAUHINSTANCE__@@@Z 10039f30 f   mfc100:mfc100.dll
 0001:00038f36       ?AfxWinTerm@@YGXXZ         10039f36 f   mfc100:mfc100.dll
 0001:00038f3c       ?AfxGetThreadState@@YGPAV_AFX_THREAD_STATE@@XZ 10039f3c f   mfc100:mfc100.dll
 0001:00038f42       ?AfxCoreInitModule@@YGXXZ  10039f42 f   mfc100:mfc100.dll
 0001:00038f48       ??0AFX_MODULE_STATE@@QAE@HP6GJPAUHWND__@@IIJ@ZKH@Z 10039f48 f   mfc100:mfc100.dll
 0001:00038f4e       ??3CNoTrackObject@@SGXPAX@Z 10039f4e f   mfc100:mfc100.dll
 0001:00039014       __RawDllMainProxy@12       1003a014 f   mfcs100:rawdllmainproxy.obj
 0002:00000000       __imp_??1CUDPSocket@@UAE@XZ 1003d000     AFCComDllEx:AFCComDllEx.dll
 0002:00000004       __imp_??1CListenSocket@@UAE@XZ 1003d004     AFCComDllEx:AFCComDllEx.dll
 0002:00000008       __imp_??1CTCPSocket@@UAE@XZ 1003d008     AFCComDllEx:AFCComDllEx.dll
 0002:0000000c       __imp_??1CTCPSocketForZ@@UAE@XZ 1003d00c     AFCComDllEx:AFCComDllEx.dll
 0002:00000010       __imp_?GetErrorCode@CAFCException@@UBEIXZ 1003d010     AFCComDllEx:AFCComDllEx.dll
 0002:00000014       __imp_?GetErrorMessage@CAFCException@@UBEPBDPADH@Z 1003d014     AFCComDllEx:AFCComDllEx.dll
 0002:00000018       __imp_?Delete@CAFCException@@UAE_NXZ 1003d018     AFCComDllEx:AFCComDllEx.dll
 0002:0000001c       __imp_??1CAFCException@@UAE@XZ 1003d01c     AFCComDllEx:AFCComDllEx.dll
 0002:00000020       __imp_?SetParameter@CDataBaseHandle@@UAE_NPAUIDataBaseResultService@@PAVCAFCDataBaseManage@@PAUManageInfoStruct@@PAUKernelInfoStruct@@@Z 1003d020     AFCComDllEx:AFCComDllEx.dll
 0002:00000024       __imp_??1CDataBaseHandle@@UAE@XZ 1003d024     AFCComDllEx:AFCComDllEx.dll
 0002:00000028       __imp_??1CTCPSocketForWeb@@UAE@XZ 1003d028     AFCComDllEx:AFCComDllEx.dll
 0002:0000002c       __imp_??0CTCPClientSocket@@QAE@PAUIClientSocketService@@@Z 1003d02c     AFCComDllEx:AFCComDllEx.dll
 0002:00000030       __imp_?Connect@CTCPClientSocket@@QAE_NPBDI@Z 1003d030     AFCComDllEx:AFCComDllEx.dll
 0002:00000034       __imp_?SendData@CTCPClientSocket@@QAEHPAXIEEE@Z 1003d034     AFCComDllEx:AFCComDllEx.dll
 0002:00000038       __imp_?SendData@CTCPClientSocket@@QAEHEEE@Z 1003d038     AFCComDllEx:AFCComDllEx.dll
 0002:0000003c       __imp_?SetCheckCode@CTCPClientSocket@@QAEX_JH@Z 1003d03c     AFCComDllEx:AFCComDllEx.dll
 0002:00000040       __imp_??1CBcfFile@@QAE@XZ  1003d040     AFCComDllEx:AFCComDllEx.dll
 0002:00000044       __imp_?GetKeyVal@CBcfFile@@QAEHV?$CStringT@DV?$StrTraitMFC_DLL@DV?$ChTraitsCRT@D@ATL@@@@@ATL@@0H@Z 1003d044     AFCComDllEx:AFCComDllEx.dll
 0002:00000048       __imp_??0CBcfFile@@QAE@V?$CStringT@DV?$StrTraitMFC_DLL@DV?$ChTraitsCRT@D@ATL@@@@@ATL@@@Z 1003d048     AFCComDllEx:AFCComDllEx.dll
 0002:0000004c       __imp_?GetAppPath@CBcfFile@@SA?AV?$CStringT@DV?$StrTraitMFC_DLL@DV?$ChTraitsCRT@D@ATL@@@@@ATL@@_N@Z 1003d04c     AFCComDllEx:AFCComDllEx.dll
 0002:00000050       __imp_?PushLine@CAFCDataBaseManage@@QAE_NPAUDataBaseLineHead@@IIIK@Z 1003d050     AFCComDllEx:AFCComDllEx.dll
 0002:00000054       __imp_?SendData@CTCPSocketManageForWeb@@QAEHIEEEK@Z 1003d054     AFCComDllEx:AFCComDllEx.dll
 0002:00000058       __imp_?SendData@CTCPSocketManageForWeb@@QAEHIPAXIEEEK@Z 1003d058     AFCComDllEx:AFCComDllEx.dll
 0002:0000005c       __imp_?SendDataBatch@CTCPSocketManageForWeb@@QAEHPAXIEEE@Z 1003d05c     AFCComDllEx:AFCComDllEx.dll
 0002:00000060       __imp_??0CDataBaseHandle@@QAE@XZ 1003d060     AFCComDllEx:AFCComDllEx.dll
 0002:00000064       __imp_?CheckSQLConnect@CAFCDataBaseManage@@QAE_NXZ 1003d064     AFCComDllEx:AFCComDllEx.dll
 0002:00000068       __imp_?getReturnValue@CDataBaseHandle@@QAEJXZ 1003d068     AFCComDllEx:AFCComDllEx.dll
 0002:0000006c       __imp_?closeRecord@CDataBaseHandle@@QAEXXZ 1003d06c     AFCComDllEx:AFCComDllEx.dll
 0002:00000070       __imp_?execStoredProc@CDataBaseHandle@@QAEHXZ 1003d070     AFCComDllEx:AFCComDllEx.dll
 0002:00000074       __imp_?addInputParameter@CDataBaseHandle@@QAEHPBD0I@Z 1003d074     AFCComDllEx:AFCComDllEx.dll
 0002:00000078       __imp_?addInputParameter@CDataBaseHandle@@QAEHPBDE@Z 1003d078     AFCComDllEx:AFCComDllEx.dll
 0002:0000007c       __imp_?addInputParameter@CDataBaseHandle@@QAEHPBDI@Z 1003d07c     AFCComDllEx:AFCComDllEx.dll
 0002:00000080       __imp_?addInputParameter@CDataBaseHandle@@QAEHPBDH@Z 1003d080     AFCComDllEx:AFCComDllEx.dll
 0002:00000084       __imp_?sqlSPSetNameEx@CDataBaseHandle@@QAE_NPBD_N@Z 1003d084     AFCComDllEx:AFCComDllEx.dll
 0002:00000088       __imp_?WriteStr@@YAXPADHH@Z 1003d088     AFCComDllEx:AFCComDllEx.dll
 0002:0000008c       __imp_?DebugPrintf@@YAXPBDH0ZZ 1003d08c     AFCComDllEx:AFCComDllEx.dll
 0002:00000090       __imp_?getValue@CDataBaseHandle@@QAEHPBDPA_N@Z 1003d090     AFCComDllEx:AFCComDllEx.dll
 0002:00000094       __imp_?getValue@CDataBaseHandle@@QAEHPBDPAJ@Z 1003d094     AFCComDllEx:AFCComDllEx.dll
 0002:00000098       __imp_?getValue@CDataBaseHandle@@QAEHPBDPA_J@Z 1003d098     AFCComDllEx:AFCComDllEx.dll
 0002:0000009c       __imp_?getValue@CDataBaseHandle@@QAEHPBDPAH@Z 1003d09c     AFCComDllEx:AFCComDllEx.dll
 0002:000000a0       __imp_?getValue@CDataBaseHandle@@QAEHPBDPADI@Z 1003d0a0     AFCComDllEx:AFCComDllEx.dll
 0002:000000a4       __imp_?getValue@CDataBaseHandle@@QAEHPBDPAI@Z 1003d0a4     AFCComDllEx:AFCComDllEx.dll
 0002:000000a8       __imp_?ULongToIP@CTCPSocketManage@@SAPADKPAD@Z 1003d0a8     AFCComDllEx:AFCComDllEx.dll
 0002:000000ac       __imp_?addInputParameter@CDataBaseHandle@@QAEHPBD_J@Z 1003d0ac     AFCComDllEx:AFCComDllEx.dll
 0002:000000b0       __imp_?adoEndOfFile@CDataBaseHandle@@QAE_NXZ 1003d0b0     AFCComDllEx:AFCComDllEx.dll
 0002:000000b4       __imp_?moveNext@CDataBaseHandle@@QAE_NXZ 1003d0b4     AFCComDllEx:AFCComDllEx.dll
 0002:000000b8       __imp_?getValue@CDataBaseHandle@@QAEHPBDPAVCOleDateTime@ATL@@@Z 1003d0b8     AFCComDllEx:AFCComDllEx.dll
 0002:000000bc       __imp_?addInputParameter@CDataBaseHandle@@QAEHPBD_N@Z 1003d0bc     AFCComDllEx:AFCComDllEx.dll
 0002:000000c0       __imp_?getValue@CDataBaseHandle@@QAEHPBDPAN@Z 1003d0c0     AFCComDllEx:AFCComDllEx.dll
 0002:000000c4       __imp_?execSQL@CDataBaseHandle@@QAEHPBD_N@Z 1003d0c4     AFCComDllEx:AFCComDllEx.dll
 0002:000000c8       __imp_?GetKeyVal@CBcfFile@@QAE?AV?$CStringT@DV?$StrTraitMFC_DLL@DV?$ChTraitsCRT@D@ATL@@@@@ATL@@V23@0PBD@Z 1003d0c8     AFCComDllEx:AFCComDllEx.dll
 0002:000000cc       __imp_?getRecordCount@CDataBaseHandle@@QAEJXZ 1003d0cc     AFCComDllEx:AFCComDllEx.dll
 0002:000000d0       __imp_?getValue@CDataBaseHandle@@QAEHPBDPAE@Z 1003d0d0     AFCComDllEx:AFCComDllEx.dll
 0002:000000d4       __imp_?getValue@CDataBaseHandle@@QAEHPBDPAEI@Z 1003d0d4     AFCComDllEx:AFCComDllEx.dll
 0002:000000d8       __imp_?SQLConnectReset@CAFCDataBaseManage@@QAE_NXZ 1003d0d8     AFCComDllEx:AFCComDllEx.dll
 0002:000000dc       __imp_?addInputParameter@CDataBaseHandle@@QAEHPBDPAEI@Z 1003d0dc     AFCComDllEx:AFCComDllEx.dll
 0002:000000e0       __imp_??1MD5_CTX@@UAE@XZ   1003d0e0     AFCComDllEx:AFCComDllEx.dll
 0002:000000e4       __imp_?CloseFile@CBcfFile@@QAEXXZ 1003d0e4     AFCComDllEx:AFCComDllEx.dll
 0002:000000e8       __imp_?MD5Final@MD5_CTX@@QAEXQAE@Z 1003d0e8     AFCComDllEx:AFCComDllEx.dll
 0002:000000ec       __imp_?MD5Update@MD5_CTX@@QAEXPAEI@Z 1003d0ec     AFCComDllEx:AFCComDllEx.dll
 0002:000000f0       __imp_??0MD5_CTX@@QAE@XZ   1003d0f0     AFCComDllEx:AFCComDllEx.dll
 0002:000000f4       __imp_?SetTimer@CBaseMainManageForWeb@@QAE_NII@Z 1003d0f4     AFCComDllEx:AFCComDllEx.dll
 0002:000000f8       __imp_?KillTimer@CBaseMainManageForWeb@@QAE_NI@Z 1003d0f8     AFCComDllEx:AFCComDllEx.dll
 0002:000000fc       __imp_?censor@HNFilter@@QAE_NAAV?$basic_string@DU?$char_traits@D@std@@V?$allocator@D@2@@std@@_N@Z 1003d0fc     AFCComDllEx:AFCComDllEx.dll
 0002:00000100       __imp_??1CBaseMainManageForWeb@@UAE@XZ 1003d100     AFCComDllEx:AFCComDllEx.dll
 0002:00000104       __imp_??0CBaseMainManageForWeb@@QAE@XZ 1003d104     AFCComDllEx:AFCComDllEx.dll
 0002:00000108       __imp_?OnSocketCloseEvent@CBaseMainManageForWeb@@UAE_NKIJ@Z 1003d108     AFCComDllEx:AFCComDllEx.dll
 0002:0000010c       __imp_?OnSocketReadEvent@CBaseMainManageForWeb@@UAE_NPAVCTCPSocketForWeb@@PAUNetMessageHead@@PAXIIK@Z 1003d10c     AFCComDllEx:AFCComDllEx.dll
 0002:00000110       __imp_?Init@CBaseMainManageForWeb@@UAE_NPAUManageInfoStruct@@PAUIDataBaseHandleService@@@Z 1003d110     AFCComDllEx:AFCComDllEx.dll
 0002:00000114       __imp_?UnInit@CBaseMainManageForWeb@@UAE_NXZ 1003d114     AFCComDllEx:AFCComDllEx.dll
 0002:00000118       __imp_?Start@CBaseMainManageForWeb@@UAE_NXZ 1003d118     AFCComDllEx:AFCComDllEx.dll
 0002:0000011c       __imp_?Stop@CBaseMainManageForWeb@@UAE_NXZ 1003d11c     AFCComDllEx:AFCComDllEx.dll
 0002:00000120       __imp_?OnDataBaseResultEvent@CBaseMainManageForWeb@@UAE_NPAUDataBaseResultLine@@IIIIK@Z 1003d120     AFCComDllEx:AFCComDllEx.dll
 0002:00000124       __imp_?CloseSocket@CTCPSocketManageForWeb@@QAE_NIK@Z 1003d124     AFCComDllEx:AFCComDllEx.dll
 0002:00000128       __imp_?IsConnectID@CTCPSocketManageForWeb@@QAE_NIK@Z 1003d128     AFCComDllEx:AFCComDllEx.dll
 0002:0000012c       __imp_?GetDataCount@CDataLine@@QAEHXZ 1003d12c     AFCComDllEx:AFCComDllEx.dll
 0002:00000130       __imp_??0CAFCException@@QAE@PADI_N@Z 1003d130     AFCComDllEx:AFCComDllEx.dll
 0002:00000134       \177AFCComDllEx_NULL_THUNK_DATA 1003d134     AFCComDllEx:AFCComDllEx.dll
 0002:00000138       __imp__GetAdaptersInfo@8   1003d138     IPHLPAPI:IPHLPAPI.DLL
 0002:0000013c       \177IPHLPAPI_NULL_THUNK_DATA 1003d13c     IPHLPAPI:IPHLPAPI.DLL
 0002:00000140       __imp__InitializeCriticalSection@4 1003d140     kernel32:KERNEL32.dll
 0002:00000144       __imp__EnterCriticalSection@4 1003d144     kernel32:KERNEL32.dll
 0002:00000148       __imp__LeaveCriticalSection@4 1003d148     kernel32:KERNEL32.dll
 0002:0000014c       __imp__GetLastError@0      1003d14c     kernel32:KERNEL32.dll
 0002:00000150       __imp__SetCurrentDirectoryA@4 1003d150     kernel32:KERNEL32.dll
 0002:00000154       __imp__GetSystemTimeAsFileTime@4 1003d154     kernel32:KERNEL32.dll
 0002:00000158       __imp__GetTickCount@0      1003d158     kernel32:KERNEL32.dll
 0002:0000015c       __imp__QueryPerformanceCounter@4 1003d15c     kernel32:KERNEL32.dll
 0002:00000160       __imp__IsProcessorFeaturePresent@4 1003d160     kernel32:KERNEL32.dll
 0002:00000164       __imp__IsDebuggerPresent@0 1003d164     kernel32:KERNEL32.dll
 0002:00000168       __imp__UnhandledExceptionFilter@4 1003d168     kernel32:KERNEL32.dll
 0002:0000016c       __imp__TerminateProcess@8  1003d16c     kernel32:KERNEL32.dll
 0002:00000170       __imp__InterlockedCompareExchange@12 1003d170     kernel32:KERNEL32.dll
 0002:00000174       __imp__InterlockedExchange@8 1003d174     kernel32:KERNEL32.dll
 0002:00000178       __imp__DecodePointer@4     1003d178     kernel32:KERNEL32.dll
 0002:0000017c       __imp__EncodePointer@4     1003d17c     kernel32:KERNEL32.dll
 0002:00000180       __imp__LocalAlloc@8        1003d180     kernel32:KERNEL32.dll
 0002:00000184       __imp__LocalFree@4         1003d184     kernel32:KERNEL32.dll
 0002:00000188       __imp__SetUnhandledExceptionFilter@4 1003d188     kernel32:KERNEL32.dll
 0002:0000018c       __imp__GetCurrentThreadId@0 1003d18c     kernel32:KERNEL32.dll
 0002:00000190       __imp__GetCurrentProcessId@0 1003d190     kernel32:KERNEL32.dll
 0002:00000194       __imp__GetCurrentProcess@0 1003d194     kernel32:KERNEL32.dll
 0002:00000198       __imp__WritePrivateProfileStringA@16 1003d198     kernel32:KERNEL32.dll
 0002:0000019c       __imp__CreateDirectoryA@8  1003d19c     kernel32:KERNEL32.dll
 0002:000001a0       __imp__GetPrivateProfileIntA@16 1003d1a0     kernel32:KERNEL32.dll
 0002:000001a4       __imp__MoveFileA@8         1003d1a4     kernel32:KERNEL32.dll
 0002:000001a8       __imp__lstrlenA@4          1003d1a8     kernel32:KERNEL32.dll
 0002:000001ac       __imp__lstrcmpA@8          1003d1ac     kernel32:KERNEL32.dll
 0002:000001b0       __imp__OutputDebugStringA@4 1003d1b0     kernel32:KERNEL32.dll
 0002:000001b4       __imp__Sleep@4             1003d1b4     kernel32:KERNEL32.dll
 0002:000001b8       __imp__lstrcpyA@8          1003d1b8     kernel32:KERNEL32.dll
 0002:000001bc       __imp__GetLocalTime@4      1003d1bc     kernel32:KERNEL32.dll
 0002:000001c0       __imp__GetTimeFormatA@24   1003d1c0     kernel32:KERNEL32.dll
 0002:000001c4       __imp__GetDateFormatA@24   1003d1c4     kernel32:KERNEL32.dll
 0002:000001c8       __imp__GetPrivateProfileStringA@24 1003d1c8     kernel32:KERNEL32.dll
 0002:000001cc       __imp__GetCurrentDirectoryA@8 1003d1cc     kernel32:KERNEL32.dll
 0002:000001d0       __imp__GetModuleFileNameA@12 1003d1d0     kernel32:KERNEL32.dll
 0002:000001d4       __imp__DeleteCriticalSection@4 1003d1d4     kernel32:KERNEL32.dll
 0002:000001d8       \177KERNEL32_NULL_THUNK_DATA 1003d1d8     kernel32:KERNEL32.dll
 0002:000001dc       __imp_?_Xlength_error@std@@YAXPBD@Z 1003d1dc     msvcprt:MSVCP100.dll
 0002:000001e0       __imp_?_Orphan_all@_Container_base0@std@@QAEXXZ 1003d1e0     msvcprt:MSVCP100.dll
 0002:000001e4       __imp_?_Swap_all@_Container_base0@std@@QAEXAAU12@@Z 1003d1e4     msvcprt:MSVCP100.dll
 0002:000001e8       __imp_?_Xout_of_range@std@@YAXPBD@Z 1003d1e8     msvcprt:MSVCP100.dll
 0002:000001ec       \177MSVCP100_NULL_THUNK_DATA 1003d1ec     msvcprt:MSVCP100.dll
 0002:000001f0       __imp____CxxFrameHandler3  1003d1f0     msvcrt:MSVCR100.dll
 0002:000001f4       __imp___time64             1003d1f4     msvcrt:MSVCR100.dll
 0002:000001f8       __imp___CxxThrowException@8 1003d1f8     msvcrt:MSVCR100.dll
 0002:000001fc       __imp_??0exception@std@@QAE@ABV01@@Z 1003d1fc     msvcrt:MSVCR100.dll
 0002:00000200       __imp_??0exception@std@@QAE@ABQBD@Z 1003d200     msvcrt:MSVCR100.dll
 0002:00000204       __imp_?what@exception@std@@UBEPBDXZ 1003d204     msvcrt:MSVCR100.dll
 0002:00000208       __imp_??1exception@std@@UAE@XZ 1003d208     msvcrt:MSVCR100.dll
 0002:0000020c       __imp__memset              1003d20c     msvcrt:MSVCR100.dll
 0002:00000210       __imp__memmove             1003d210     msvcrt:MSVCR100.dll
 0002:00000214       __imp__fclose              1003d214     msvcrt:MSVCR100.dll
 0002:00000218       __imp__vfprintf            1003d218     msvcrt:MSVCR100.dll
 0002:0000021c       __imp__fprintf             1003d21c     msvcrt:MSVCR100.dll
 0002:00000220       __imp__fopen               1003d220     msvcrt:MSVCR100.dll
 0002:00000224       __imp__sprintf             1003d224     msvcrt:MSVCR100.dll
 0002:00000228       __imp__rand                1003d228     msvcrt:MSVCR100.dll
 0002:0000022c       __imp__sscanf              1003d22c     msvcrt:MSVCR100.dll
 0002:00000230       __imp___mktime64           1003d230     msvcrt:MSVCR100.dll
 0002:00000234       __imp__atoi                1003d234     msvcrt:MSVCR100.dll
 0002:00000238       __imp__memcpy_s            1003d238     msvcrt:MSVCR100.dll
 0002:0000023c       __imp__strcpy_s            1003d23c     msvcrt:MSVCR100.dll
 0002:00000240       __imp__free                1003d240     msvcrt:MSVCR100.dll
 0002:00000244       __imp__malloc              1003d244     msvcrt:MSVCR100.dll
 0002:00000248       __imp__srand               1003d248     msvcrt:MSVCR100.dll
 0002:0000024c       __imp__strcmp              1003d24c     msvcrt:MSVCR100.dll
 0002:00000250       __imp__strcpy              1003d250     msvcrt:MSVCR100.dll
 0002:00000254       __imp___purecall           1003d254     msvcrt:MSVCR100.dll
 0002:00000258       __imp__vsprintf_s          1003d258     msvcrt:MSVCR100.dll
 0002:0000025c       __imp___localtime64_s      1003d25c     msvcrt:MSVCR100.dll
 0002:00000260       __imp__ceil                1003d260     msvcrt:MSVCR100.dll
 0002:00000264       __imp__floor               1003d264     msvcrt:MSVCR100.dll
 0002:00000268       __imp__atol                1003d268     msvcrt:MSVCR100.dll
 0002:0000026c       __imp__strcat              1003d26c     msvcrt:MSVCR100.dll
 0002:00000270       __imp__sprintf_s           1003d270     msvcrt:MSVCR100.dll
 0002:00000274       __imp__asin                1003d274     msvcrt:MSVCR100.dll
 0002:00000278       __imp__sqrt                1003d278     msvcrt:MSVCR100.dll
 0002:0000027c       __imp__cos                 1003d27c     msvcrt:MSVCR100.dll
 0002:00000280       __imp__sin                 1003d280     msvcrt:MSVCR100.dll
 0002:00000284       __imp_?terminate@@YAXXZ    1003d284     msvcrt:MSVCR100.dll
 0002:00000288       __imp___unlock             1003d288     msvcrt:MSVCR100.dll
 0002:0000028c       __imp____dllonexit         1003d28c     msvcrt:MSVCR100.dll
 0002:00000290       __imp___lock               1003d290     msvcrt:MSVCR100.dll
 0002:00000294       __imp___onexit             1003d294     msvcrt:MSVCR100.dll
 0002:00000298       __imp___malloc_crt         1003d298     msvcrt:MSVCR100.dll
 0002:0000029c       __imp___encoded_null       1003d29c     msvcrt:MSVCR100.dll
 0002:000002a0       __imp___initterm           1003d2a0     msvcrt:MSVCR100.dll
 0002:000002a4       __imp___initterm_e         1003d2a4     msvcrt:MSVCR100.dll
 0002:000002a8       __imp___amsg_exit          1003d2a8     msvcrt:MSVCR100.dll
 0002:000002ac       __imp____CppXcptFilter     1003d2ac     msvcrt:MSVCR100.dll
 0002:000002b0       __imp_?_type_info_dtor_internal_method@type_info@@QAEXXZ 1003d2b0     msvcrt:MSVCR100.dll
 0002:000002b4       __imp___except_handler4_common 1003d2b4     msvcrt:MSVCR100.dll
 0002:000002b8       __imp___crt_debugger_hook  1003d2b8     msvcrt:MSVCR100.dll
 0002:000002bc       __imp____clean_type_info_names_internal 1003d2bc     msvcrt:MSVCR100.dll
 0002:000002c0       __imp__memcpy              1003d2c0     msvcrt:MSVCR100.dll
 0002:000002c4       __imp__strlen              1003d2c4     msvcrt:MSVCR100.dll
 0002:000002c8       \177MSVCR100_NULL_THUNK_DATA 1003d2c8     msvcrt:MSVCR100.dll
 0002:000002cc       __imp__SystemTimeToVariantTime@8 1003d2cc     oleaut32:OLEAUT32.dll
 0002:000002d0       __imp__VariantTimeToSystemTime@12 1003d2d0     oleaut32:OLEAUT32.dll
 0002:000002d4       \177OLEAUT32_NULL_THUNK_DATA 1003d2d4     oleaut32:OLEAUT32.dll
 0002:000002d8       __imp__wsprintfA           1003d2d8     user32:USER32.dll
 0002:000002dc       \177USER32_NULL_THUNK_DATA 1003d2dc     user32:USER32.dll
 0002:000002e0       __imp_?GetRuntimeClass@CObject@@UBEPAUCRuntimeClass@@XZ 1003d2e0     mfc100:mfc100.dll
 0002:000002e4       __imp_?AfxMessageBox@@YGHPBDII@Z 1003d2e4     mfc100:mfc100.dll
 0002:000002e8       __imp_??0CFile@@QAE@XZ     1003d2e8     mfc100:mfc100.dll
 0002:000002ec       __imp_?Open@CFile@@UAEHPBDIPAVCFileException@@@Z 1003d2ec     mfc100:mfc100.dll
 0002:000002f0       __imp_??1CFile@@UAE@XZ     1003d2f0     mfc100:mfc100.dll
 0002:000002f4       __imp_?Close@CFile@@UAEXXZ 1003d2f4     mfc100:mfc100.dll
 0002:000002f8       __imp_?Find@?$CStringT@DV?$StrTraitMFC_DLL@DV?$ChTraitsCRT@D@ATL@@@@@ATL@@QBEHPBDH@Z 1003d2f8     mfc100:mfc100.dll
 0002:000002fc       __imp_?ReleaseBuffer@?$CSimpleStringT@D$00@ATL@@QAEXH@Z 1003d2fc     mfc100:mfc100.dll
 0002:00000300       __imp_?SetAtGrow@CPtrArray@@QAEXHPAX@Z 1003d300     mfc100:mfc100.dll
 0002:00000304       __imp_?AfxThrowInvalidArgException@@YGXXZ 1003d304     mfc100:mfc100.dll
 0002:00000308       __imp_?Mid@?$CStringT@DV?$StrTraitMFC_DLL@DV?$ChTraitsCRT@D@ATL@@@@@ATL@@QBE?AV12@HH@Z 1003d308     mfc100:mfc100.dll
 0002:0000030c       __imp_?Right@?$CStringT@DV?$StrTraitMFC_DLL@DV?$ChTraitsCRT@D@ATL@@@@@ATL@@QBE?AV12@H@Z 1003d30c     mfc100:mfc100.dll
 0002:00000310       __imp_??Y?$CStringT@DV?$StrTraitMFC_DLL@DV?$ChTraitsCRT@D@ATL@@@@@ATL@@QAEAAV01@ABV?$CSimpleStringT@D$00@1@@Z 1003d310     mfc100:mfc100.dll
 0002:00000314       __imp_?GetAt@?$CSimpleStringT@D$00@ATL@@QBEDH@Z 1003d314     mfc100:mfc100.dll
 0002:00000318       __imp_??0CPtrArray@@QAE@XZ 1003d318     mfc100:mfc100.dll
 0002:0000031c       __imp_??1CPtrArray@@UAE@XZ 1003d31c     mfc100:mfc100.dll
 0002:00000320       __imp_?Compare@?$CStringT@DV?$StrTraitMFC_DLL@DV?$ChTraitsCRT@D@ATL@@@@@ATL@@QBEHPBD@Z 1003d320     mfc100:mfc100.dll
 0002:00000324       __imp_??4?$CStringT@DV?$StrTraitMFC_DLL@DV?$ChTraitsCRT@D@ATL@@@@@ATL@@QAEAAV01@PBD@Z 1003d324     mfc100:mfc100.dll
 0002:00000328       __imp_?Format@?$CStringT@DV?$StrTraitMFC_DLL@DV?$ChTraitsCRT@D@ATL@@@@@ATL@@QAAXPBDZZ 1003d328     mfc100:mfc100.dll
 0002:0000032c       __imp_?AfxThrowMemoryException@@YGXXZ 1003d32c     mfc100:mfc100.dll
 0002:00000330       __imp_?AfxThrowOleException@@YGXJ@Z 1003d330     mfc100:mfc100.dll
 0002:00000334       __imp_?ReadCount@CArchive@@QAEKXZ 1003d334     mfc100:mfc100.dll
 0002:00000338       __imp_??_U@YAPAXI@Z        1003d338     mfc100:mfc100.dll
 0002:0000033c       __imp_?AfxGetModuleState@@YGPAVAFX_MODULE_STATE@@XZ 1003d33c     mfc100:mfc100.dll
 0002:00000340       __imp_??Y?$CStringT@DV?$StrTraitMFC_DLL@DV?$ChTraitsCRT@D@ATL@@@@@ATL@@QAEAAV01@PBD@Z 1003d340     mfc100:mfc100.dll
 0002:00000344       __imp_?ReverseFind@?$CStringT@DV?$StrTraitMFC_DLL@DV?$ChTraitsCRT@D@ATL@@@@@ATL@@QBEHD@Z 1003d344     mfc100:mfc100.dll
 0002:00000348       __imp_?Left@?$CStringT@DV?$StrTraitMFC_DLL@DV?$ChTraitsCRT@D@ATL@@@@@ATL@@QBE?AV12@H@Z 1003d348     mfc100:mfc100.dll
 0002:0000034c       __imp_?GetManager@?$CStringT@DV?$StrTraitMFC_DLL@DV?$ChTraitsCRT@D@ATL@@@@@ATL@@QBEPAUIAtlStringMgr@2@XZ 1003d34c     mfc100:mfc100.dll
 0002:00000350       __imp_??0?$CStringT@DV?$StrTraitMFC_DLL@DV?$ChTraitsCRT@D@ATL@@@@@ATL@@QAE@PAUIAtlStringMgr@1@@Z 1003d350     mfc100:mfc100.dll
 0002:00000354       __imp_?StringLength@?$CSimpleStringT@D$00@ATL@@SAHPBD@Z 1003d354     mfc100:mfc100.dll
 0002:00000358       __imp_??B?$CSimpleStringT@D$00@ATL@@QBEPBDXZ 1003d358     mfc100:mfc100.dll
 0002:0000035c       __imp_?Concatenate@?$CSimpleStringT@D$00@ATL@@KAXAAV12@PBDH1H@Z 1003d35c     mfc100:mfc100.dll
 0002:00000360       __imp_??0?$CStringT@DV?$StrTraitMFC_DLL@DV?$ChTraitsCRT@D@ATL@@@@@ATL@@QAE@ABV01@@Z 1003d360     mfc100:mfc100.dll
 0002:00000364       __imp_??2@YAPAXI@Z         1003d364     mfc100:mfc100.dll
 0002:00000368       __imp_??0?$CStringT@DV?$StrTraitMFC_DLL@DV?$ChTraitsCRT@D@ATL@@@@@ATL@@QAE@PBD@Z 1003d368     mfc100:mfc100.dll
 0002:0000036c       __imp_??4?$CStringT@DV?$StrTraitMFC_DLL@DV?$ChTraitsCRT@D@ATL@@@@@ATL@@QAEAAV01@ABV01@@Z 1003d36c     mfc100:mfc100.dll
 0002:00000370       __imp_?WriteCount@CArchive@@QAEXK@Z 1003d370     mfc100:mfc100.dll
 0002:00000374       __imp_?Write@CArchive@@QAEXPBXI@Z 1003d374     mfc100:mfc100.dll
 0002:00000378       __imp_?AfxThrowArchiveException@@YGXHPBD@Z 1003d378     mfc100:mfc100.dll
 0002:0000037c       __imp_?Read@CArchive@@QAEIPAXI@Z 1003d37c     mfc100:mfc100.dll
 0002:00000380       __imp_?AfxWinInit@@YGHPAUHINSTANCE__@@0PADH@Z 1003d380     mfc100:mfc100.dll
 0002:00000384       __imp_??0CWinApp@@QAE@PBD@Z 1003d384     mfc100:mfc100.dll
 0002:00000388       __imp_?IsEmpty@?$CSimpleStringT@D$00@ATL@@QBE_NXZ 1003d388     mfc100:mfc100.dll
 0002:0000038c       __imp_?GetLength@?$CSimpleStringT@D$00@ATL@@QBEHXZ 1003d38c     mfc100:mfc100.dll
 0002:00000390       __imp_?GetBuffer@?$CSimpleStringT@D$00@ATL@@QAEPADH@Z 1003d390     mfc100:mfc100.dll
 0002:00000394       __imp_??0?$CStringT@DV?$StrTraitMFC_DLL@DV?$ChTraitsCRT@D@ATL@@@@@ATL@@QAE@XZ 1003d394     mfc100:mfc100.dll
 0002:00000398       __imp_??1?$CStringT@DV?$StrTraitMFC_DLL@DV?$ChTraitsCRT@D@ATL@@@@@ATL@@QAE@XZ 1003d398     mfc100:mfc100.dll
 0002:0000039c       __imp_??_V@YAXPAX@Z        1003d39c     mfc100:mfc100.dll
 0002:000003a0       __imp_??3@YAXPAX@Z         1003d3a0     mfc100:mfc100.dll
 0002:000003a4       __imp_??1CWinApp@@UAE@XZ   1003d3a4     mfc100:mfc100.dll
 0002:000003a8       __imp_?GetBuffer@?$CSimpleStringT@D$00@ATL@@QAEPADXZ 1003d3a8     mfc100:mfc100.dll
 0002:000003ac       __imp_??1AFX_MODULE_STATE@@UAE@XZ 1003d3ac     mfc100:mfc100.dll
 0002:000003b0       __imp_??1AFX_MAINTAIN_STATE2@@QAE@XZ 1003d3b0     mfc100:mfc100.dll
 0002:000003b4       __imp_?AfxWndProc@@YGJPAUHWND__@@IIJ@Z 1003d3b4     mfc100:mfc100.dll
 0002:000003b8       __imp_??0AFX_MAINTAIN_STATE2@@QAE@PAVAFX_MODULE_STATE@@@Z 1003d3b8     mfc100:mfc100.dll
 0002:000003bc       __imp_?AfxTermThread@@YGXPAUHINSTANCE__@@@Z 1003d3bc     mfc100:mfc100.dll
 0002:000003c0       __imp_?AfxTermExtensionModule@@YGXAAUAFX_EXTENSION_MODULE@@H@Z 1003d3c0     mfc100:mfc100.dll
 0002:000003c4       __imp_?AfxUnlockTempMaps@@YGHH@Z 1003d3c4     mfc100:mfc100.dll
 0002:000003c8       __imp_?AfxLockTempMaps@@YGXXZ 1003d3c8     mfc100:mfc100.dll
 0002:000003cc       __imp_?AfxSetModuleState@@YGPAVAFX_MODULE_STATE@@PAV1@@Z 1003d3cc     mfc100:mfc100.dll
 0002:000003d0       __imp_?Delete@CException@@QAEXXZ 1003d3d0     mfc100:mfc100.dll
 0002:000003d4       __imp_??0CDynLinkLibrary@@QAE@AAUAFX_EXTENSION_MODULE@@H@Z 1003d3d4     mfc100:mfc100.dll
 0002:000003d8       __imp_?AfxInitExtensionModule@@YGHAAUAFX_EXTENSION_MODULE@@PAUHINSTANCE__@@@Z 1003d3d8     mfc100:mfc100.dll
 0002:000003dc       __imp_?AfxWinTerm@@YGXXZ   1003d3dc     mfc100:mfc100.dll
 0002:000003e0       __imp_?AfxGetThreadState@@YGPAV_AFX_THREAD_STATE@@XZ 1003d3e0     mfc100:mfc100.dll
 0002:000003e4       __imp_?AfxCoreInitModule@@YGXXZ 1003d3e4     mfc100:mfc100.dll
 0002:000003e8       __imp_??0AFX_MODULE_STATE@@QAE@HP6GJPAUHWND__@@IIJ@ZKH@Z 1003d3e8     mfc100:mfc100.dll
 0002:000003ec       __imp_??3CNoTrackObject@@SGXPAX@Z 1003d3ec     mfc100:mfc100.dll
 0002:000003f0       \177mfc100_NULL_THUNK_DATA 1003d3f0     mfc100:mfc100.dll
 0002:000003f4       ___xc_a                    1003d3f4     msvcrt:cinitexe.obj
 0002:00000408       ___xc_z                    1003d408     msvcrt:cinitexe.obj
 0002:0000040c       ___xi_a                    1003d40c     msvcrt:cinitexe.obj
 0002:00000418       ___xi_z                    1003d418     msvcrt:cinitexe.obj
 0002:00000440       ??_7CUDPSocket@@6B@        1003d440     mainserversocket.obj
 0002:00000448       ??_7CListenSocket@@6B@     1003d448     mainserversocket.obj
 0002:00000450       ??_7CTCPSocket@@6B@        1003d450     mainserversocket.obj
 0002:00000458       ??_7CTCPSocketForZ@@6B@    1003d458     mainserversocket.obj
 0002:00000460       ??_7CAFCException@@6B@     1003d460     mainserversocket.obj
 0002:00000474       ??_7CDataBaseHandle@@6B@   1003d474     mainserversocket.obj
 0002:00000484       ??_7IDataBaseHandleService@@6B@ 1003d484     mainserversocket.obj
 0002:00000490       ??_7CTCPSocketForWeb@@6B@  1003d490     mainserversocket.obj
 0002:00000498       ??_7CGameDataBaseHandle@@6B@ 1003d498     mainserversocket.obj
 0002:000004a8       ??_7CMainServerSocket@@6B@ 1003d4a8     mainserversocket.obj
 0002:000004b8       ??_7IClientSocketService@@6B@ 1003d4b8     mainserversocket.obj
 0002:000004c4       ??_C@_0L@LEDNCCKE@GateServer?$AA@ 1003d4c4     mainserversocket.obj
 0002:000004d0       ??_C@_0BC@MFNJEGGH@MainServerAddress?$AA@ 1003d4d0     mainserversocket.obj
 0002:000004e4       ??_C@_09PFCHIMEP@127?40?40?41?$AA@ 1003d4e4     mainserversocket.obj
 0002:000004f0       ??_C@_0P@FAPOPBBO@HNGameGate?4ini?$AA@ 1003d4f0     mainserversocket.obj
 0002:00000500       ??_C@_0BM@PAPJHAGI@invalid?5map?1set?$DMT?$DO?5iterator?$AA@ 1003d500     mainserversocket.obj
 0002:00000520       ??_7bad_alloc@std@@6B@     1003d520     mainserversocket.obj
 0002:00000528       ??_C@_01KICIPPFI@?2?$AA@   1003d528     mainserversocket.obj
 0002:0000052c       ?npos@?$basic_string@DU?$char_traits@D@std@@V?$allocator@D@2@@std@@2IB 1003d52c     mainserversocket.obj
 0002:00000530       ??_C@_0BI@CFPLBAOH@invalid?5string?5position?$AA@ 1003d530     mainserversocket.obj
 0002:00000548       ??_C@_0BA@JFNIOLAK@string?5too?5long?$AA@ 1003d548     mainserversocket.obj
 0002:00000558       ??_C@_01EEMJAFIK@?6?$AA@   1003d558     AutoAllotDesk.obj
 0002:0000055c       ??_C@_09LIEONEIM@?$FL?$CFs?5?$CFs?$FN?9?9?$AA@ 1003d55c     AutoAllotDesk.obj
 0002:00000568       ??_C@_01MCMALHOG@a?$AA@    1003d568     AutoAllotDesk.obj
 0002:0000056c       ??_C@_0BG@EMLGMLLD@Log?2?$CFs_?$CFs_contest?4txt?$AA@ 1003d56c     AutoAllotDesk.obj
 0002:00000584       ??_C@_0M@JPHHBIID@GameManager?$AA@ 1003d584     AutoAllotDesk.obj
 0002:00000590       ??_C@_0L@FFIMBEKI@yyyy?9MM?9dd?$AA@ 1003d590     AutoAllotDesk.obj
 0002:0000059c       ??_C@_08JCCMCCIL@HH?3mm?3ss?$AA@ 1003d59c     AutoAllotDesk.obj
 0002:000005a8       ??_C@_0M@PCENNPGA@?$CFd?4?$CFd?4?$CFd?4?$CFd?$AA@ 1003d5a8     AutoAllotDesk.obj
 0002:000005b4       ??_C@_06OCPIOENM@Queuer?$AA@ 1003d5b4     AutoAllotDesk.obj
 0002:000005bc       ??_C@_09MJIAFCHM@QueueRule?$AA@ 1003d5bc     AutoAllotDesk.obj
 0002:000005c8       ??_C@_0BA@JKGHOHBC@SpecialRule?4bcf?$AA@ 1003d5c8     AutoAllotDesk.obj
 0002:000005d8       ??_C@_0N@EDNLFEEG@RobotAutoSit?$AA@ 1003d5d8     AutoAllotDesk.obj
 0002:000005e8       ??_C@_09LDKFIOF@CanSameIp?$AA@ 1003d5e8     AutoAllotDesk.obj
 0002:000005f4       ??_C@_0P@PDCHCIKH@QueueMinPeople?$AA@ 1003d5f4     AutoAllotDesk.obj
 0002:0000060c       ??_7CAutoAllotDesk@@6B@    1003d60c     AutoAllotDesk.obj
 0002:0000064c       ??_7IAutoAllotDesk@@6B@    1003d64c     AutoAllotDesk.obj
 0002:00000678       ??_C@_0DE@GPIPEHM@CAutoAllotDesk?3?3Add?$CI?$CJ?5?3?5id?$CI?$CFd?$CJ?5w@ 1003d678     AutoAllotDesk.obj
 0002:000006b0       ??_C@_0EG@DJLDHNIP@CAutoAllotDesk?3?3Add?$CI?$CJ?5?3?5WARNING?5@ 1003d6b0     AutoAllotDesk.obj
 0002:000006f8       ??_C@_0DJ@FDNEDNBD@CAutoAllotDesk?3?3Delete?$CI?$CJ?5?3?5id?$CI?$CFd@ 1003d6f8     AutoAllotDesk.obj
 0002:00000734       ??_C@_0CO@PJMOKEDI@?9?9?9?9?9?9?9?9deldeldeldeldeldel?9?9?9?9?9?9@ 1003d734     AutoAllotDesk.obj
 0002:00000768       ??_C@_0GC@ECJDDFDK@AutoAllotDesk?3?3AllotDesk?$DN?$DO?5i?$CI?$CFd?$CJ@ 1003d768     AutoAllotDesk.obj
 0002:000007cc       ??_C@_0CG@DHEGECGI@AutoAllotDesk?3?3AllotDesk?$DN?$DO?5UserI@ 1003d7cc     AutoAllotDesk.obj
 0002:000007f4       ??_C@_0CM@NJAJDOKL@?9?9?9?9?9?9?9?9?9deldeldeldeldeld?9?9?9?9?9?9?9@ 1003d7f4     AutoAllotDesk.obj
 0002:00000820       ??_C@_0P@FKFPDCPE@QueuerWaitTime?$AA@ 1003d820     AutoAllotDesk.obj
 0002:00000830       ??_C@_0EH@BAGJFGPI@CAutoAllotDesk?3?3IsAllUserStand?$CI?$CJ@ 1003d830     AutoAllotDesk.obj
 0002:00000878       ??_C@_0BD@OLBABOEK@vector?$DMT?$DO?5too?5long?$AA@ 1003d878     AutoAllotDesk.obj
 0002:0000088c       ??_C@_0BA@EEAAFCDE@DrawMoneyInGame?$AA@ 1003d88c     BankService.obj
 0002:0000089c       ??_C@_09PPNHOLKJ@Available?$AA@ 1003d89c     BankService.obj
 0002:000008a8       ??_C@_0N@NCHLGPHI@Function?4bcf?$AA@ 1003d8a8     BankService.obj
 0002:000008b8       ??_C@_06NGDENPBI@?$EAParam?$AA@ 1003d8b8     GameDataBaseHandle.obj
 0002:000008c0       ??_C@_0L@PAIKBIBF@?$EAUserCount?$AA@ 1003d8c0     GameDataBaseHandle.obj
 0002:000008cc       ??_C@_0CC@CDFJNMOM@?$CFd?0?$CFI64d?0?$CFI64d?0?$CFI64d?0?$CFI64d?0?$CFI64d@ 1003d8cc     GameDataBaseHandle.obj
 0002:000008ee       ??_C@_00CNPNBAHC@?$AA@     1003d8ee     GameDataBaseHandle.obj
 0002:000008f0       ??_C@_04ILLCJKLH@?$EATax?$AA@ 1003d8f0     GameDataBaseHandle.obj
 0002:000008f8       ??_C@_0L@HLBALCEI@?$EADeskIndex?$AA@ 1003d8f8     GameDataBaseHandle.obj
 0002:00000904       ??_C@_07MHNIFEGG@?$EARoomID?$AA@ 1003d904     GameDataBaseHandle.obj
 0002:0000090c       ??_C@_09EFBNPLBN@?$EAGameTime?$AA@ 1003d90c     GameDataBaseHandle.obj
 0002:00000918       ??_C@_0BG@KIMIAFEA@SP_RecordGameInfo_new?$AA@ 1003d918     GameDataBaseHandle.obj
 0002:00000930       ??_C@_08DNANJND@?$EAMatchID?$AA@ 1003d930     GameDataBaseHandle.obj
 0002:0000093c       ??_C@_07DEKBPHGA@?$EAUserID?$AA@ 1003d93c     GameDataBaseHandle.obj
 0002:00000944       ??_C@_0BG@BJMDOAPI@SP_DeleteAbnormalFlag?$AA@ 1003d944     GameDataBaseHandle.obj
 0002:0000095c       ??_C@_0BJ@IEDHKJPA@SP_InsertAbnormalOffline?$AA@ 1003d95c     GameDataBaseHandle.obj
 0002:00000978       ??_C@_0BG@MIHLHDNP@?S?C?$LL?$KH?$LG?O?O?$NP?V?X?A?$KM?$KD?$KM?P?$LEW?$LM?G?B?$LM?$AA@ 1003d978     GameDataBaseHandle.obj
 0002:00000990       ??_C@_07HHEAPNPA@?$EAGameID?$AA@ 1003d990     GameDataBaseHandle.obj
 0002:00000998       ??_C@_0L@IAGJOMOI@?$EAContestID?$AA@ 1003d998     GameDataBaseHandle.obj
 0002:000009a4       ??_C@_0BE@OIPCNFNC@SP_ContestReturnFee?$AA@ 1003d9a4     GameDataBaseHandle.obj
 0002:000009b8       ??_C@_0BD@NHEEGCCB@SP_ContestUserLeft?$AA@ 1003d9b8     GameDataBaseHandle.obj
 0002:000009cc       ??_C@_07KCGPOBGN@Gserver?$AA@ 1003d9cc     GameDataBaseHandle.obj
 0002:000009d4       ??_C@_0DK@ILCKANNA@OnUpdateServerInfo?5end?5uRoomID?5?$DN@ 1003d9d4     GameDataBaseHandle.obj
 0002:00000a10       ??_C@_0N@ONPCCNIL@?$EAOnlineCount?$AA@ 1003da10     GameDataBaseHandle.obj
 0002:00000a20       ??_C@_0BK@DOCOGOEP@SP_UpdateRoomOnlinePeople?$AA@ 1003da20     GameDataBaseHandle.obj
 0002:00000a3c       ??_C@_0BF@CFIMEBLJ@?$CFd?9?$CFd?9?$CFd?5?$CFd?3?$CFd?3?$CFd?4?$CFd?$AA@ 1003da3c     GameDataBaseHandle.obj
 0002:00000a54       ??_C@_0L@DKDOAMAL@LockJewels?$AA@ 1003da54     GameDataBaseHandle.obj
 0002:00000a60       ??_C@_06NIAELHMA@Jewels?$AA@ 1003da60     GameDataBaseHandle.obj
 0002:00000a68       ??_C@_07HENPPAPL@HeadUrl?$AA@ 1003da68     GameDataBaseHandle.obj
 0002:00000a70       ??_C@_07IFKBCLFF@RankNum?$AA@ 1003da70     GameDataBaseHandle.obj
 0002:00000a78       ??_C@_0N@LMFDBLDF@ContestCount?$AA@ 1003da78     GameDataBaseHandle.obj
 0002:00000a88       ??_C@_0N@DDEDKFA@ContestScore?$AA@ 1003da88     GameDataBaseHandle.obj
 0002:00000a98       ??_C@_07LCFMHFOB@IsRobot?$AA@ 1003da98     GameDataBaseHandle.obj
 0002:00000aa0       ??_C@_0L@JLPPNHGP@VirualUser?$AA@ 1003daa0     GameDataBaseHandle.obj
 0002:00000aac       ??_C@_09FEDINCBP@SignDescr?$AA@ 1003daac     GameDataBaseHandle.obj
 0002:00000ab8       ??_C@_03PBFCPOAP@Mid?$AA@  1003dab8     GameDataBaseHandle.obj
 0002:00000abc       ??_C@_03EOHDMBHJ@Cut?$AA@  1003dabc     GameDataBaseHandle.obj
 0002:00000ac0       ??_C@_04NKHPDAAE@Lost?$AA@ 1003dac0     GameDataBaseHandle.obj
 0002:00000ac8       ??_C@_03DEBJKBHO@Win?$AA@  1003dac8     GameDataBaseHandle.obj
 0002:00000acc       ??_C@_0BC@MPLJMLEH@MasterPowerInRoom?$AA@ 1003dacc     GameDataBaseHandle.obj
 0002:00000ae0       ??_C@_09ECEOMNAP@BankMoney?$AA@ 1003dae0     GameDataBaseHandle.obj
 0002:00000aec       ??_C@_0O@HEIPDHOA@ExercisePoint?$AA@ 1003daec     GameDataBaseHandle.obj
 0002:00000afc       ??_C@_06GPDEEMIJ@Wallet?$AA@ 1003dafc     GameDataBaseHandle.obj
 0002:00000b04       ??_C@_0M@PMIDPBGA@MatchMember?$AA@ 1003db04     GameDataBaseHandle.obj
 0002:00000b10       ??_C@_07PHBHIFGB@viptime?$AA@ 1003db10     GameDataBaseHandle.obj
 0002:00000b18       ??_C@_06LLJDPCEF@LogoID?$AA@ 1003db18     GameDataBaseHandle.obj
 0002:00000b20       ??_C@_03OMLNFKE@sex?$AA@   1003db20     GameDataBaseHandle.obj
 0002:00000b24       ??_C@_08CELDJAGK@NickName?$AA@ 1003db24     GameDataBaseHandle.obj
 0002:00000b30       ??_C@_08KAFEAHEM@UserName?$AA@ 1003db30     GameDataBaseHandle.obj
 0002:00000b3c       ??_C@_08LJNBKBOB@RoomName?$AA@ 1003db3c     GameDataBaseHandle.obj
 0002:00000b48       ??_C@_0M@OCLLCOMK@OldGameRoom?$AA@ 1003db48     GameDataBaseHandle.obj
 0002:00000b54       ??_C@_0L@NBABCDJA@?$EARoomState?$AA@ 1003db54     GameDataBaseHandle.obj
 0002:00000b60       ??_C@_0L@GJJMMHNC@?$EALockTable?$AA@ 1003db60     GameDataBaseHandle.obj
 0002:00000b6c       ??_C@_0P@IONEPBDI@?$EANameRuleTable?$AA@ 1003db6c     GameDataBaseHandle.obj
 0002:00000b7c       ??_C@_0N@DKEIPIPI@?$EAIPRuleTable?$AA@ 1003db7c     GameDataBaseHandle.obj
 0002:00000b8c       ??_C@_0M@CHOHAEPH@?$EAMatchTable?$AA@ 1003db8c     GameDataBaseHandle.obj
 0002:00000b98       ??_C@_0O@CMAALAGP@?$EAKernelNameID?$AA@ 1003db98     GameDataBaseHandle.obj
 0002:00000ba8       ??_C@_08FLHCECAN@?$EALoginIP?$AA@ 1003dba8     GameDataBaseHandle.obj
 0002:00000bb4       ??_C@_08DAJLNOPL@?$EAPassMD5?$AA@ 1003dbb4     GameDataBaseHandle.obj
 0002:00000bc0       ??_C@_0BB@MMBAIGPI@SP_UserLoginRoom?$AA@ 1003dbc0     GameDataBaseHandle.obj
 0002:00000bd4       ??_C@_0BD@NBEBDBCA@SP_GetNickNameOnID?$AA@ 1003dbd4     GameDataBaseHandle.obj
 0002:00000be8       ??_C@_09IGIFPOMH@TotalTime?$AA@ 1003dbe8     GameDataBaseHandle.obj
 0002:00000bf4       ??_C@_08KMBKBGJB@?$EAbIsKick?$AA@ 1003dbf4     GameDataBaseHandle.obj
 0002:00000c00       ??_C@_0P@JEHAFAMM@SP_UseKickProp?$AA@ 1003dc00     GameDataBaseHandle.obj
 0002:00000c10       ??_C@_0N@PMLDFAN@?$EAFasciChange?$AA@ 1003dc10     GameDataBaseHandle.obj
 0002:00000c20       ??_C@_0N@DLEOPFKP@?$EAProtectTime?$AA@ 1003dc20     GameDataBaseHandle.obj
 0002:00000c30       ??_C@_0M@BNNJDEMH@?$EADoubleTime?$AA@ 1003dc30     GameDataBaseHandle.obj
 0002:00000c3c       ??_C@_08KALKDCCG@?$EAIsBoard?$AA@ 1003dc3c     GameDataBaseHandle.obj
 0002:00000c48       ??_C@_0O@FJDHILGC@?$EAIsClearMinus?$AA@ 1003dc48     GameDataBaseHandle.obj
 0002:00000c58       ??_C@_0L@BMALIONI@?$EAGameTable?$AA@ 1003dc58     GameDataBaseHandle.obj
 0002:00000c64       ??_C@_0M@BBKAHPDG@?$EAGameNameID?$AA@ 1003dc64     GameDataBaseHandle.obj
 0002:00000c70       ??_C@_09IBOHCNCO@?$EATargetID?$AA@ 1003dc70     GameDataBaseHandle.obj
 0002:00000c7c       ??_C@_07ENHMNLEI@?$EAPropID?$AA@ 1003dc7c     GameDataBaseHandle.obj
 0002:00000c84       ??_C@_0L@GMDFAGBD@SP_UseProp?$AA@ 1003dc84     GameDataBaseHandle.obj
 0002:00000c90       ??_C@_0BD@CPNGBOFJ@SP_NewKickUserProp?$AA@ 1003dc90     GameDataBaseHandle.obj
 0002:00000ca4       ??_C@_07HEFJABKM@MoneyOp?$AA@ 1003dca4     GameDataBaseHandle.obj
 0002:00000cac       ??_C@_08HICDFLIP@?$EAMD5Pass?$AA@ 1003dcac     GameDataBaseHandle.obj
 0002:00000cb8       ??_C@_06OFCEOHJC@?$EAMoney?$AA@ 1003dcb8     GameDataBaseHandle.obj
 0002:00000cc0       ??_C@_0N@NDMIMNJI@?$EAOperateType?$AA@ 1003dcc0     GameDataBaseHandle.obj
 0002:00000cd0       ??_C@_0BA@MCLOOCHL@SP_BankOpNormal?$AA@ 1003dcd0     GameDataBaseHandle.obj
 0002:00000ce0       ??_C@_05LLAMLEHD@?$CFI64d?$AA@ 1003dce0     GameDataBaseHandle.obj
 0002:00000ce8       ??_C@_08KAPGJENO@?$EAUserID2?$AA@ 1003dce8     GameDataBaseHandle.obj
 0002:00000cf4       ??_C@_08ILNLMHBN@?$EAUserID1?$AA@ 1003dcf4     GameDataBaseHandle.obj
 0002:00000d00       ??_C@_0BC@KKLFMPAG@SP_BankOpTransfer?$AA@ 1003dd00     GameDataBaseHandle.obj
 0002:00000d14       ??_C@_06OFHCDFJK@UserID?$AA@ 1003dd14     GameDataBaseHandle.obj
 0002:00000d1c       ??_C@_0M@HJHFFHAE@?$EADepositPwd?$AA@ 1003dd1c     GameDataBaseHandle.obj
 0002:00000d28       ??_C@_0L@EKMPIIH@?$EADepositID?$AA@ 1003dd28     GameDataBaseHandle.obj
 0002:00000d34       ??_C@_0BD@GBHNDJLF@SP_Bank_UseDeposit?$AA@ 1003dd34     GameDataBaseHandle.obj
 0002:00000d48       ??_C@_05INIBOMDG@Money?$AA@ 1003dd48     GameDataBaseHandle.obj
 0002:00000d50       ??_C@_04IHFGGJDO@CDSC?$AA@ 1003dd50     GameDataBaseHandle.obj
 0002:00000d58       ??_C@_0BA@FNAGCFFD@DepositPassWord?$AA@ 1003dd58     GameDataBaseHandle.obj
 0002:00000d68       ??_C@_09FKOJDIPC@DepositID?$AA@ 1003dd68     GameDataBaseHandle.obj
 0002:00000d74       ??_C@_0P@KEMOKMJP@?$EACreaterUserID?$AA@ 1003dd74     GameDataBaseHandle.obj
 0002:00000d84       ??_C@_0BD@EECMOBGC@SP_Bank_NewDeposit?$AA@ 1003dd84     GameDataBaseHandle.obj
 0002:00000d98       ??_C@_09FJMCAKIG@PropCount?$AA@ 1003dd98     GameDataBaseHandle.obj
 0002:00000da4       ??_C@_07JNPOJLIF@?$EAOpType?$AA@ 1003dda4     GameDataBaseHandle.obj
 0002:00000dac       ??_C@_0L@HIHMKPD@?$EAPropCount?$AA@ 1003ddac     GameDataBaseHandle.obj
 0002:00000db8       ??_C@_07NIPIPPOK@?$EAPropId?$AA@ 1003ddb8     GameDataBaseHandle.obj
 0002:00000dc0       ??_C@_07KBCFNDMC@?$EAUserId?$AA@ 1003ddc0     GameDataBaseHandle.obj
 0002:00000dc8       ??_C@_0O@CMDOLDEP@SP_PropChange?$AA@ 1003ddc8     GameDataBaseHandle.obj
 0002:00000dd8       ??_C@_0L@EFFLHOFP@UsedUserID?$AA@ 1003ddd8     GameDataBaseHandle.obj
 0002:00000de4       ??_C@_05JNKNAC@State?$AA@  1003dde4     GameDataBaseHandle.obj
 0002:00000dec       ??_C@_0L@CEAPNG@GreateTime?$AA@ 1003ddec     GameDataBaseHandle.obj
 0002:00000df8       ??_C@_0BG@BOJPGOI@SP_Bank_QueryDeposits?$AA@ 1003ddf8     GameDataBaseHandle.obj
 0002:00000e10       ??_C@_0M@GPIPLNCI@WalletMoney?$AA@ 1003de10     GameDataBaseHandle.obj
 0002:00000e1c       ??_C@_07MIIHHEMP@ComName?$AA@ 1003de1c     GameDataBaseHandle.obj
 0002:00000e24       ??_C@_06KGJDDPAK@GameID?$AA@ 1003de24     GameDataBaseHandle.obj
 0002:00000e2c       ??_C@_0BA@OIIMCEBF@SP_BankOpWallet?$AA@ 1003de2c     GameDataBaseHandle.obj
 0002:00000e3c       ??_C@_0O@KBMPEOBK@MoneyInWallet?$AA@ 1003de3c     GameDataBaseHandle.obj
 0002:00000e4c       ??_C@_0M@DIPCOJLK@MoneyChange?$AA@ 1003de4c     GameDataBaseHandle.obj
 0002:00000e58       ??_C@_0M@FILAGGK@MoneyInBank?$AA@ 1003de58     GameDataBaseHandle.obj
 0002:00000e64       ??_C@_07FLLKADMD@?$EAIsSave?$AA@ 1003de64     GameDataBaseHandle.obj
 0002:00000e6c       ??_C@_0BA@IENJDJMF@?$EAMoneyQuantitys?$AA@ 1003de6c     GameDataBaseHandle.obj
 0002:00000e7c       ??_C@_0BC@FMEPPLLP@SP_BankMoneyOpera?$AA@ 1003de7c     GameDataBaseHandle.obj
 0002:00000e90       ??_C@_09OLJJKEAJ@TransTime?$AA@ 1003de90     GameDataBaseHandle.obj
 0002:00000e9c       ??_C@_0P@BKGLDEBM@ActualTransfer?$AA@ 1003de9c     GameDataBaseHandle.obj
 0002:00000eac       ??_C@_0O@GJFJINCK@TransferMoney?$AA@ 1003deac     GameDataBaseHandle.obj
 0002:00000ebc       ??_C@_0L@KDPCJOCL@DestUserID?$AA@ 1003debc     GameDataBaseHandle.obj
 0002:00000ec8       ??_C@_0BF@DMKOFFNI@SP_GetTransferRecord?$AA@ 1003dec8     GameDataBaseHandle.obj
 0002:00000ee0       ??_C@_0M@EEOIGANM@?$EAMD5PassNew?$AA@ 1003dee0     GameDataBaseHandle.obj
 0002:00000eec       ??_C@_0M@JCGKHNKE@?$EAMD5PassOld?$AA@ 1003deec     GameDataBaseHandle.obj
 0002:00000ef8       ??_C@_0BE@FDFBILFF@SP_ChangeBankPasswd?$AA@ 1003def8     GameDataBaseHandle.obj
 0002:00000f0c       ??_C@_0L@DOOGOKKC@TransMoney?$AA@ 1003df0c     GameDataBaseHandle.obj
 0002:00000f18       ??_C@_08KIGEOBLF@Multiple?$AA@ 1003df18     GameDataBaseHandle.obj
 0002:00000f24       ??_C@_09LCOEFKOD@LessMoney?$AA@ 1003df24     GameDataBaseHandle.obj
 0002:00000f30       ??_C@_0N@NMPELGBH@LessAllMoney?$AA@ 1003df30     GameDataBaseHandle.obj
 0002:00000f40       ??_C@_09HGKLHPBP@TranMoney?$AA@ 1003df40     GameDataBaseHandle.obj
 0002:00000f4c       ??_C@_08GCMJALKH@?$EATranTax?$AA@ 1003df4c     GameDataBaseHandle.obj
 0002:00000f58       ??_C@_0L@CIOOLPGK@?$EATranMoney?$AA@ 1003df58     GameDataBaseHandle.obj
 0002:00000f64       ??_C@_0O@HBPPLMH@?$EADestNickName?$AA@ 1003df64     GameDataBaseHandle.obj
 0002:00000f74       ??_C@_0M@IDMDFOFI@?$EADestUserID?$AA@ 1003df74     GameDataBaseHandle.obj
 0002:00000f80       ??_C@_0L@BFCEBFCG@?$EAUseDestID?$AA@ 1003df80     GameDataBaseHandle.obj
 0002:00000f8c       ??_C@_0BB@HKMIENJG@SP_TransferMoney?$AA@ 1003df8c     GameDataBaseHandle.obj
 0002:00000fa0       ??_C@_0BE@LJJFPEBB@SP_TransferAllMoney?$AA@ 1003dfa0     GameDataBaseHandle.obj
 0002:00000fb4       ??_C@_03MLMOILGK@Msg?$AA@  1003dfb4     GameDataBaseHandle.obj
 0002:00000fb8       ??_C@_04DILOGPMK@?$EAnum?$AA@ 1003dfb8     GameDataBaseHandle.obj
 0002:00000fc0       ??_C@_06OJMFGHL@?$EATypeN?$AA@ 1003dfc0     GameDataBaseHandle.obj
 0002:00000fc8       ??_C@_0BC@HABIHAMF@proc_RebateUpdate?$AA@ 1003dfc8     GameDataBaseHandle.obj
 0002:00000fdc       ??_C@_08HKFKAKFN@VIP_Rate?$AA@ 1003dfdc     GameDataBaseHandle.obj
 0002:00000fe8       ??_C@_09FDBNLAON@Min_money?$AA@ 1003dfe8     GameDataBaseHandle.obj
 0002:00000ff4       ??_C@_0CL@MDDHOHPH@select?5Min_money?0Min_money?5from?5@ 1003dff4     GameDataBaseHandle.obj
 0002:00001020       ??_C@_08KICJOCDF@Tx_Smony?$AA@ 1003e020     GameDataBaseHandle.obj
 0002:0000102c       ??_C@_08FPNMFKDK@Tx_Money?$AA@ 1003e02c     GameDataBaseHandle.obj
 0002:00001038       ??_C@_0CP@LBMNFNGM@select?5?$CK?5from?5Web_RebateInfo?5whe@ 1003e038     GameDataBaseHandle.obj
 0002:00001068       ??_C@_07LNMLMIOA@BankVer?$AA@ 1003e068     GameDataBaseHandle.obj
 0002:00001070       ??_C@_0M@MNENNPD@TwoPassword?$AA@ 1003e070     GameDataBaseHandle.obj
 0002:0000107c       ??_C@_0M@GANDHMO@SP_GetMoney?$AA@ 1003e07c     GameDataBaseHandle.obj
 0002:00001088       ??_C@_05CJJGGMMH@?$EAGMID?$AA@ 1003e088     GameDataBaseHandle.obj
 0002:00001090       ??_C@_0N@FJEMGIIN@SP_GMWarring?$AA@ 1003e090     GameDataBaseHandle.obj
 0002:000010a0       ??_C@_09DLGNHMDE@?$EAUserName?$AA@ 1003e0a0     GameDataBaseHandle.obj
 0002:000010ac       ??_C@_0O@DHBOMIND@SP_GMKickUser?$AA@ 1003e0ac     GameDataBaseHandle.obj
 0002:000010bc       ??_C@_08HLDGJEON@?$EACallMsg?$AA@ 1003e0bc     GameDataBaseHandle.obj
 0002:000010c8       ??_C@_09NNGOJHNB@?$EACallType?$AA@ 1003e0c8     GameDataBaseHandle.obj
 0002:000010d4       ??_C@_0N@GOAHFHJB@?$EADeskStation?$AA@ 1003e0d4     GameDataBaseHandle.obj
 0002:000010e4       ??_C@_0M@ENPKGEFJ@?$EADeskNumber?$AA@ 1003e0e4     GameDataBaseHandle.obj
 0002:000010f0       ??_C@_09IJOLBKOJ@?$EARoomType?$AA@ 1003e0f0     GameDataBaseHandle.obj
 0002:000010fc       ??_C@_07OCNILICD@?$EANameID?$AA@ 1003e0fc     GameDataBaseHandle.obj
 0002:00001104       ??_C@_0BA@BMKBOLHA@SP_RecordCallGM?$AA@ 1003e104     GameDataBaseHandle.obj
 0002:00001114       ??_C@_0BG@LOOOHLGP@SP_RoomPWChangeRecord?$AA@ 1003e114     GameDataBaseHandle.obj
 0002:0000112c       ??_C@_0BE@LMIGGEBD@SP_RecordOnlineTime?$AA@ 1003e12c     GameDataBaseHandle.obj
 0002:00001140       ??_C@_0L@CIMLIEMC@OnlineCoin?$AA@ 1003e140     GameDataBaseHandle.obj
 0002:0000114c       ??_C@_01GBGANLPD@0?$AA@    1003e14c     GameDataBaseHandle.obj
 0002:00001150       ??_C@_0BA@PEKGMHGF@?$EAClearLogonInfo?$AA@ 1003e150     GameDataBaseHandle.obj
 0002:00001160       ??_C@_0L@MDCFHJDL@?$EAChangeCut?$AA@ 1003e160     GameDataBaseHandle.obj
 0002:0000116c       ??_C@_0L@HMAEEGEN@?$EAChangeMid?$AA@ 1003e16c     GameDataBaseHandle.obj
 0002:00001178       ??_C@_0M@ECCAEGAA@?$EAChangeLost?$AA@ 1003e178     GameDataBaseHandle.obj
 0002:00001184       ??_C@_0L@LJEPBJDM@?$EAChangeWin?$AA@ 1003e184     GameDataBaseHandle.obj
 0002:00001190       ??_C@_0N@NMDECFMI@?$EAResultPoint?$AA@ 1003e190     GameDataBaseHandle.obj
 0002:000011a0       ??_C@_0L@LJHBFCLN@?$EAChangeTax?$AA@ 1003e1a0     GameDataBaseHandle.obj
 0002:000011ac       ??_C@_0N@IKHEHHFJ@?$EAChangeMoney?$AA@ 1003e1ac     GameDataBaseHandle.obj
 0002:000011bc       ??_C@_0N@BBBAMPAJ@?$EAChangePoint?$AA@ 1003e1bc     GameDataBaseHandle.obj
 0002:000011cc       ??_C@_09MFODCHDF@?$EASrcPoint?$AA@ 1003e1cc     GameDataBaseHandle.obj
 0002:000011d8       ??_C@_0O@MJHLOHKL@?$EAIsRoomRecord?$AA@ 1003e1d8     GameDataBaseHandle.obj
 0002:000011e8       ??_C@_0O@EEBDJNHC@?$EAUserIsMaster?$AA@ 1003e1e8     GameDataBaseHandle.obj
 0002:000011f8       ??_C@_0BB@LOCLLJPD@?$EAOnlineTimeCount?$AA@ 1003e1f8     GameDataBaseHandle.obj
 0002:0000120c       ??_C@_0BC@EALIMIJC@SP_RecordUserLeft?$AA@ 1003e20c     GameDataBaseHandle.obj
 0002:00001220       ??_C@_0KA@OPJKPEJF@nUserCount?5?$DN?5?$CFd?5EXEC?5SP_UserInfo@ 1003e220     GameDataBaseHandle.obj
 0002:000012c0       ??_C@_0N@GOJMANEM@?$EAIsMoneyGame?$AA@ 1003e2c0     GameDataBaseHandle.obj
 0002:000012d0       ??_C@_0BB@MAFHELLO@?$EAIsExperciseRoom?$AA@ 1003e2d0     GameDataBaseHandle.obj
 0002:000012e4       ??_C@_0P@HCAHDGIB@?$EAPlayTimeCount?$AA@ 1003e2e4     GameDataBaseHandle.obj
 0002:000012f4       ??_C@_0BF@LLDIMCEM@SP_UserInfoUpdateAll?$AA@ 1003e2f4     GameDataBaseHandle.obj
 0002:0000130c       ??_C@_0CF@NICBFHGL@?$CFd?0?$CFd?0?$CFI64d?0?$CFI64d?0?$CFI64d?0?$CFd?0?$CFd?0?$CFd@ 1003e30c     GameDataBaseHandle.obj
 0002:00001334       ??_C@_0N@HMFIMLPC@ReceiveTotal?$AA@ 1003e334     GameDataBaseHandle.obj
 0002:00001344       ??_C@_08OBLKDBED@MinMoney?$AA@ 1003e344     GameDataBaseHandle.obj
 0002:00001350       ??_C@_0N@FHJJGBJC@ReceiveMoney?$AA@ 1003e350     GameDataBaseHandle.obj
 0002:00001360       ??_C@_0N@FDHAEBNA@ReceiveCount?$AA@ 1003e360     GameDataBaseHandle.obj
 0002:00001370       ??_C@_0BA@KKMBILIK@SP_ReceiveMoney?$AA@ 1003e370     GameDataBaseHandle.obj
 0002:00001380       ??_C@_0BA@IPJFEJGD@SP_ContestBegin?$AA@ 1003e380     GameDataBaseHandle.obj
 0002:00001390       ??_C@_0N@NEALHNBB@?$EALeastPeople?$AA@ 1003e390     GameDataBaseHandle.obj
 0002:000013a0       ??_C@_0BB@ODHDPCDO@SP_ContestFinish?$AA@ 1003e3a0     GameDataBaseHandle.obj
 0002:000013b4       ??_C@_06NBBIPOFG@?$EASitNO?$AA@ 1003e3b4     GameDataBaseHandle.obj
 0002:000013bc       ??_C@_07JBAJBAEH@?$EADeskNo?$AA@ 1003e3bc     GameDataBaseHandle.obj
 0002:000013c4       ??_C@_0O@LMKIELJD@?$EAContestPoint?$AA@ 1003e3c4     GameDataBaseHandle.obj
 0002:000013d4       ??_C@_0O@JMECPCOE@?$EAContestScore?$AA@ 1003e3d4     GameDataBaseHandle.obj
 0002:000013e4       ??_C@_0O@BLEBHJEO@?$EACheckedScore?$AA@ 1003e3e4     GameDataBaseHandle.obj
 0002:000013f4       ??_C@_08FLHHEKKN@?$EALowChip?$AA@ 1003e3f4     GameDataBaseHandle.obj
 0002:00001400       ??_C@_0BH@EPIKOHFI@SP_ContestUpdateRecord?$AA@ 1003e400     GameDataBaseHandle.obj
 0002:00001418       ??_C@_0N@OLJOILKA@RemainPeople?$AA@ 1003e418     GameDataBaseHandle.obj
 0002:00001428       ??_C@_0BL@NGKAMIOB@SP_Contest_GetSomebodyRank?$AA@ 1003e428     GameDataBaseHandle.obj
 0002:00001444       ??_C@_04LMDOEOJP@isOK?$AA@ 1003e444     GameDataBaseHandle.obj
 0002:0000144c       ??_C@_04JEIPLFDN@ynum?$AA@ 1003e44c     GameDataBaseHandle.obj
 0002:00001454       ??_C@_05EMAFEGNB@?$EAyNum?$AA@ 1003e454     GameDataBaseHandle.obj
 0002:0000145c       ??_C@_09KKCGPICC@UserMoney?$AA@ 1003e45c     GameDataBaseHandle.obj
 0002:00001468       ??_C@_02FDNJLAOG@rs?$AA@   1003e468     GameDataBaseHandle.obj
 0002:0000146c       ??_C@_07IGFGNPK@?$EAroomID?$AA@ 1003e46c     GameDataBaseHandle.obj
 0002:00001474       ??_C@_07FGIDKIGG@?$EATypeID?$AA@ 1003e474     GameDataBaseHandle.obj
 0002:0000147c       ??_C@_07LIPNMEGM@?$EAgameID?$AA@ 1003e47c     GameDataBaseHandle.obj
 0002:00001484       ??_C@_0BA@GPIHAKGE@SP_ContestApply?$AA@ 1003e484     GameDataBaseHandle.obj
 0002:00001494       ??_C@_0L@MCPJMEKJ@UserJewels?$AA@ 1003e494     GameDataBaseHandle.obj
 0002:000014a0       ??_C@_0BC@LJMJGCPF@SP_ContestAbandon?$AA@ 1003e4a0     GameDataBaseHandle.obj
 0002:000014b4       ??_C@_04PBOGLBDB@?$EACut?$AA@ 1003e4b4     GameDataBaseHandle.obj
 0002:000014bc       ??_C@_04EOMHIOEH@?$EAMid?$AA@ 1003e4bc     GameDataBaseHandle.obj
 0002:000014c4       ??_C@_05KCMHGMNG@?$EALost?$AA@ 1003e4c4     GameDataBaseHandle.obj
 0002:000014cc       ??_C@_04ILIMNBDG@?$EAWin?$AA@ 1003e4cc     GameDataBaseHandle.obj
 0002:000014d4       ??_C@_07HEKJDGAK@?$EATaxCom?$AA@ 1003e4d4     GameDataBaseHandle.obj
 0002:000014dc       ??_C@_06HOEAFPMC@?$EAPoint?$AA@ 1003e4dc     GameDataBaseHandle.obj
 0002:000014e4       ??_C@_0M@BLKMCBOI@?$EAOnlineTime?$AA@ 1003e4e4     GameDataBaseHandle.obj
 0002:000014f0       ??_C@_0BC@IAFJKELK@SP_UserInfoUpdate?$AA@ 1003e4f0     GameDataBaseHandle.obj
 0002:00001504       ??_C@_07LOOHIOHD@?$EAWallet?$AA@ 1003e504     GameDataBaseHandle.obj
 0002:0000150c       ??_C@_0BF@ICCNPDAD@SP_ChangeMoneyInTime?$AA@ 1003e50c     GameDataBaseHandle.obj
 0002:00001528       ??_C@_0EB@HDLHHAIF@UPDATE?5TUserInfo?5SET?5Fascination@ 1003e528     GameDataBaseHandle.obj
 0002:0000156c       ??_C@_0BC@ENJJANOA@SP_UsePropForSelf?$AA@ 1003e56c     GameDataBaseHandle.obj
 0002:00001580       ??_C@_0O@NEMCHPJF@DayMoneyTimes?$AA@ 1003e580     GameDataBaseHandle.obj
 0002:00001590       ??_C@_0N@MFBHHOHD@DaySendTimes?$AA@ 1003e590     GameDataBaseHandle.obj
 0002:000015a0       ??_C@_06HGLFFPEP@TMoney?$AA@ 1003e5a0     GameDataBaseHandle.obj
 0002:000015a8       ??_C@_0N@KOAFAAJJ@SP_SendMoney?$AA@ 1003e5a8     GameDataBaseHandle.obj
 0002:000015b8       ??_C@_02DPKJAMEF@?$CFd?$AA@ 1003e5b8     GameDataBaseHandle.obj
 0002:000015bc       ??_C@_0BG@NMFHDKAE@SP_InsertWLoginRecord?$AA@ 1003e5bc     GameDataBaseHandle.obj
 0002:000015d4       ??_C@_0BD@BLBGLOHK@?$EARoomVirtualPeople?$AA@ 1003e5d4     GameDataBaseHandle.obj
 0002:000015e8       ??_C@_0BD@PMIFFHEN@SP_AloneDeskInTime?$AA@ 1003e5e8     GameDataBaseHandle.obj
 0002:000015fc       ??_C@_07CFAMABA@?$EAFlagID?$AA@ 1003e5fc     GameDataBaseHandle.obj
 0002:00001604       ??_C@_0BF@JDFKCOM@SP_SetUserOnlineFlag?$AA@ 1003e604     GameDataBaseHandle.obj
 0002:0000161c       ??_C@_0L@MPDEOPDI@?$EAcontestID?$AA@ 1003e61c     GameDataBaseHandle.obj
 0002:00001628       ??_C@_0BH@BALFEEDG@SP_GetTimingMatchUsers?$AA@ 1003e628     GameDataBaseHandle.obj
 0002:00001640       ??_C@_06CDAFOMDN@ClubID?$AA@ 1003e640     GameDataBaseHandle.obj
 0002:00001648       ??_C@_06MALNILJM@IsPlay?$AA@ 1003e648     GameDataBaseHandle.obj
 0002:00001650       ??_C@_09LFAIFMFC@BeginTime?$AA@ 1003e650     GameDataBaseHandle.obj
 0002:0000165c       ??_C@_0L@FHBFBOMF@BuyMinutes?$AA@ 1003e65c     GameDataBaseHandle.obj
 0002:00001668       ??_C@_08EIKJKLOA@MidEnter?$AA@ 1003e668     GameDataBaseHandle.obj
 0002:00001674       ??_C@_0M@KGNBPGLH@MasterState?$AA@ 1003e674     GameDataBaseHandle.obj
 0002:00001680       ??_C@_09FIAOOLLF@PlayerNum?$AA@ 1003e680     GameDataBaseHandle.obj
 0002:0000168c       ??_C@_0O@KMAAJCGN@PositionLimit?$AA@ 1003e68c     GameDataBaseHandle.obj
 0002:0000169c       ??_C@_0BA@LMLJBFNH@FinishCondition?$AA@ 1003e69c     GameDataBaseHandle.obj
 0002:000016ac       ??_C@_07FJMILJKH@PayType?$AA@ 1003e6ac     GameDataBaseHandle.obj
 0002:000016b4       ??_C@_08LNDOLIMF@RunCount?$AA@ 1003e6b4     GameDataBaseHandle.obj
 0002:000016c0       ??_C@_0N@HGJHMKDB@BuyGameCount?$AA@ 1003e6c0     GameDataBaseHandle.obj
 0002:000016d0       ??_C@_0L@FIDMBGOA@DeskConfig?$AA@ 1003e6d0     GameDataBaseHandle.obj
 0002:000016dc       ??_C@_0P@FOALMNK@szDeskPassWord?$AA@ 1003e6dc     GameDataBaseHandle.obj
 0002:000016ec       ??_C@_08BMODIGCB@MasterID?$AA@ 1003e6ec     GameDataBaseHandle.obj
 0002:000016f8       ??_C@_0M@DBAABFKE@TableNumber?$AA@ 1003e6f8     GameDataBaseHandle.obj
 0002:00001704       ??_C@_0DB@DKOOINLO@select?5?$CK?5from?5TBuyGameDeskRecord@ 1003e704     GameDataBaseHandle.obj
 0002:00001738       ??_C@_0FM@DJCKEDIM@select?5?$CK?5from?5TBuyGameDeskRecord@ 1003e738     GameDataBaseHandle.obj
 0002:00001794       ??_C@_0BB@BOHKNMFD@SP_ContestActive?$AA@ 1003e794     GameDataBaseHandle.obj
 0002:000017a8       ??_C@_0BB@OMEHLFLE@SP_ContestRegist?$AA@ 1003e7a8     GameDataBaseHandle.obj
 0002:000017bc       ??_C@_05NGLKCFJP@?$EAType?$AA@ 1003e7bc     GameDataBaseHandle.obj
 0002:000017c4       ??_C@_09MPCFPKED@?$EADeskPass?$AA@ 1003e7c4     GameDataBaseHandle.obj
 0002:000017d0       ??_C@_0O@GKOENFK@SP_CostJewels?$AA@ 1003e7d0     GameDataBaseHandle.obj
 0002:000017e0       ??_C@_09BEIGNCFP@?$EAAAJewels?$AA@ 1003e7e0     GameDataBaseHandle.obj
 0002:000017ec       ??_C@_0BE@FAAKLHCB@SP_MiddleCostJewels?$AA@ 1003e7ec     GameDataBaseHandle.obj
 0002:00001800       ??_C@_0O@GNEIOIAA@?$EADeskPassWord?$AA@ 1003e800     GameDataBaseHandle.obj
 0002:00001810       ??_C@_0N@NODJIHKG@SP_ClearDesk?$AA@ 1003e810     GameDataBaseHandle.obj
 0002:00001820       ??_C@_0BB@FCEOHJOM@SP_ClearGameData?$AA@ 1003e820     GameDataBaseHandle.obj
 0002:00001834       ??_C@_09CGAHMDLN@?$EARunCount?$AA@ 1003e834     GameDataBaseHandle.obj
 0002:00001840       ??_C@_0P@HKBIOMNB@SP_ReleaseDesk?$AA@ 1003e840     GameDataBaseHandle.obj
 0002:00001850       ??_C@_08JEPJEJIB@?$EAGameMSG?$AA@ 1003e850     GameDataBaseHandle.obj
 0002:0000185c       ??_C@_0BB@NECCNICF@SP_RecordGameMSG?$AA@ 1003e85c     GameDataBaseHandle.obj
 0002:00001870       ??_C@_08CNDJOMIE@GameInfo?$AA@ 1003e870     GameDataBaseHandle.obj
 0002:0000187c       ??_C@_07OCDGPLKL@?$EADeskID?$AA@ 1003e87c     GameDataBaseHandle.obj
 0002:00001884       ??_C@_0BC@FMBAEBDK@SP_GetReleaseInfo?$AA@ 1003e884     GameDataBaseHandle.obj
 0002:00001898       ??_C@_08OFHCLPGO@Nickname?$AA@ 1003e898     GameDataBaseHandle.obj
 0002:000018a4       ??_C@_05DGAPONBB@Score?$AA@ 1003e8a4     GameDataBaseHandle.obj
 0002:000018ac       ??_C@_07GIHCMIMG@Station?$AA@ 1003e8ac     GameDataBaseHandle.obj
 0002:000018b4       ??_C@_0O@FEJEAOHL@SP_ReturnDesk?$AA@ 1003e8b4     GameDataBaseHandle.obj
 0002:000018c4       ??_C@_09BPKJMKB@?$EAGameType?$AA@ 1003e8c4     GameDataBaseHandle.obj
 0002:000018d0       ??_C@_07JMBODDNM@?$EAGameSN?$AA@ 1003e8d0     GameDataBaseHandle.obj
 0002:000018d8       ??_C@_0L@CAHLJKMC@?$EAGameCount?$AA@ 1003e8d8     GameDataBaseHandle.obj
 0002:000018e4       ??_C@_0L@EPONDJHA@?$EAUserScore?$AA@ 1003e8e4     GameDataBaseHandle.obj
 0002:000018f0       ??_C@_0M@CGFIHNNP@?$EADeskUserID?$AA@ 1003e8f0     GameDataBaseHandle.obj
 0002:000018fc       ??_C@_0O@JACMGBDF@SP_RecordGame?$AA@ 1003e8fc     GameDataBaseHandle.obj
 0002:0000190c       ??_C@_03DPLIHHLN@?$CFd?0?$AA@ 1003e90c     GameDataBaseHandle.obj
 0002:00001910       ??_C@_06ENMNPBCG@GameSN?$AA@ 1003e910     GameDataBaseHandle.obj
 0002:00001918       ??_C@_0BA@MAFJAJPO@SP_CreateGameSN?$AA@ 1003e918     GameDataBaseHandle.obj
 0002:00001928       ??_C@_0N@JFCKPNAP@?$EAUserStation?$AA@ 1003e928     GameDataBaseHandle.obj
 0002:00001938       ??_C@_0BA@GHENBHMJ@SP_RecordNetCut?$AA@ 1003e938     GameDataBaseHandle.obj
 0002:00001948       ??_C@_0FL@OAPAIMPF@update?5TBuyGameDeskRecord?5set?5Is@ 1003e948     GameDataBaseHandle.obj
 0002:000019a4       ??_C@_0CC@FIBODPAC@ycl?3?3?5OnGetRoomInfo?5retry?5room?3?$CF@ 1003e9a4     GameDataBaseHandle.obj
 0002:000019c8       ??_C@_0O@HFMOPFBA@MinMoney_Alms?$AA@ 1003e9c8     GameDataBaseHandle.obj
 0002:000019d8       ??_C@_0P@MFGFADJA@SendCount_Alms?$AA@ 1003e9d8     GameDataBaseHandle.obj
 0002:000019e8       ??_C@_07KFKKJCLK@Invoice?$AA@ 1003e9e8     GameDataBaseHandle.obj
 0002:000019f0       ??_C@_0EG@MEOKCKJC@SELECT?5TOP?51?5SendCount_Alms?0MinM@ 1003e9f0     GameDataBaseHandle.obj
 0002:00001a38       ??_C@_0DG@CCLDHBDL@SELECT?5ComName?5FROM?5dbo?4TGameNam@ 1003ea38     GameDataBaseHandle.obj
 0002:00001a70       ??_C@_0M@KILFFJFA@RallWelcome?$AA@ 1003ea70     GameDataBaseHandle.obj
 0002:00001a7c       ??_C@_0M@GIPNNBG@RoomWelcome?$AA@ 1003ea7c     GameDataBaseHandle.obj
 0002:00001a88       ??_C@_0BE@LIKOJECN@SP_RoomStartProcess?$AA@ 1003ea88     GameDataBaseHandle.obj
 0002:00001a9c       ??_C@_0M@CAHNMCGF@ContestType?$AA@ 1003ea9c     GameDataBaseHandle.obj
 0002:00001aa8       ??_C@_09MHCEAAPI@StartTime?$AA@ 1003eaa8     GameDataBaseHandle.obj
 0002:00001ab4       ??_C@_08CMPPDEFI@GiveType?$AA@ 1003eab4     GameDataBaseHandle.obj
 0002:00001ac0       ??_C@_07NCKAGEOK@GiveNum?$AA@ 1003eac0     GameDataBaseHandle.obj
 0002:00001ac8       ??_C@_0KK@FNLDGPCH@select?5a?4GiveNum?0?5a?4GiveType?0?5b?4@ 1003eac8     GameDataBaseHandle.obj
 0002:00001b78       ??_C@_0FL@KOAALKBC@UPDATE?5dbo?4TContestUserRecord?5SE@ 1003eb78     GameDataBaseHandle.obj
 0002:00001bd4       ??_C@_08LKOEDILN@?$EAbMaster?$AA@ 1003ebd4     GameDataBaseHandle.obj
 0002:00001be0       ??_C@_06MELMHMLE@?$EALeave?$AA@ 1003ebe0     GameDataBaseHandle.obj
 0002:00001be8       ??_C@_0P@DAEGEOLP@SP_MasterLeave?$AA@ 1003ebe8     GameDataBaseHandle.obj
 0002:00001bf8       ??_C@_0P@LPHMMCMH@SP_ContestExit?$AA@ 1003ebf8     GameDataBaseHandle.obj
 0002:00001c08       ??_C@_0O@FCGFBKOL@?$EAUserStationB?$AA@ 1003ec08     GameDataBaseHandle.obj
 0002:00001c18       ??_C@_08IPMJONCI@?$EAUserIDB?$AA@ 1003ec18     GameDataBaseHandle.obj
 0002:00001c24       ??_C@_0O@HJEIEJCI@?$EAUserStationA?$AA@ 1003ec24     GameDataBaseHandle.obj
 0002:00001c34       ??_C@_08KEOELOOL@?$EAUserIDA?$AA@ 1003ec34     GameDataBaseHandle.obj
 0002:00001c40       ??_C@_0BF@GNHBMADK@SP_ChangeUserStation?$AA@ 1003ec40     GameDataBaseHandle.obj
 0002:00001c58       ??_C@_0O@NKLFNJAC@?$EADynamicInfo1?$AA@ 1003ec58     GameDataBaseHandle.obj
 0002:00001c68       ??_C@_0BG@DLCCEDGK@SP_SetGameDynamicInfo?$AA@ 1003ec68     GameDataBaseHandle.obj
 0002:00001c80       ??_C@_0HD@DEJKGFOD@UPDATE?5dbo?4TBuyGameDeskRecord?5SE@ 1003ec80     GameDataBaseHandle.obj
 0002:00001cf8       ?OLE_DATETIME_HALFSECOND@COleDateTimeSpan@ATL@@2NB 1003ecf8     GameDesk.obj
 0002:00001d04       ??_7MD5_CTX@@6B@           1003ed04     GameDesk.obj
 0002:00001d08       ??_C@_08NFCCBMGC@FishType?$AA@ 1003ed08     GameDesk.obj
 0002:00001d14       ??_C@_07ODIMJEHF@Fish_?$CFd?$AA@ 1003ed14     GameDesk.obj
 0002:00001d24       ??_7CGameDesk@@6B@         1003ed24     GameDesk.obj
 0002:00001db4       ??_C@_03MHAIKEMP@300?$AA@  1003edb4     GameDesk.obj
 0002:00001db8       __real@beb0c6f7a0b5ed8d    1003edb8     GameDesk.obj
 0002:00001dc0       __real@3eb0c6f7a0b5ed8d    1003edc0     GameDesk.obj
 0002:00001dc8       ??_C@_04NOJCDH@?$CF02x?$AA@ 1003edc8     GameDesk.obj
 0002:00001dd0       ??_C@_04JFFKLGJF@?$CF02X?$AA@ 1003edd0     GameDesk.obj
 0002:00001dd8       ??_C@_01JOAMLHOP@?9?$AA@   1003edd8     GameDesk.obj
 0002:00001ddc       ??_C@_09BDCDHLDG@?$CFs?$CF04X?$CFs?9?$AA@ 1003eddc     GameDesk.obj
 0002:00001de8       ??_C@_01INIBCBCB@f?$AA@    1003ede8     GameDesk.obj
 0002:00001dec       ??_C@_01BIAFAFID@F?$AA@    1003edec     GameDesk.obj
 0002:00001df0       ??_C@_01KGKMHCOC@e?$AA@    1003edf0     GameDesk.obj
 0002:00001df4       ??_C@_01DDCIFGEA@E?$AA@    1003edf4     GameDesk.obj
 0002:00001df8       ??_C@_01LPLHEDKD@d?$AA@    1003edf8     GameDesk.obj
 0002:00001dfc       ??_C@_01CKDDGHAB@D?$AA@    1003edfc     GameDesk.obj
 0002:00001e00       ??_C@_01PAPGNFGE@c?$AA@    1003ee00     GameDesk.obj
 0002:00001e04       ??_C@_01GFHCPBMG@C?$AA@    1003ee04     GameDesk.obj
 0002:00001e08       ??_C@_01OJONOECF@b?$AA@    1003ee08     GameDesk.obj
 0002:00001e0c       ??_C@_01HMGJMAIH@B?$AA@    1003ee0c     GameDesk.obj
 0002:00001e10       ??_C@_01FHEEJDEE@A?$AA@    1003ee10     GameDesk.obj
 0002:00001e14       ??_C@_01LAKCGALK@9?$AA@    1003ee14     GameDesk.obj
 0002:00001e18       ??_C@_09KNPIGDPD@audioport?$AA@ 1003ee18     GameDesk.obj
 0002:00001e24       ??_C@_09OFNOCCHD@videoport?$AA@ 1003ee24     GameDesk.obj
 0002:00001e30       ??_C@_02GIIHKPLE@ip?$AA@   1003ee30     GameDesk.obj
 0002:00001e34       ??_C@_04HGGBINEM@?$CFs?$CFd?$AA@ 1003ee34     GameDesk.obj
 0002:00001e3c       ??_C@_08DONDJBCB@videosrv?$AA@ 1003ee3c     GameDesk.obj
 0002:00001e48       ??_C@_09IJOMDDPD@videocode?$AA@ 1003ee48     GameDesk.obj
 0002:00001e54       ??_C@_06PEBBNJJI@_s?4ini?$AA@ 1003ee54     GameDesk.obj
 0002:00001e5c       ??_C@_0N@GJAECNAD@IsHaveZhuang?$AA@ 1003ee5c     GameDesk.obj
 0002:00001e6c       ??_C@_0CI@LPPPBFDH@ASS_GM_AGREE_GAME?5DeskPass?3?$CFs?5Us@ 1003ee6c     GameDesk.obj
 0002:00001e98       ??_C@_0FK@DCMKKNHK@?$FL?$CFd?9?$CFd?$FNCGameDesk?3?3HandleFrameMes@ 1003ee98     GameDesk.obj
 0002:00001ef8       ??_C@_0FB@EEMDIGCB@?$FL?$CFd?9?$CFd?$FNCGameDesk?3?3HandleFrameMes@ 1003eef8     GameDesk.obj
 0002:00001f50       ??_C@_0EN@CHBOAEGP@?$FL?$CFd?9?$CFd?$FNCGameDesk?3?3HandleFrameMes@ 1003ef50     GameDesk.obj
 0002:00001fa0       ??_C@_0N@INJEEBID@?$CFs?$CFs?$CF02d?4txt?$AA@ 1003efa0     GameDesk.obj
 0002:00001fb0       __real@40f5180000000000    1003efb0     GameDesk.obj
 0002:00001fb8       __real@4096800000000000    1003efb8     GameDesk.obj
 0002:00001fc0       __real@4038000000000000    1003efc0     GameDesk.obj
 0002:00001fc8       __real@414b964c80000000    1003efc8     GameDesk.obj
 0002:00001fd0       __real@c14b964c80000000    1003efd0     GameDesk.obj
 0002:00001fd8       ??_C@_0BC@DCNLOCEN@PresentCoinPerDay?$AA@ 1003efd8     GameMainManage.obj
 0002:00001fec       ??_C@_07LDKEGPE@TaxRate?$AA@ 1003efec     GameMainManage.obj
 0002:00001ff4       ??_C@_04LDOGFLEB@Rate?$AA@ 1003eff4     GameMainManage.obj
 0002:00001ffc       ??_C@_03GNABGMEE@100?$AA@  1003effc     GameMainManage.obj
 0002:00002004       ??_7CGameMainManage@@6BIDataBaseResultService@@@ 1003f004     GameMainManage.obj
 0002:0000200c       ??_7CGameMainManage@@6BIServerSocketServiceForWeb@@@ 1003f00c     GameMainManage.obj
 0002:00002068       ??_C@_0L@IDDAIAKP@QueuerTime?$AA@ 1003f068     GameMainManage.obj
 0002:00002074       ??_C@_0CP@OJIADEP@?$LL?$LG?S?$KN?D?c?$KD?$KM?W?$KD?D?c?D?$NM?T?Z?U?b?$MA?o?M?f?$LF?C?$LP?$KK?P?D?$KD?$KM?$LP?l@ 1003f074     GameMainManage.obj
 0002:000020a4       ??_C@_0P@IAMGCGPP@OnUnInit?5?3?3?5?$CFd?$AA@ 1003f0a4     GameMainManage.obj
 0002:000020b4       ??_C@_0BB@DFAIGHIN@PlayBackDownload?$AA@ 1003f0b4     GameMainManage.obj
 0002:000020c8       ??_C@_0N@NFEMCFNF@PlayBackTemp?$AA@ 1003f0c8     GameMainManage.obj
 0002:000020d8       ??_C@_0P@ILPPJID@HNGameGate?4bcf?$AA@ 1003f0d8     GameMainManage.obj
 0002:000020e8       ??_C@_0N@IEIJDLDB@OnStop?5?3?3?5?$CFd?$AA@ 1003f0e8     GameMainManage.obj
 0002:000020f8       ??_C@_0DE@JAGHEBNP@GameMainManage?5OnSocketRead?R?l?$LD?$KD?$FL@ 1003f0f8     GameMainManage.obj
 0002:00002130       ??_C@_0HD@EOMGPADB@CGameMainManage?3?3OnSocketRead?$CI?$CJ?V@ 1003f130     GameMainManage.obj
 0002:000021a4       ??_C@_05MPDBFDHF@Frame?$AA@ 1003f1a4     GameMainManage.obj
 0002:000021ac       ??_C@_06HHNOBIIB@Notify?$AA@ 1003f1ac     GameMainManage.obj
 0002:000021b4       ??_C@_0DO@LEGGIJGP@CGameMainManage?3?3OnSocketRead?$CI?$CJ?W@ 1003f1b4     GameMainManage.obj
 0002:000021f4       ??_C@_0DP@CMKDOAIN@CGameMainManage?3?3OnSocketRead?$CI?$CJ?N@ 1003f1f4     GameMainManage.obj
 0002:00002234       ??_C@_01IHBHIGKO@?0?$AA@   1003f234     GameMainManage.obj
 0002:00002238       ??_C@_08PHAMHGFN@NormalID?$AA@ 1003f238     GameMainManage.obj
 0002:00002244       ??_C@_0BC@PJLGGJOE@60000000?069999999?$AA@ 1003f244     GameMainManage.obj
 0002:00002258       ??_C@_0L@FNJBIHPD@SpecificID?$AA@ 1003f258     GameMainManage.obj
 0002:00002264       ??_C@_03JALODAI@?$CFld?$AA@ 1003f264     GameMainManage.obj
 0002:00002268       ??_C@_0GK@DPMANHAA@?W?$KC?J?M?$KD?$LKID?0Name?0NickName?0Access?0Ne@ 1003f268     GameMainManage.obj
 0002:000022d8       ??_C@_0HJ@BKHBMJNP@?9?9?$MA?k?O?$NP?M?f?$LM?R?A?P?$LB?m?$KD?$LK?9?9?9?9?9?9?9?9?9?9?9?9?9?9?9?9@ 1003f2d8     GameMainManage.obj
 0002:00002354       ??_C@_0N@MKPNEAKF@?9?9?$CI?$LJ?$LC?$CFd?H?K?$CJ?9?9?$AA@ 1003f354     GameMainManage.obj
 0002:00002368       ??_C@_0GC@HKJBJPAK@?5?5ID?3?$CF?99d?5Name?3?$CF?920s?5NickName?3?$CF?9@ 1003f368     GameMainManage.obj
 0002:000023d0       ??_C@_0HJ@COAEABOF@?9?9?T?Z?O?$NP?M?f?$LM?R?A?P?$LB?m?$KD?$LK?9?9?9?9?9?9?9?9?9?9?9?9?9?9?9?9@ 1003f3d0     GameMainManage.obj
 0002:0000244c       ??_C@_0P@CBMKKKPF@?W?$NM?T?Z?O?$NP?H?K?J?$PN?$KD?$LK?$CFd?$AA@ 1003f44c     GameMainManage.obj
 0002:00002460       ??_C@_0HA@DFPBJHFK@?$DN?$DN?$DN?$DN?$DN?$DN?$DN?$DN?$DN?$DN?$DN?$DN?$DN?$DN?$DN?$DN?$DN?$DN?$DN?$DN?$DN?$DN?$DN?$DN?$DN?$DN?$DN?$DN?$DN?$DN?$DN?$DN@ 1003f460     GameMainManage.obj
 0002:000024d0       ??_C@_0DC@HGILIGFE@?H?U?V?$LO?3?5?$LH?$LP?$LM?dID?5?$DN?5?$CFd?5?J?$LB?$LM?d?5?$DN?5?$CF02d?4?$CF0@ 1003f4d0     GameMainManage.obj
 0002:00002504       ??_C@_09IKDIHHD@?$CFs?2?$CFs?4log?$AA@ 1003f504     GameMainManage.obj
 0002:00002510       ??_C@_0BL@KDHDFGMF@?$CF03d_?$CF02d?$CF02d_?$CF02d?$CF02d?$CF02d?$AA@ 1003f510     GameMainManage.obj
 0002:0000252c       ??_C@_06OGMMBELC@?2wlogs?$AA@ 1003f52c     GameMainManage.obj
 0002:00002534       ??_C@_02PCIJFNDE@?$AN?6?$AA@ 1003f534     GameMainManage.obj
 0002:00002538       ??_C@_07DCCDLMMH@GRM_los?$AA@ 1003f538     GameMainManage.obj
 0002:00002540       ??_C@_06HNELKJNM@prob?$CFd?$AA@ 1003f540     GameMainManage.obj
 0002:00002548       ??_C@_08OCAKGJGJ@UserID?$CFd?$AA@ 1003f548     GameMainManage.obj
 0002:00002554       ??_C@_05IOMEMJEC@count?$AA@ 1003f554     GameMainManage.obj
 0002:0000255c       ??_C@_07EONKHMPH@GRM_win?$AA@ 1003f55c     GameMainManage.obj
 0002:00002564       ??_C@_0P@PJJFFOHK@AIWinLuckyAtA4?$AA@ 1003f564     GameMainManage.obj
 0002:00002574       ??_C@_0P@LGNEMILN@AIWinLuckyAtA3?$AA@ 1003f574     GameMainManage.obj
 0002:00002584       ??_C@_0P@KPMPPJPM@AIWinLuckyAtA2?$AA@ 1003f584     GameMainManage.obj
 0002:00002594       ??_C@_0P@IEOCKKDP@AIWinLuckyAtA1?$AA@ 1003f594     GameMainManage.obj
 0002:000025a4       ??_C@_0BB@BPHOBMBO@AIWantWinMoneyA3?$AA@ 1003f5a4     GameMainManage.obj
 0002:000025b8       ??_C@_0BB@GGFCNFP@AIWantWinMoneyA2?$AA@ 1003f5b8     GameMainManage.obj
 0002:000025cc       ??_C@_0BB@CNEIHOJM@AIWantWinMoneyA1?$AA@ 1003f5cc     GameMainManage.obj
 0002:000025e0       ??_C@_0BE@GAAFDELB@ReSetAIHaveWinMoney?$AA@ 1003f5e0     GameMainManage.obj
 0002:000025f4       ??_C@_0BF@NHKPCGID@AIWinAndLostAutoCtrl?$AA@ 1003f5f4     GameMainManage.obj
 0002:0000260c       ??_C@_0L@HEIIMDKJ@?$CFs?$CFd_s?4ini?$AA@ 1003f60c     GameMainManage.obj
 0002:00002618       ??_C@_02DKCKIIND@?$CFs?$AA@ 1003f618     GameMainManage.obj
 0002:0000261c       ??_C@_07HFHECFGD@GRM_SET?$AA@ 1003f61c     GameMainManage.obj
 0002:00002624       ??_C@_0BA@CFKNCJNO@AIWinLuckyAtA4?5?$AA@ 1003f624     GameMainManage.obj
 0002:00002634       ??_C@_0BA@CAOCDPFL@AIWinLuckyAtA3?5?$AA@ 1003f634     GameMainManage.obj
 0002:00002644       ??_C@_0BA@CBCAFFGM@AIWinLuckyAtA2?5?$AA@ 1003f644     GameMainManage.obj
 0002:00002654       ??_C@_0BA@CDGGOLDF@AIWinLuckyAtA1?5?$AA@ 1003f654     GameMainManage.obj
 0002:00002664       ??_C@_0BC@GPJEGHNN@AIWantWinMoneyA3?5?$AA@ 1003f664     GameMainManage.obj
 0002:00002678       ??_C@_0BC@GOFGANOK@AIWantWinMoneyA2?5?$AA@ 1003f678     GameMainManage.obj
 0002:0000268c       ??_C@_0BC@GMBALDLD@AIWantWinMoneyA1?5?$AA@ 1003f68c     GameMainManage.obj
 0002:000026a0       ??_C@_0BF@CJICKCIM@ReSetAIHaveWinMoney?5?$AA@ 1003f6a0     GameMainManage.obj
 0002:000026b8       ??_C@_0BA@DCODEDLA@AIHaveWinMoney?5?$AA@ 1003f6b8     GameMainManage.obj
 0002:000026c8       ??_C@_0BH@LHIGLLII@?S?N?O?$LH?$LH?$LP?$LM?d?R?Q?$LO?$KN?T?$NN?M?$KD?$LN?x?H?k?$KD?$KB?$AA@ 1003f6c8     GameMainManage.obj
 0002:000026e0       ??_C@_0O@GJNCNBJD@FleeSubWeight?$AA@ 1003f6e0     GameMainManage.obj
 0002:000026f0       ??_C@_0M@LLDLFLCK@GRMInfo?4bcf?$AA@ 1003f6f0     GameMainManage.obj
 0002:00002700       __real@4059000000000000    1003f700     GameMainManage.obj
 0002:00002708       ??_C@_0CB@OMFHCOBA@OnGetContestBeginResult?5?$CFd?5?$CFd?5?$CFd@ 1003f708     GameMainManage.obj
 0002:0000272c       ??_C@_0CA@IAIFLMIC@OnGetContestRankResult?5?$CFd?5?$CFd?5?$CFd?$AA@ 1003f72c     GameMainManage.obj
 0002:00002750       ??_C@_0GI@FCCIDDPJ@OnTimerMessage?$KD?$LKIDT_WRITE_SERVER@ 1003f750     GameMainManage.obj
 0002:000027b8       ??_C@_0BA@PEKLFOKL@QueuerMaxPeople?$AA@ 1003f7b8     GameMainManage.obj
 0002:000027c8       ??_C@_0CL@KMDIFLG@CGameMainManage?3?3InitGameDesk?5?D?Z@ 1003f7c8     GameMainManage.obj
 0002:000027f4       ??_C@_0BL@BMJPFHCG@ycl?3?3RoomState?5Error?5?$CFd?0?$CFd?$AA@ 1003f7f4     GameMainManage.obj
 0002:00002810       ??_C@_0BL@LMDIMAPE@ycl?3?3AllotDesk?5Fail?5?$CFd?$KD?$KM?$CFd?$AA@ 1003f810     GameMainManage.obj
 0002:00002830       ??_C@_0FG@PMBEJAC@?$LG?$KI?J?$LB?H?$PM?$KD?$KM?$LP?$KK?H?$PM?J?$LB?$LM?d?$LO?$OA?$LF?$LB?G?$LA?J?$LB?$LM?d?5?$LM?d?$LI?t?$LC@ 1003f830     GameMainManage.obj
 0002:00002888       ??_C@_0BE@ECBIDDL@ContestType?5Error?$CB?$CB?$AA@ 1003f888     GameMainManage.obj
 0002:0000289c       ??_C@_0BB@OACCEEDD@RoomInfo?5Error?$CB?$CB?$AA@ 1003f89c     GameMainManage.obj
 0002:000028b0       ??_C@_0DK@NIPPIMEJ@?W?$MA?W?S?C?$NM?B?k?$LE?m?N?s?5?$LE?$LE?$LN?$KI?$LH?$LP?$LM?d?W?$MA?W?S?$LK?E255?5U@ 1003f8b0     GameMainManage.obj
 0002:000028ec       ??_C@_0DD@LEGGGPAA@?W?$MA?W?S?C?$NM?B?k?$LE?m?N?s?5UserID?3?$CFd?5PSW?3?$CFs?5De@ 1003f8ec     GameMainManage.obj
 0002:00002920       ??_C@_0BD@IPGJINKL@list?$DMT?$DO?5bad?5splice?$AA@ 1003f920     GameMainManage.obj
 0002:00002934       ??_C@_0BB@MOGOBHAF@list?$DMT?$DO?5too?5long?$AA@ 1003f934     GameMainManage.obj
 0002:0000294c       ??_7?$CArray@ULimitTalkStruct@@U1@@@6B@ 1003f94c     GameMainManage.obj
 0002:00002960       ??_C@_06JBKGCNBB@Delete?$AA@ 1003f960     stdafx.obj
 0002:00002968       ??_C@_08KAAPDIAN@NoRemove?$AA@ 1003f968     stdafx.obj
 0002:00002974       ??_C@_0M@DBGDLGLL@ForceRemove?$AA@ 1003f974     stdafx.obj
 0002:00002980       ??_C@_03LAIAPFCB@Val?$AA@  1003f980     stdafx.obj
 0002:00002984       ??_C@_01PLPBNMEI@M?$AA@    1003f984     stdafx.obj
 0002:00002988       ??_C@_01CPLAODJH@S?$AA@    1003f988     stdafx.obj
 0002:000029ac       ??_C@_06DAIGMDCJ@?S?N?O?$LH?V?P?$AA@ 1003f9ac     stdafx.obj
 0002:000029b4       ??_C@_04BECHADKL@?$LG?O?O?$NP?$AA@ 1003f9b4     stdafx.obj
 0002:000029bc       ??_C@_08OAAKLPBD@?$LE?s?L?$PM?M?$KM?R?b?$AA@ 1003f9bc     stdafx.obj
 0002:000029c8       ??_C@_04BJFNJIMM@?E?T?$LJ?$NL?$AA@ 1003f9c8     stdafx.obj
 0002:000029d0       ??_C@_04MNKAPCAF@?M?$KM?R?b?$AA@ 1003f9d0     stdafx.obj
 0002:000029d8       ??_C@_04CCOFPBFC@?W?x?O?B?$AA@ 1003f9d8     stdafx.obj
 0002:000029e0       ??_C@_06LDHANIFK@?$LP?U?O?P?V?P?$AA@ 1003f9e0     stdafx.obj
 0002:000029e8       ??_C@_0BP@GDPDDNHG@?$LB?$LO?U?K?$LK?E?K?x?$LG?$KI?A?K?D?$LD?L?$KI?$LL?z?F?w?$KD?$KM?$LF?G?B?$LM?J?$KH?$LA?$NM?$AA@ 1003f9e8     stdafx.obj
 0002:00002a08       ??_C@_0BH@CKDLGHGC@?$LL?z?F?w?B?k?$LC?$LL?F?$KF?E?d?$KD?$KM?$LN?b?K?x?J?$KH?$LA?$NM?$AA@ 1003fa08     stdafx.obj
 0002:00002a20       ??_C@_0BH@KAIGNCME@?$LL?z?F?w?C?$LL?S?P?K?x?$LG?$KI?$KD?$KM?$LN?b?K?x?J?$KH?$LA?$NM?$AA@ 1003fa20     stdafx.obj
 0002:00002a38       ??_C@_0N@FJMHOFCM@?$LN?b?$LD?$PN?K?x?$LG?$KI?$LD?I?$LJ?$KG?$AA@ 1003fa38     stdafx.obj
 0002:00002a48       ??_C@_0BF@EEIOFBJ@?$LL?z?F?w?R?Q?$LO?$KN?$LE?$KG?S?Z?K?x?$LG?$KI?W?$LE?L?$KM?$AA@ 1003fa48     stdafx.obj
 0002:00002a60       ??_C@_0N@CIKFAMAH@?K?x?$LG?$KI?$LL?z?F?w?$LD?I?$LJ?$KG?$AA@ 1003fa60     stdafx.obj
 0002:00002a70       ??_C@_0BL@CNMEGLFE@?M?$KM?R?$LLIP?C?$LP?L?l?V?$LL?D?$NM?W?$KC?$LC?a20?$LI?v?U?J?$LK?E?$AA@ 1003fa70     stdafx.obj
 0002:00002a8c       ??_C@_0P@DKDHCOBF@?D?Z?$LK?$KM?S?P?$LH?G?$LH?$KI?W?V?$LH?$PL?$AA@ 1003fa8c     stdafx.obj
 0002:00002a9c       ??_C@_0P@GMDKAMMC@?$LE?K?j?G?$LD?F?R?Q?$LO?$KN?$LE?f?T?Z?$AA@ 1003fa9c     stdafx.obj
 0002:00002aac       ??_C@_0P@EMAEECLI@?$LE?K?U?J?$LK?E?R?Q?$LO?$KN?$LF?G?B?$LM?$AA@ 1003faac     stdafx.obj
 0002:00002abc       ??_C@_0N@GEEAFMGO@?H?$KL?$LC?$LP?S?N?O?$LH?A?P?$LB?m?$AA@ 1003fabc     stdafx.obj
 0002:00002acc       ??_C@_0N@LHFABDLH@?$LC?$LP?$LH?V?S?N?O?$LH?A?P?$LB?m?$AA@ 1003facc     stdafx.obj
 0002:00002adc       ??_C@_0N@CGHOCDJP@?$LC?$LL?J?G?V?$LI?$LG?$KI?$LF?X?V?$LH?$AA@ 1003fadc     stdafx.obj
 0002:00002aec       ??_C@_0N@ILJFGIAG@?C?$NM?B?k?$LN?$PL?V?$LJ?P?$KH?Q?i?$AA@ 1003faec     stdafx.obj
 0002:00002afc       ??_C@_0N@DGDPAMOD@?S?C?$LL?$KH?R?Q?$LO?$KN?$LE?f?T?Z?$AA@ 1003fafc     stdafx.obj
 0002:00002b0c       ??_C@_0L@PLACOEOF@?$LF?G?B?$LNIP?$LB?$LL?$LN?$PL?$AA@ 1003fb0c     stdafx.obj
 0002:00002b18       ??_C@_0N@FJHJFIDA@?S?C?$LL?$KH?U?J?$LK?E?$LB?$LL?$LN?$PL?$AA@ 1003fb18     stdafx.obj
 0002:00002b28       ??_C@_0N@GGLOCCGC@?S?C?$LL?$KH?C?$NM?B?k?$LE?m?N?s?$AA@ 1003fb28     stdafx.obj
 0002:00002b38       ??_C@_0P@LKANGNLM@?$LF?G?B?$LM?S?C?$LL?$KH?C?$PL?$LE?m?N?s?$AA@ 1003fb38     stdafx.obj
 0002:00002b48       ??_C@_08DDBMHALJ@?$LF?G?B?$LM?$LD?I?$LJ?$KG?$AA@ 1003fb48     stdafx.obj
 0002:00002b54       ??_C@_08COCJNBCE@?N?$LE?V?$KK?$LE?m?N?s?$AA@ 1003fb54     stdafx.obj
 0002:00002b68       ??_C@_0N@LHGEPCPA@VipAddWeight?$AA@ 1003fb68     UserInfo.obj
 0002:00002b78       __real@408f400000000000    1003fb78     UserInfo.obj
 0002:00002b80       __real@4000000000000000    1003fb80     UserInfo.obj
 0002:00002b88       __real@4066800000000000    1003fb88     UserInfo.obj
 0002:00002b90       __real@400921f9f01b866e    1003fb90     UserInfo.obj
 0002:00002bd8       __pActualRawDllMain        1003fbd8     mfcs100:dllmodul.obj
 0002:00002be0       ??_7_AFX_DLL_MODULE_STATE@@6B@ 1003fbe0     mfcs100:dllmodul.obj
 0002:00002c28       ??_7type_info@@6B@         1003fc28     msvcrt:ti_inst.obj
 0002:00002c2c       __pDefaultRawDllMain       1003fc2c     msvcrt:crtdll.obj
 0002:00002c38       __pRawDllMain              1003fc38     mfcs100:rawdllmainproxy.obj
 0002:00002c40       __load_config_used         1003fc40     msvcrt:loadcfg.obj
 0002:00002ce8       ??_R4CUDPSocket@@6B@       1003fce8     mainserversocket.obj
 0002:00002cfc       ??_R3CUDPSocket@@8         1003fcfc     mainserversocket.obj
 0002:00002d0c       ??_R2CUDPSocket@@8         1003fd0c     mainserversocket.obj
 0002:00002d14       ??_R1A@?0A@EA@CUDPSocket@@8 1003fd14     mainserversocket.obj
 0002:00002d30       ??_R4CListenSocket@@6B@    1003fd30     mainserversocket.obj
 0002:00002d44       ??_R3CListenSocket@@8      1003fd44     mainserversocket.obj
 0002:00002d54       ??_R2CListenSocket@@8      1003fd54     mainserversocket.obj
 0002:00002d5c       ??_R1A@?0A@EA@CListenSocket@@8 1003fd5c     mainserversocket.obj
 0002:00002d78       ??_R4CTCPSocket@@6B@       1003fd78     mainserversocket.obj
 0002:00002d8c       ??_R3CTCPSocket@@8         1003fd8c     mainserversocket.obj
 0002:00002d9c       ??_R2CTCPSocket@@8         1003fd9c     mainserversocket.obj
 0002:00002da4       ??_R1A@?0A@EA@CTCPSocket@@8 1003fda4     mainserversocket.obj
 0002:00002dc0       ??_R4CTCPSocketForZ@@6B@   1003fdc0     mainserversocket.obj
 0002:00002dd4       ??_R3CTCPSocketForZ@@8     1003fdd4     mainserversocket.obj
 0002:00002de4       ??_R2CTCPSocketForZ@@8     1003fde4     mainserversocket.obj
 0002:00002dec       ??_R1A@?0A@EA@CTCPSocketForZ@@8 1003fdec     mainserversocket.obj
 0002:00002e08       ??_R4CAFCException@@6B@    1003fe08     mainserversocket.obj
 0002:00002e1c       ??_R3CAFCException@@8      1003fe1c     mainserversocket.obj
 0002:00002e2c       ??_R2CAFCException@@8      1003fe2c     mainserversocket.obj
 0002:00002e34       ??_R1A@?0A@EA@CAFCException@@8 1003fe34     mainserversocket.obj
 0002:00002e50       ??_R4CDataBaseHandle@@6B@  1003fe50     mainserversocket.obj
 0002:00002e64       ??_R3CDataBaseHandle@@8    1003fe64     mainserversocket.obj
 0002:00002e74       ??_R2CDataBaseHandle@@8    1003fe74     mainserversocket.obj
 0002:00002e80       ??_R1A@?0A@EA@CDataBaseHandle@@8 1003fe80     mainserversocket.obj
 0002:00002e9c       ??_R1A@?0A@EA@IDataBaseHandleService@@8 1003fe9c     mainserversocket.obj
 0002:00002eb8       ??_R3IDataBaseHandleService@@8 1003feb8     mainserversocket.obj
 0002:00002ec8       ??_R2IDataBaseHandleService@@8 1003fec8     mainserversocket.obj
 0002:00002ed0       ??_R4IDataBaseHandleService@@6B@ 1003fed0     mainserversocket.obj
 0002:00002ee4       ??_R4CTCPSocketForWeb@@6B@ 1003fee4     mainserversocket.obj
 0002:00002ef8       ??_R3CTCPSocketForWeb@@8   1003fef8     mainserversocket.obj
 0002:00002f08       ??_R2CTCPSocketForWeb@@8   1003ff08     mainserversocket.obj
 0002:00002f10       ??_R1A@?0A@EA@CTCPSocketForWeb@@8 1003ff10     mainserversocket.obj
 0002:00002f2c       ??_R4CGameDataBaseHandle@@6B@ 1003ff2c     mainserversocket.obj
 0002:00002f40       ??_R3CGameDataBaseHandle@@8 1003ff40     mainserversocket.obj
 0002:00002f50       ??_R2CGameDataBaseHandle@@8 1003ff50     mainserversocket.obj
 0002:00002f60       ??_R1A@?0A@EA@CGameDataBaseHandle@@8 1003ff60     mainserversocket.obj
 0002:00002f7c       ??_R4CMainServerSocket@@6B@ 1003ff7c     mainserversocket.obj
 0002:00002f90       ??_R3CMainServerSocket@@8  1003ff90     mainserversocket.obj
 0002:00002fa0       ??_R2CMainServerSocket@@8  1003ffa0     mainserversocket.obj
 0002:00002fac       ??_R1A@?0A@EA@CMainServerSocket@@8 1003ffac     mainserversocket.obj
 0002:00002fc8       ??_R1A@?0A@EA@IClientSocketService@@8 1003ffc8     mainserversocket.obj
 0002:00002fe4       ??_R3IClientSocketService@@8 1003ffe4     mainserversocket.obj
 0002:00002ff4       ??_R2IClientSocketService@@8 1003fff4     mainserversocket.obj
 0002:00002ffc       ??_R4IClientSocketService@@6B@ 1003fffc     mainserversocket.obj
 0002:00003010       ??_R4bad_alloc@std@@6B@    10040010     mainserversocket.obj
 0002:00003024       ??_R3bad_alloc@std@@8      10040024     mainserversocket.obj
 0002:00003034       ??_R2bad_alloc@std@@8      10040034     mainserversocket.obj
 0002:00003040       ??_R1A@?0A@EA@bad_alloc@std@@8 10040040     mainserversocket.obj
 0002:0000305c       ??_R1A@?0A@EA@exception@std@@8 1004005c     mainserversocket.obj
 0002:00003078       ??_R3exception@std@@8      10040078     mainserversocket.obj
 0002:00003088       ??_R2exception@std@@8      10040088     mainserversocket.obj
 0002:00003090       ??_R4CAutoAllotDesk@@6B@   10040090     AutoAllotDesk.obj
 0002:000030a4       ??_R3CAutoAllotDesk@@8     100400a4     AutoAllotDesk.obj
 0002:000030b4       ??_R2CAutoAllotDesk@@8     100400b4     AutoAllotDesk.obj
 0002:000030c0       ??_R1A@?0A@EA@CAutoAllotDesk@@8 100400c0     AutoAllotDesk.obj
 0002:000030dc       ??_R1A@?0A@EA@IAutoAllotDesk@@8 100400dc     AutoAllotDesk.obj
 0002:000030f8       ??_R3IAutoAllotDesk@@8     100400f8     AutoAllotDesk.obj
 0002:00003108       ??_R2IAutoAllotDesk@@8     10040108     AutoAllotDesk.obj
 0002:00003110       ??_R4IAutoAllotDesk@@6B@   10040110     AutoAllotDesk.obj
 0002:00003124       ??_R4MD5_CTX@@6B@          10040124     GameDesk.obj
 0002:00003138       ??_R3MD5_CTX@@8            10040138     GameDesk.obj
 0002:00003148       ??_R2MD5_CTX@@8            10040148     GameDesk.obj
 0002:00003150       ??_R1A@?0A@EA@MD5_CTX@@8   10040150     GameDesk.obj
 0002:0000316c       ??_R4CGameDesk@@6B@        1004016c     GameDesk.obj
 0002:00003180       ??_R3CGameDesk@@8          10040180     GameDesk.obj
 0002:00003190       ??_R2CGameDesk@@8          10040190     GameDesk.obj
 0002:00003198       ??_R1A@?0A@EA@CGameDesk@@8 10040198     GameDesk.obj
 0002:000031b4       ??_R4CGameMainManage@@6BIServerSocketServiceForWeb@@@ 100401b4     GameMainManage.obj
 0002:000031c8       ??_R3CGameMainManage@@8    100401c8     GameMainManage.obj
 0002:000031d8       ??_R2CGameMainManage@@8    100401d8     GameMainManage.obj
 0002:000031ec       ??_R1A@?0A@EA@CGameMainManage@@8 100401ec     GameMainManage.obj
 0002:00003208       ??_R1A@?0A@EA@CBaseMainManageForWeb@@8 10040208     GameMainManage.obj
 0002:00003224       ??_R3CBaseMainManageForWeb@@8 10040224     GameMainManage.obj
 0002:00003234       ??_R2CBaseMainManageForWeb@@8 10040234     GameMainManage.obj
 0002:00003244       ??_R1A@?0A@EA@IServerSocketServiceForWeb@@8 10040244     GameMainManage.obj
 0002:00003260       ??_R3IServerSocketServiceForWeb@@8 10040260     GameMainManage.obj
 0002:00003270       ??_R2IServerSocketServiceForWeb@@8 10040270     GameMainManage.obj
 0002:00003278       ??_R13?0A@EA@IDataBaseResultService@@8 10040278     GameMainManage.obj
 0002:00003294       ??_R3IDataBaseResultService@@8 10040294     GameMainManage.obj
 0002:000032a4       ??_R2IDataBaseResultService@@8 100402a4     GameMainManage.obj
 0002:000032ac       ??_R1A@?0A@EA@IDataBaseResultService@@8 100402ac     GameMainManage.obj
 0002:000032c8       ??_R4CGameMainManage@@6BIDataBaseResultService@@@ 100402c8     GameMainManage.obj
 0002:000032dc       ??_R4?$CArray@ULimitTalkStruct@@U1@@@6B@ 100402dc     GameMainManage.obj
 0002:000032f0       ??_R3?$CArray@ULimitTalkStruct@@U1@@@8 100402f0     GameMainManage.obj
 0002:00003300       ??_R2?$CArray@ULimitTalkStruct@@U1@@@8 10040300     GameMainManage.obj
 0002:0000330c       ??_R1A@?0A@EA@?$CArray@ULimitTalkStruct@@U1@@@8 1004030c     GameMainManage.obj
 0002:00003328       ??_R1A@?0A@EA@CObject@@8   10040328     GameMainManage.obj
 0002:00003344       ??_R3CObject@@8            10040344     GameMainManage.obj
 0002:00003354       ??_R2CObject@@8            10040354     GameMainManage.obj
 0002:0000335c       ??_R4_AFX_DLL_MODULE_STATE@@6B@ 1004035c     mfcs100:dllmodul.obj
 0002:00003370       ??_R3_AFX_DLL_MODULE_STATE@@8 10040370     mfcs100:dllmodul.obj
 0002:00003380       ??_R2_AFX_DLL_MODULE_STATE@@8 10040380     mfcs100:dllmodul.obj
 0002:00003390       ??_R1A@?0A@EA@_AFX_DLL_MODULE_STATE@@8 10040390     mfcs100:dllmodul.obj
 0002:000033ac       ??_R1A@?0A@EA@AFX_MODULE_STATE@@8 100403ac     mfcs100:dllmodul.obj
 0002:000033c8       ??_R3AFX_MODULE_STATE@@8   100403c8     mfcs100:dllmodul.obj
 0002:000033d8       ??_R2AFX_MODULE_STATE@@8   100403d8     mfcs100:dllmodul.obj
 0002:000033e4       ??_R1A@?0A@EA@CNoTrackObject@@8 100403e4     mfcs100:dllmodul.obj
 0002:00003400       ??_R3CNoTrackObject@@8     10040400     mfcs100:dllmodul.obj
 0002:00003410       ??_R2CNoTrackObject@@8     10040410     mfcs100:dllmodul.obj
 0002:00003418       ??_R4type_info@@6B@        10040418     msvcrt:ti_inst.obj
 0002:0000342c       ??_R3type_info@@8          1004042c     msvcrt:ti_inst.obj
 0002:0000343c       ??_R2type_info@@8          1004043c     msvcrt:ti_inst.obj
 0002:00003444       ??_R1A@?0A@EA@type_info@@8 10040444     msvcrt:ti_inst.obj
 0002:00003460       ___safe_se_handler_table   10040460     <linker-defined>
 0002:00003650       ___rtc_iaa                 10040650     msvcrt:_initsect_.obj
 0002:00003654       ___rtc_izz                 10040654     msvcrt:_initsect_.obj
 0002:00003658       ___rtc_taa                 10040658     msvcrt:_initsect_.obj
 0002:0000365c       ___rtc_tzz                 1004065c     msvcrt:_initsect_.obj
 0002:0000387c       __TI2?AVbad_alloc@std@@    1004087c     mainserversocket.obj
 0002:0000388c       __CTA2?AVbad_alloc@std@@   1004088c     mainserversocket.obj
 0002:00003898       __CT??_R0?AVbad_alloc@std@@@8??0bad_alloc@std@@QAE@ABV01@@Z12 10040898     mainserversocket.obj
 0002:000038b4       __CT??_R0?AVexception@std@@@8??0exception@std@@QAE@ABV01@@Z12 100408b4     mainserversocket.obj
 0002:00003ccc       __TI1H                     10040ccc     GameDataBaseHandle.obj
 0002:00003d10       __CTA1H                    10040d10     GameDataBaseHandle.obj
 0002:00003d18       __CT??_R0H@84              10040d18     GameDataBaseHandle.obj
 0002:000057c4       __TI2PAVCAFCException@@    100427c4     GameMainManage.obj
 0002:00005828       __CTA2PAVCAFCException@@   10042828     GameMainManage.obj
 0002:00005834       __CT??_R0PAVCAFCException@@@84 10042834     GameMainManage.obj
 0002:00005850       __CT??_R0PAX@84            10042850     GameMainManage.obj
 0002:0000618c       __IMPORT_DESCRIPTOR_AFCComDllEx 1004318c     AFCComDllEx:AFCComDllEx.dll
 0002:000061a0       __IMPORT_DESCRIPTOR_mfc100 100431a0     mfc100:mfc100.dll
 0002:000061b4       __IMPORT_DESCRIPTOR_MSVCR100 100431b4     msvcrt:MSVCR100.dll
 0002:000061c8       __IMPORT_DESCRIPTOR_KERNEL32 100431c8     kernel32:KERNEL32.dll
 0002:000061dc       __IMPORT_DESCRIPTOR_USER32 100431dc     user32:USER32.dll
 0002:000061f0       __IMPORT_DESCRIPTOR_OLEAUT32 100431f0     oleaut32:OLEAUT32.dll
 0002:00006204       __IMPORT_DESCRIPTOR_MSVCP100 10043204     msvcprt:MSVCP100.dll
 0002:00006218       __IMPORT_DESCRIPTOR_IPHLPAPI 10043218     IPHLPAPI:IPHLPAPI.DLL
 0002:0000622c       __NULL_IMPORT_DESCRIPTOR   1004322c     AFCComDllEx:AFCComDllEx.dll
 0003:00000000       ??_R0?AVCUDPSocket@@@8     1004b000     mainserversocket.obj
 0003:0000001c       ??_R0?AVCListenSocket@@@8  1004b01c     mainserversocket.obj
 0003:00000038       ??_R0?AVCTCPSocket@@@8     1004b038     mainserversocket.obj
 0003:00000054       ??_R0?AVCTCPSocketForZ@@@8 1004b054     mainserversocket.obj
 0003:00000074       ??_R0?AVCAFCException@@@8  1004b074     mainserversocket.obj
 0003:00000090       ??_R0?AVCDataBaseHandle@@@8 1004b090     mainserversocket.obj
 0003:000000b0       ??_R0?AUIDataBaseHandleService@@@8 1004b0b0     mainserversocket.obj
 0003:000000d8       ??_R0?AVCTCPSocketForWeb@@@8 1004b0d8     mainserversocket.obj
 0003:000000f8       ??_R0?AVCGameDataBaseHandle@@@8 1004b0f8     mainserversocket.obj
 0003:0000011c       ??_R0?AVCMainServerSocket@@@8 1004b11c     mainserversocket.obj
 0003:0000013c       ??_R0?AUIClientSocketService@@@8 1004b13c     mainserversocket.obj
 0003:00000160       ??_R0?AVbad_alloc@std@@@8  1004b160     mainserversocket.obj
 0003:0000017c       ??_R0?AVexception@std@@@8  1004b17c     mainserversocket.obj
 0003:00000198       ??_R0?AVCAutoAllotDesk@@@8 1004b198     AutoAllotDesk.obj
 0003:000001b8       ??_R0?AUIAutoAllotDesk@@@8 1004b1b8     AutoAllotDesk.obj
 0003:000001d8       ??_R0H@8                   1004b1d8     GameDataBaseHandle.obj
 0003:00000234       ??_R0?AVMD5_CTX@@@8        1004b234     GameDesk.obj
 0003:0000024c       ??_R0?AVCGameDesk@@@8      1004b24c     GameDesk.obj
 0003:00000264       ?__LINE__Var@?1??HandleFrameMessage@CGameDesk@@UAE_NEPAUNetMessageHead@@PAXII_N@Z@4JA 1004b264     GameDesk.obj
 0003:00000268       ??_R0?AVCGameMainManage@@@8 1004b268     GameMainManage.obj
 0003:00000288       ??_R0?AVCBaseMainManageForWeb@@@8 1004b288     GameMainManage.obj
 0003:000002ac       ??_R0?AUIServerSocketServiceForWeb@@@8 1004b2ac     GameMainManage.obj
 0003:000002d8       ??_R0?AUIDataBaseResultService@@@8 1004b2d8     GameMainManage.obj
 0003:00000300       ??_R0PAVCAFCException@@@8  1004b300     GameMainManage.obj
 0003:0000031c       ?__LINE__Var@?1??OnSocketRead@CGameMainManage@@EAE_NPAUNetMessageHead@@PAXIKIK@Z@4JA 1004b31c     GameMainManage.obj
 0003:00000320       ??_R0PAX@8                 1004b320     GameMainManage.obj
 0003:00000330       ??_R0?AV?$CArray@ULimitTalkStruct@@U1@@@@8 1004b330     GameMainManage.obj
 0003:00000360       ??_R0?AVCObject@@@8        1004b360     GameMainManage.obj
 0003:00000378       ??_R0PAVCMemoryException@@@8 1004b378     mfcs100:dllmodul.obj
 0003:00000398       ??_R0?AV_AFX_DLL_MODULE_STATE@@@8 1004b398     mfcs100:dllmodul.obj
 0003:000003bc       ??_R0?AVAFX_MODULE_STATE@@@8 1004b3bc     mfcs100:dllmodul.obj
 0003:000003dc       ??_R0?AVCNoTrackObject@@@8 1004b3dc     mfcs100:dllmodul.obj
 0003:000003fc       ??_R0?AVtype_info@@@8      1004b3fc     msvcrt:ti_inst.obj
 0003:00000414       ___security_cookie         1004b414     msvcrt:gs_cookie.obj
 0003:00000418       ___security_cookie_complement 1004b418     msvcrt:gs_cookie.obj
 0003:00000420       ___native_dllmain_reason   1004b420     msvcrt:natstart.obj
 0003:00000424       ___native_vcclrit_reason   1004b424     msvcrt:natstart.obj
 0003:00000538       ?theApp@@3VCWinApp@@A      1004b538     GameManage.obj
 0003:000005f0       ___@@_PchSym_@00@UsmhxrvmgUjshvieviUkozgulinUhvieviUtznvnzmztvUivovzhvUhgwzucOlyq@ 1004b5f0     stdafx.obj
 0003:0000066c       __afxForceEXCLUDE          1004b66c     mfcs100:nolib.obj
 0003:00000670       ?__mixedModuleStartup@@3HA 1004b670     mfcs100:dllmodul.obj
 0003:00000678       __afxForceUSRDLL           1004b678     mfcs100:dllmodul.obj
 0003:00000738       __afxForceSTDAFX           1004b738     mfcs100:stdafx.obj
 0003:00000a64       ?__type_info_root_node@@3U__type_info_node@@A 1004ba64     msvcrt:tncleanup.obj
 0003:00000a6c       ___native_startup_state    1004ba6c     <common>
 0003:00000a70       ___native_startup_lock     1004ba70     <common>
 0003:00000a74       ___sse2_available          1004ba74     <common>
 0003:00000a78       ___dyn_tls_init_callback   1004ba78     <common>
 0003:00000a7c       ___onexitend               1004ba7c     <common>
 0003:00000a80       ___onexitbegin             1004ba80     <common>

 entry point at        0001:00038a1c

 Static symbols

 0001:00001d6b       __catch$??1CMainServerSocket@@QAE@XZ$0 10002d6b f   mainserversocket.obj
 0001:000024af       __catch$??0?$_Tree@V?$_Tmap_traits@V?$basic_string@DU?$char_traits@D@std@@V?$allocator@D@2@@std@@VHNTreeNode@@U?$less@V?$basic_string@DU?$char_traits@D@std@@V?$allocator@D@2@@std@@@2@V?$allocator@U?$pair@$$CBV?$basic_string@DU?$char_traits@D@std@@V?$allocator@D@2@@std@@VHNTreeNode@@@std@@@2@$0A@@std@@@std@@QAE@ABV01@@Z$0 100034af f i mainserversocket.obj
 0001:000031bc       __catch$?_Copy@?$_Tree@V?$_Tmap_traits@V?$basic_string@DU?$char_traits@D@std@@V?$allocator@D@2@@std@@VHNTreeNode@@U?$less@V?$basic_string@DU?$char_traits@D@std@@V?$allocator@D@2@@std@@@2@V?$allocator@U?$pair@$$CBV?$basic_string@DU?$char_traits@D@std@@V?$allocator@D@2@@std@@VHNTreeNode@@@std@@@2@$0A@@std@@@std@@IAEPAU_Node@?$_Tree_nod@V?$_Tmap_traits@V?$basic_string@DU?$char_traits@D@std@@V?$allocator@D@2@@std@@VHNTreeNode@@U?$less@V?$basic_string@DU?$char_traits@D@std@@V?$allocator@D@2@@std@@@2@V?$allocator@U?$pair@$$CBV?$basic_string@DU?$char_traits@D@std@@V?$allocator@D@2@@std@@VHNTreeNode@@@std@@@2@$0A@@std@@@2@PAU342@0@Z$0 100041bc f i mainserversocket.obj
 0001:000039c7       __catch$??$_Buynode@AAU?$pair@$$CBV?$basic_string@DU?$char_traits@D@std@@V?$allocator@D@2@@std@@VHNTreeNode@@@std@@@?$_Tree_val@V?$_Tmap_traits@V?$basic_string@DU?$char_traits@D@std@@V?$allocator@D@2@@std@@VHNTreeNode@@U?$less@V?$basic_string@DU?$char_traits@D@std@@V?$allocator@D@2@@std@@@2@V?$allocator@U?$pair@$$CBV?$basic_string@DU?$char_traits@D@std@@V?$allocator@D@2@@std@@VHNTreeNode@@@std@@@2@$0A@@std@@@std@@QAEPAU_Node@?$_Tree_nod@V?$_Tmap_traits@V?$basic_string@DU?$char_traits@D@std@@V?$allocator@D@2@@std@@VHNTreeNode@@U?$less@V?$basic_string@DU?$char_traits@D@std@@V?$allocator@D@2@@std@@@2@V?$allocator@U?$pair@$$CBV?$basic_string@DU?$char_traits@D@std@@V?$allocator@D@2@@std@@VHNTreeNode@@@std@@@2@$0A@@std@@@1@AAU?$pair@$$CBV?$basic_string@DU?$char_traits@D@std@@V?$allocator@D@2@@std@@VHNTreeNode@@@1@@Z$0 100049c7 f i mainserversocket.obj
 0001:000049b3       __catch$?_Copy@?$basic_string@DU?$char_traits@D@std@@V?$allocator@D@2@@std@@QAEXII@Z$0 100059b3 f i mainserversocket.obj
 0001:000049dd       __catch$?_Copy@?$basic_string@DU?$char_traits@D@std@@V?$allocator@D@2@@std@@QAEXII@Z$1 100059dd f i mainserversocket.obj
 0001:0000648e       __catch$?reserve@?$vector@UQueueInfo_t@@V?$allocator@UQueueInfo_t@@@std@@@std@@QAEXI@Z$0 1000748e f i AutoAllotDesk.obj
 0001:000073bd       __catch$??$_Uninit_move@PAUQueueInfo_t@@PAU1@V?$allocator@UQueueInfo_t@@@std@@U1@@std@@YAPAUQueueInfo_t@@PAU1@00AAV?$allocator@UQueueInfo_t@@@0@0U_Nonscalar_ptr_iterator_tag@0@@Z$0 100083bd f i AutoAllotDesk.obj
 0001:00008d96       __catch$?OnCheckDataConnect@CGameDataBaseHandle@@AAEIPAUDataBaseLineHead@@@Z$0 10009d96 f   GameDataBaseHandle.obj
 0001:000091b0       _time                      1000a1b0 f   GameDataBaseHandle.obj
 0001:000091b0       _time                      1000a1b0 f   GameDataBaseHandle.obj
 0001:000091b0       _time                      1000a1b0 f   GameDataBaseHandle.obj
 0001:000091b0       _time                      1000a1b0 f   GameDataBaseHandle.obj
 0001:000091b0       _time                      1000a1b0 f   GameDataBaseHandle.obj
 0001:0000aafe       __catch$?OnBankOperateNormal@CGameDataBaseHandle@@AAEIPAUDataBaseLineHead@@@Z$0 1000bafe f   GameDataBaseHandle.obj
 0001:0000ad20       __catch$?OnBankOperateTransfer@CGameDataBaseHandle@@AAEIPAUDataBaseLineHead@@@Z$0 1000bd20 f   GameDataBaseHandle.obj
 0001:0000b0e6       __catch$?OnBankOperateDeposit@CGameDataBaseHandle@@AAEIPAUDataBaseLineHead@@@Z$0 1000c0e6 f   GameDataBaseHandle.obj
 0001:0000b2d6       __catch$?OnPropChange@CGameDataBaseHandle@@AAEIPAUDataBaseLineHead@@@Z$0 1000c2d6 f   GameDataBaseHandle.obj
 0001:0000b557       __catch$?OnBankQueryDeposits@CGameDataBaseHandle@@AAEIPAUDataBaseLineHead@@@Z$0 1000c557 f   GameDataBaseHandle.obj
 0001:0000b7a6       __catch$?OnBankGetWallet@CGameDataBaseHandle@@AAEIPAUDataBaseLineHead@@@Z$0 1000c7a6 f   GameDataBaseHandle.obj
 0001:0000bab6       __catch$?OnCheckOutMoney@CGameDataBaseHandle@@AAEIPAUDataBaseLineHead@@I@Z$0 1000cab6 f   GameDataBaseHandle.obj
 0001:0000bdf4       __catch$?OnCheckInMoney@CGameDataBaseHandle@@AAEIPAUDataBaseLineHead@@I@Z$0 1000cdf4 f   GameDataBaseHandle.obj
 0001:0000c55d       __catch$?OnTransferMoney@CGameDataBaseHandle@@AAEIPAUDataBaseLineHead@@I@Z$0 1000d55d f   GameDataBaseHandle.obj
 0001:0000c7c6       __catch$?OnBankTransferRebate@CGameDataBaseHandle@@AAEIPAUDataBaseLineHead@@I@Z$0 1000d7c6 f   GameDataBaseHandle.obj
 0001:0000cb8d       __catch$?OnOpenWallet@CGameDataBaseHandle@@AAEIPAUDataBaseLineHead@@I@Z$0 1000db8d f   GameDataBaseHandle.obj
 0001:0000cf40       __catch$?OnCallGM@CGameDataBaseHandle@@AAEIPAUDataBaseLineHead@@@Z$0 1000df40 f   GameDataBaseHandle.obj
 0001:0000d084       __catch$?OnRoomPWChangeRecord@CGameDataBaseHandle@@AAEIPAUDataBaseLineHead@@@Z$0 1000e084 f   GameDataBaseHandle.obj
 0001:0000d4e7       __catch$?OnUserLeft@CGameDataBaseHandle@@AAEIPAUDataBaseLineHead@@@Z$0 1000e4e7 f   GameDataBaseHandle.obj
 0001:0000dda1       __catch$?GetWalletMoney@CGameDataBaseHandle@@AAEXAAUtag_RECEIVEMONEY@@K@Z$0 1000eda1 f   GameDataBaseHandle.obj
 0001:0000e002       __catch$?OnContestBegin@CGameDataBaseHandle@@AAEIPAUDataBaseLineHead@@@Z$0 1000f002 f   GameDataBaseHandle.obj
 0001:0000e277       __catch$?OnContestGameOver@CGameDataBaseHandle@@AAEIPAUDataBaseLineHead@@@Z$0 1000f277 f   GameDataBaseHandle.obj
 0001:0000e443       __catch$?OnUpdateContestInfo@CGameDataBaseHandle@@AAEIPAUDataBaseLineHead@@@Z$0 1000f443 f   GameDataBaseHandle.obj
 0001:0000e67e       __catch$?OnGetContestInfo@CGameDataBaseHandle@@AAEIPAUDataBaseLineHead@@@Z$0 1000f67e f   GameDataBaseHandle.obj
 0001:0000e944       __catch$?OnContestApply@CGameDataBaseHandle@@AAEIPAUDataBaseLineHead@@@Z$0 1000f944 f   GameDataBaseHandle.obj
 0001:0000ebc4       __catch$?OnContestAbandon@CGameDataBaseHandle@@AAEIPAUDataBaseLineHead@@@Z$0 1000fbc4 f   GameDataBaseHandle.obj
 0001:0000f81c       __catch$?OnUnRegisterOnLine@CGameDataBaseHandle@@AAEIPAUDataBaseLineHead@@@Z$0 1001081c f   GameDataBaseHandle.obj
 0001:0000f91c       __catch$?OnWriteTWLoginRecord@CGameDataBaseHandle@@AAEIPAUDataBaseLineHead@@@Z$0 1001091c f   GameDataBaseHandle.obj
 0001:0000fa2d       __catch$?OnAloneDeskInTime@CGameDataBaseHandle@@AAEIPAUDataBaseLineHead@@@Z$0 10010a2d f   GameDataBaseHandle.obj
 0001:00011945       __catch$?OnGetRoomInfo@CGameDataBaseHandle@@AAEHPAUDataBaseLineHead@@@Z$0 10012945 f   GameDataBaseHandle.obj
 0001:0001430b       __catch$?FindStation@CGameDesk@@QAEEPAVCGameUserInfo@@@Z$0 1001530b f   GameDesk.obj
 0001:0001d117       __catch$?HandleFrameMessage@CGameDesk@@UAE_NEPAUNetMessageHead@@PAXII_N@Z$0 1001e117 f   GameDesk.obj
 0001:0001d1e2       __catch$?HandleFrameMessage@CGameDesk@@UAE_NEPAUNetMessageHead@@PAXII_N@Z$2 1001e1e2 f   GameDesk.obj
 0001:0001d3e1       __catch$?UpdateUserDB@CGameDesk@@MAEHJHH@Z$0 1001e3e1 f   GameDesk.obj
 0001:0001f54e       __catch$?reserve@?$vector@UMSG_GR_S_Position_Notice@@V?$allocator@UMSG_GR_S_Position_Notice@@@std@@@std@@QAEXI@Z$0 1002054e f i GameDesk.obj
 0001:0001fffd       __catch$??$_Uninit_move@PAUMSG_GR_S_Position_Notice@@PAU1@V?$allocator@UMSG_GR_S_Position_Notice@@@std@@U1@@std@@YAPAUMSG_GR_S_Position_Notice@@PAU1@00AAV?$allocator@UMSG_GR_S_Position_Notice@@@0@0U_Nonscalar_ptr_iterator_tag@0@@Z$0 10020ffd f i GameDesk.obj
 0001:00020f1d       __catch$??1CGameMainManage@@UAE@XZ$0 10021f1d f   GameMainManage.obj
 0001:00020f5c       __catch$??1CGameMainManage@@UAE@XZ$2 10021f5c f   GameMainManage.obj
 0001:00020f9b       __catch$??1CGameMainManage@@UAE@XZ$4 10021f9b f   GameMainManage.obj
 0001:0002103c       __catch$??1CGameMainManage@@UAE@XZ$6 1002203c f   GameMainManage.obj
 0001:0002173a       __catch$?OnInit@CGameMainManage@@EAE_NPAUManageInfoStruct@@PAUKernelInfoStruct@@@Z$0 1002273a f   GameMainManage.obj
 0001:00021754       __catch$?OnInit@CGameMainManage@@EAE_NPAUManageInfoStruct@@PAUKernelInfoStruct@@@Z$1 10022754 f   GameMainManage.obj
 0001:000217df       __catch$?OnUnInit@CGameMainManage@@EAE_NXZ$0 100227df f   GameMainManage.obj
 0001:00021921       __catch$?OnUnInit@CGameMainManage@@EAE_NXZ$2 10022921 f   GameMainManage.obj
 0001:00021963       __catch$?OnUnInit@CGameMainManage@@EAE_NXZ$4 10022963 f   GameMainManage.obj
 0001:00021a07       __catch$?OnUnInit@CGameMainManage@@EAE_NXZ$6 10022a07 f   GameMainManage.obj
 0001:00021a49       __catch$?OnUnInit@CGameMainManage@@EAE_NXZ$8 10022a49 f   GameMainManage.obj
 0001:00022c1d       __catch$?OnSocketRead@CGameMainManage@@EAE_NPAUNetMessageHead@@PAXIKIK@Z$0 10023c1d f   GameMainManage.obj
 0001:0002bb6b       __catch$?OnRoomLogonResult@CGameMainManage@@AAE_NPAUDataBaseResultLine@@@Z$0 1002cb6b f   GameMainManage.obj
 0001:0002d1ff       __catch$?OnGetContestAbandonResult@CGameMainManage@@AAE_NPAUDataBaseResultLine@@@Z$0 1002e1ff f   GameMainManage.obj
 0001:0003287e       __catch$?reserve@?$vector@UMSG_GM_S_ReturnGameInfo@@V?$allocator@UMSG_GM_S_ReturnGameInfo@@@std@@@std@@QAEXI@Z$0 1003387e f i GameMainManage.obj
 0001:00032cfe       __catch$?reserve@?$vector@HV?$allocator@H@std@@@std@@QAEXI@Z$0 10033cfe f i GameMainManage.obj
 0001:00032cfe       __catch$?reserve@?$vector@PAVCGameUserInfo@@V?$allocator@PAVCGameUserInfo@@@std@@@std@@QAEXI@Z$0 10033cfe f i GameMainManage.obj
 0001:00032cfe       __catch$?reserve@?$vector@JV?$allocator@J@std@@@std@@QAEXI@Z$0 10033cfe f i GameMainManage.obj
 0001:00034302       __catch$??$_Uninit_move@PAUMSG_GM_S_ReturnGameInfo@@PAU1@V?$allocator@UMSG_GM_S_ReturnGameInfo@@@std@@U1@@std@@YAPAUMSG_GM_S_ReturnGameInfo@@PAU1@00AAV?$allocator@UMSG_GM_S_ReturnGameInfo@@@0@0U_Nonscalar_ptr_iterator_tag@0@@Z$0 10035302 f i GameMainManage.obj
 0001:000344da       __catch$??$_Buynode@PAVCGameUserInfo@@@?$_List_val@PAVCGameUserInfo@@V?$allocator@PAVCGameUserInfo@@@std@@@std@@QAEPAU_Node@?$_List_nod@PAVCGameUserInfo@@V?$allocator@PAVCGameUserInfo@@@std@@@1@PAU231@0$$QAPAVCGameUserInfo@@@Z$0 100354da f i GameMainManage.obj
 0001:00035cb3       __catch$??0?$list@PAUFILEINFO@@V?$allocator@PAUFILEINFO@@@std@@@std@@QAE@ABV01@@Z$0 10036cb3 f i stdafx.obj
 0001:00035fac       __catch$??$_Insert@V?$_List_const_iterator@V?$_List_val@PAVCGameUserInfo@@V?$allocator@PAVCGameUserInfo@@@std@@@std@@@std@@@?$list@PAVCGameUserInfo@@V?$allocator@PAVCGameUserInfo@@@std@@@std@@QAEXV?$_List_const_iterator@V?$_List_val@PAVCGameUserInfo@@V?$allocator@PAVCGameUserInfo@@@std@@@std@@@1@00Uforward_iterator_tag@1@@Z$0 10036fac f i stdafx.obj
 0001:00035fac       __catch$??$_Insert@V?$_List_const_iterator@V?$_List_val@PAUFILEINFO@@V?$allocator@PAUFILEINFO@@@std@@@std@@@std@@@?$list@PAUFILEINFO@@V?$allocator@PAUFILEINFO@@@std@@@std@@QAEXV?$_List_const_iterator@V?$_List_val@PAUFILEINFO@@V?$allocator@PAUFILEINFO@@@std@@@std@@@1@00Uforward_iterator_tag@1@@Z$0 10036fac f i stdafx.obj
 0001:0003635b       __catch$?_Buynode@?$_List_val@PAUFILEINFO@@V?$allocator@PAUFILEINFO@@@std@@@std@@QAEPAU_Node@?$_List_nod@PAUFILEINFO@@V?$allocator@PAUFILEINFO@@@std@@@2@PAU342@0ABQAUFILEINFO@@@Z$0 1003735b f i stdafx.obj
 0001:0003635b       __catch$?_Buynode@?$_List_val@PAVCGameUserInfo@@V?$allocator@PAVCGameUserInfo@@@std@@@std@@QAEPAU_Node@?$_List_nod@PAVCGameUserInfo@@V?$allocator@PAVCGameUserInfo@@@std@@@2@PAU342@0ABQAVCGameUserInfo@@@Z$0 1003735b f i stdafx.obj
 0001:00036e90       ?rad@@YAMM@Z               10037e90 f   UserInfo.obj
 0001:00037967       __catch$?Init@?$CAFCPtrArray@VCGameUserInfo@@@@QAE_NII@Z$0 10038967 f i UserInfo.obj
 0001:000379ed       __catch$?UnInit@?$CAFCPtrArray@VCGameUserInfo@@@@QAE_NXZ$0 100389ed f i UserInfo.obj
 0001:00037a29       __catch$?UnInit@?$CAFCPtrArray@VCGameUserInfo@@@@QAE_NXZ$2 10038a29 f i UserInfo.obj
 0001:00037a81       __catch$?UnInit@?$CAFCPtrArray@VCGameUserInfo@@@@QAE_NXZ$4 10038a81 f i UserInfo.obj
 0001:000380a0       __catch$_InternalDllMain@12$2 100390a0 f   mfcs100:dllmodul.obj
 0001:000386ae       _pre_c_init                100396ae f   msvcrt:crtdll.obj
 0001:00038906       ___DllMainCRTStartup       10039906 f   msvcrt:crtdll.obj
 0001:00038f54       __IsNonwritableInCurrentImage 10039f54 f   mfcs100:rawdllmainproxy.obj
 0001:00039040       __unwindfunclet$??0CMainServerSocket@@QAE@PAVCGameMainManage@@@Z$0 1003a040 f   mainserversocket.obj
 0001:0003904c       __ehhandler$??0CMainServerSocket@@QAE@PAVCGameMainManage@@@Z 1003a04c f   mainserversocket.obj
 0001:00039070       __unwindfunclet$??1CMainServerSocket@@QAE@XZ$2 1003a070 f   mainserversocket.obj
 0001:0003907c       __ehhandler$??1CMainServerSocket@@QAE@XZ 1003a07c f   mainserversocket.obj
 0001:000390a0       __unwindfunclet$?Initial@CMainServerSocket@@QAEHXZ$0 1003a0a0 f   mainserversocket.obj
 0001:000390aa       __unwindfunclet$?Initial@CMainServerSocket@@QAEHXZ$1 1003a0aa f   mainserversocket.obj
 0001:000390b3       __unwindfunclet$?Initial@CMainServerSocket@@QAEHXZ$3 1003a0b3 f   mainserversocket.obj
 0001:000390bb       __unwindfunclet$?Initial@CMainServerSocket@@QAEHXZ$4 1003a0bb f   mainserversocket.obj
 0001:000390c4       __unwindfunclet$?Initial@CMainServerSocket@@QAEHXZ$6 1003a0c4 f   mainserversocket.obj
 0001:000390cd       __ehhandler$?Initial@CMainServerSocket@@QAEHXZ 1003a0cd f   mainserversocket.obj
 0001:000390f0       __unwindfunclet$??1?$_Tree@V?$_Tmap_traits@V?$basic_string@DU?$char_traits@D@std@@V?$allocator@D@2@@std@@VHNTreeNode@@U?$less@V?$basic_string@DU?$char_traits@D@std@@V?$allocator@D@2@@std@@@2@V?$allocator@U?$pair@$$CBV?$basic_string@DU?$char_traits@D@std@@V?$allocator@D@2@@std@@VHNTreeNode@@@std@@@2@$0A@@std@@@std@@QAE@XZ$0 1003a0f0 f   mainserversocket.obj
 0001:000390f8       __ehhandler$??1?$_Tree@V?$_Tmap_traits@V?$basic_string@DU?$char_traits@D@std@@V?$allocator@D@2@@std@@VHNTreeNode@@U?$less@V?$basic_string@DU?$char_traits@D@std@@V?$allocator@D@2@@std@@@2@V?$allocator@U?$pair@$$CBV?$basic_string@DU?$char_traits@D@std@@V?$allocator@D@2@@std@@VHNTreeNode@@@std@@@2@$0A@@std@@@std@@QAE@XZ 1003a0f8 f   mainserversocket.obj
 0001:00039120       __unwindfunclet$??0?$_Tree@V?$_Tmap_traits@V?$basic_string@DU?$char_traits@D@std@@V?$allocator@D@2@@std@@VHNTreeNode@@U?$less@V?$basic_string@DU?$char_traits@D@std@@V?$allocator@D@2@@std@@@2@V?$allocator@U?$pair@$$CBV?$basic_string@DU?$char_traits@D@std@@V?$allocator@D@2@@std@@VHNTreeNode@@@std@@@2@$0A@@std@@@std@@QAE@ABV01@@Z$2 1003a120 f   mainserversocket.obj
 0001:00039128       __ehhandler$??0?$_Tree@V?$_Tmap_traits@V?$basic_string@DU?$char_traits@D@std@@V?$allocator@D@2@@std@@VHNTreeNode@@U?$less@V?$basic_string@DU?$char_traits@D@std@@V?$allocator@D@2@@std@@@2@V?$allocator@U?$pair@$$CBV?$basic_string@DU?$char_traits@D@std@@V?$allocator@D@2@@std@@VHNTreeNode@@@std@@@2@$0A@@std@@@std@@QAE@ABV01@@Z 1003a128 f   mainserversocket.obj
 0001:00039150       __ehhandler$?_Copy@?$_Tree@V?$_Tmap_traits@V?$basic_string@DU?$char_traits@D@std@@V?$allocator@D@2@@std@@VHNTreeNode@@U?$less@V?$basic_string@DU?$char_traits@D@std@@V?$allocator@D@2@@std@@@2@V?$allocator@U?$pair@$$CBV?$basic_string@DU?$char_traits@D@std@@V?$allocator@D@2@@std@@VHNTreeNode@@@std@@@2@$0A@@std@@@std@@IAEPAU_Node@?$_Tree_nod@V?$_Tmap_traits@V?$basic_string@DU?$char_traits@D@std@@V?$allocator@D@2@@std@@VHNTreeNode@@U?$less@V?$basic_string@DU?$char_traits@D@std@@V?$allocator@D@2@@std@@@2@V?$allocator@U?$pair@$$CBV?$basic_string@DU?$char_traits@D@std@@V?$allocator@D@2@@std@@VHNTreeNode@@@std@@@2@$0A@@std@@@2@PAU342@0@Z 1003a150 f   mainserversocket.obj
 0001:00039170       __ehhandler$??$_Buynode@AAU?$pair@$$CBV?$basic_string@DU?$char_traits@D@std@@V?$allocator@D@2@@std@@VHNTreeNode@@@std@@@?$_Tree_val@V?$_Tmap_traits@V?$basic_string@DU?$char_traits@D@std@@V?$allocator@D@2@@std@@VHNTreeNode@@U?$less@V?$basic_string@DU?$char_traits@D@std@@V?$allocator@D@2@@std@@@2@V?$allocator@U?$pair@$$CBV?$basic_string@DU?$char_traits@D@std@@V?$allocator@D@2@@std@@VHNTreeNode@@@std@@@2@$0A@@std@@@std@@QAEPAU_Node@?$_Tree_nod@V?$_Tmap_traits@V?$basic_string@DU?$char_traits@D@std@@V?$allocator@D@2@@std@@VHNTreeNode@@U?$less@V?$basic_string@DU?$char_traits@D@std@@V?$allocator@D@2@@std@@@2@V?$allocator@U?$pair@$$CBV?$basic_string@DU?$char_traits@D@std@@V?$allocator@D@2@@std@@VHNTreeNode@@@std@@@2@$0A@@std@@@1@AAU?$pair@$$CBV?$basic_string@DU?$char_traits@D@std@@V?$allocator@D@2@@std@@VHNTreeNode@@@1@@Z 1003a170 f   mainserversocket.obj
 0001:00039190       __unwindfunclet$??1?$_Pair_base@$$CBV?$basic_string@DU?$char_traits@D@std@@V?$allocator@D@2@@std@@VHNTreeNode@@@std@@QAE@XZ$0 1003a190 f   mainserversocket.obj
 0001:00039190       __unwindfunclet$??1HNTreeNode@@QAE@XZ$0 1003a190 f   mainserversocket.obj
 0001:00039190       __unwindfunclet$??$?0ABV?$basic_string@DU?$char_traits@D@std@@V?$allocator@D@2@@std@@AAVHNTreeNode@@@?$_Pair_base@$$CBV?$basic_string@DU?$char_traits@D@std@@V?$allocator@D@2@@std@@VHNTreeNode@@@std@@QAE@ABV?$basic_string@DU?$char_traits@D@std@@V?$allocator@D@2@@1@AAVHNTreeNode@@@Z$0 1003a190 f   mainserversocket.obj
 0001:00039190       __unwindfunclet$??0HNTreeNode@@QAE@ABV0@@Z$0 1003a190 f   mainserversocket.obj
 0001:00039198       __ehhandler$??0HNTreeNode@@QAE@ABV0@@Z 1003a198 f   mainserversocket.obj
 0001:00039198       __ehhandler$??$?0ABV?$basic_string@DU?$char_traits@D@std@@V?$allocator@D@2@@std@@AAVHNTreeNode@@@?$_Pair_base@$$CBV?$basic_string@DU?$char_traits@D@std@@V?$allocator@D@2@@std@@VHNTreeNode@@@std@@QAE@ABV?$basic_string@DU?$char_traits@D@std@@V?$allocator@D@2@@1@AAVHNTreeNode@@@Z 1003a198 f   mainserversocket.obj
 0001:00039198       __ehhandler$??1HNTreeNode@@QAE@XZ 1003a198 f   mainserversocket.obj
 0001:00039198       __ehhandler$??1?$_Pair_base@$$CBV?$basic_string@DU?$char_traits@D@std@@V?$allocator@D@2@@std@@VHNTreeNode@@@std@@QAE@XZ 1003a198 f   mainserversocket.obj
 0001:000391c0       __unwindfunclet$?GetAppPath@CINIFile@@SA?AV?$CStringT@DV?$StrTraitMFC_DLL@DV?$ChTraitsCRT@D@ATL@@@@@ATL@@_N@Z$0 1003a1c0 f   mainserversocket.obj
 0001:000391cc       __unwindfunclet$?GetAppPath@CINIFile@@SA?AV?$CStringT@DV?$StrTraitMFC_DLL@DV?$ChTraitsCRT@D@ATL@@@@@ATL@@_N@Z$2 1003a1cc f   mainserversocket.obj
 0001:000391d8       __unwindfunclet$?GetAppPath@CINIFile@@SA?AV?$CStringT@DV?$StrTraitMFC_DLL@DV?$ChTraitsCRT@D@ATL@@@@@ATL@@_N@Z$3 1003a1d8 f   mainserversocket.obj
 0001:000391e4       __unwindfunclet$?GetAppPath@CINIFile@@SA?AV?$CStringT@DV?$StrTraitMFC_DLL@DV?$ChTraitsCRT@D@ATL@@@@@ATL@@_N@Z$4 1003a1e4 f   mainserversocket.obj
 0001:000391f0       __unwindfunclet$?GetAppPath@CINIFile@@SA?AV?$CStringT@DV?$StrTraitMFC_DLL@DV?$ChTraitsCRT@D@ATL@@@@@ATL@@_N@Z$5 1003a1f0 f   mainserversocket.obj
 0001:000391fc       __ehhandler$?GetAppPath@CINIFile@@SA?AV?$CStringT@DV?$StrTraitMFC_DLL@DV?$ChTraitsCRT@D@ATL@@@@@ATL@@_N@Z 1003a1fc f   mainserversocket.obj
 0001:00039230       __unwindfunclet$?GetKeyVal@CINIFile@@QAE?AV?$CStringT@DV?$StrTraitMFC_DLL@DV?$ChTraitsCRT@D@ATL@@@@@ATL@@V23@0PBD@Z$0 1003a230 f   mainserversocket.obj
 0001:00039239       __unwindfunclet$?GetKeyVal@CINIFile@@QAE?AV?$CStringT@DV?$StrTraitMFC_DLL@DV?$ChTraitsCRT@D@ATL@@@@@ATL@@V23@0PBD@Z$1 1003a239 f   mainserversocket.obj
 0001:00039242       __unwindfunclet$?GetKeyVal@CINIFile@@QAE?AV?$CStringT@DV?$StrTraitMFC_DLL@DV?$ChTraitsCRT@D@ATL@@@@@ATL@@V23@0PBD@Z$2 1003a242 f   mainserversocket.obj
 0001:0003924b       __ehhandler$?GetKeyVal@CINIFile@@QAE?AV?$CStringT@DV?$StrTraitMFC_DLL@DV?$ChTraitsCRT@D@ATL@@@@@ATL@@V23@0PBD@Z 1003a24b f   mainserversocket.obj
 0001:00039270       __unwindfunclet$??0CINIFile@@QAE@V?$CStringT@DV?$StrTraitMFC_DLL@DV?$ChTraitsCRT@D@ATL@@@@@ATL@@H@Z$0 1003a270 f   mainserversocket.obj
 0001:00039279       __unwindfunclet$??0CINIFile@@QAE@V?$CStringT@DV?$StrTraitMFC_DLL@DV?$ChTraitsCRT@D@ATL@@@@@ATL@@H@Z$1 1003a279 f   mainserversocket.obj
 0001:00039282       __ehhandler$??0CINIFile@@QAE@V?$CStringT@DV?$StrTraitMFC_DLL@DV?$ChTraitsCRT@D@ATL@@@@@ATL@@H@Z 1003a282 f   mainserversocket.obj
 0001:000392a0       __unwindfunclet$??0?$basic_string@DU?$char_traits@D@std@@V?$allocator@D@2@@std@@QAE@ABV01@@Z$0 1003a2a0 f   mainserversocket.obj
 0001:000392a0       __unwindfunclet$??0?$basic_string@DU?$char_traits@D@std@@V?$allocator@D@2@@std@@QAE@PBD@Z$0 1003a2a0 f   mainserversocket.obj
 0001:000392a0       __unwindfunclet$??0?$basic_string@DU?$char_traits@D@std@@V?$allocator@D@2@@std@@QAE@XZ$0 1003a2a0 f   mainserversocket.obj
 0001:000392a8       __ehhandler$??0?$basic_string@DU?$char_traits@D@std@@V?$allocator@D@2@@std@@QAE@PBD@Z 1003a2a8 f   mainserversocket.obj
 0001:000392a8       __ehhandler$??0?$basic_string@DU?$char_traits@D@std@@V?$allocator@D@2@@std@@QAE@XZ 1003a2a8 f   mainserversocket.obj
 0001:000392a8       __ehhandler$??0?$basic_string@DU?$char_traits@D@std@@V?$allocator@D@2@@std@@QAE@ABV01@@Z 1003a2a8 f   mainserversocket.obj
 0001:000392d0       __unwindfunclet$??1?$vector@UMSG_GM_S_ReturnGameInfo@@V?$allocator@UMSG_GM_S_ReturnGameInfo@@@std@@@std@@QAE@XZ$0 1003a2d0 f   mainserversocket.obj
 0001:000392d0       __unwindfunclet$??1?$vector@UMSG_GR_S_Position_Notice@@V?$allocator@UMSG_GR_S_Position_Notice@@@std@@@std@@QAE@XZ$0 1003a2d0 f   mainserversocket.obj
 0001:000392d0       __unwindfunclet$??1?$vector@PAVCGameUserInfo@@V?$allocator@PAVCGameUserInfo@@@std@@@std@@QAE@XZ$0 1003a2d0 f   mainserversocket.obj
 0001:000392d0       __unwindfunclet$??1?$vector@HV?$allocator@H@std@@@std@@QAE@XZ$0 1003a2d0 f   mainserversocket.obj
 0001:000392d0       __unwindfunclet$??1?$vector@JV?$allocator@J@std@@@std@@QAE@XZ$0 1003a2d0 f   mainserversocket.obj
 0001:000392d0       __unwindfunclet$??1?$basic_string@DU?$char_traits@D@std@@V?$allocator@D@2@@std@@QAE@XZ$0 1003a2d0 f   mainserversocket.obj
 0001:000392d0       __unwindfunclet$??1?$vector@IV?$allocator@I@std@@@std@@QAE@XZ$0 1003a2d0 f   mainserversocket.obj
 0001:000392d0       __unwindfunclet$??1?$vector@UQueueInfo_t@@V?$allocator@UQueueInfo_t@@@std@@@std@@QAE@XZ$0 1003a2d0 f   mainserversocket.obj
 0001:000392d8       __ehhandler$??1?$basic_string@DU?$char_traits@D@std@@V?$allocator@D@2@@std@@QAE@XZ 1003a2d8 f   mainserversocket.obj
 0001:000392d8       __ehhandler$??1?$vector@IV?$allocator@I@std@@@std@@QAE@XZ 1003a2d8 f   mainserversocket.obj
 0001:000392d8       __ehhandler$??1?$vector@UMSG_GM_S_ReturnGameInfo@@V?$allocator@UMSG_GM_S_ReturnGameInfo@@@std@@@std@@QAE@XZ 1003a2d8 f   mainserversocket.obj
 0001:000392d8       __ehhandler$??1?$vector@UQueueInfo_t@@V?$allocator@UQueueInfo_t@@@std@@@std@@QAE@XZ 1003a2d8 f   mainserversocket.obj
 0001:000392d8       __ehhandler$??1?$vector@JV?$allocator@J@std@@@std@@QAE@XZ 1003a2d8 f   mainserversocket.obj
 0001:000392d8       __ehhandler$??1?$vector@PAVCGameUserInfo@@V?$allocator@PAVCGameUserInfo@@@std@@@std@@QAE@XZ 1003a2d8 f   mainserversocket.obj
 0001:000392d8       __ehhandler$??1?$vector@HV?$allocator@H@std@@@std@@QAE@XZ 1003a2d8 f   mainserversocket.obj
 0001:000392d8       __ehhandler$??1?$vector@UMSG_GR_S_Position_Notice@@V?$allocator@UMSG_GR_S_Position_Notice@@@std@@@std@@QAE@XZ 1003a2d8 f   mainserversocket.obj
 0001:00039300       __ehhandler$?_Copy@?$basic_string@DU?$char_traits@D@std@@V?$allocator@D@2@@std@@QAEXII@Z 1003a300 f   mainserversocket.obj
 0001:00039320       __unwindfunclet$?UserInfoCmp@@YAHABUQueueInfo_t@@0@Z$0 1003a320 f   AutoAllotDesk.obj
 0001:00039329       __unwindfunclet$?UserInfoCmp@@YAHABUQueueInfo_t@@0@Z$2 1003a329 f   AutoAllotDesk.obj
 0001:00039332       __unwindfunclet$?UserInfoCmp@@YAHABUQueueInfo_t@@0@Z$3 1003a332 f   AutoAllotDesk.obj
 0001:0003933b       __ehhandler$?UserInfoCmp@@YAHABUQueueInfo_t@@0@Z 1003a33b f   AutoAllotDesk.obj
 0001:00039360       __unwindfunclet$??0CAutoAllotDesk@@QAE@HHHH@Z$0 1003a360 f   AutoAllotDesk.obj
 0001:0003936b       __unwindfunclet$??0CAutoAllotDesk@@QAE@HHHH@Z$1 1003a36b f   AutoAllotDesk.obj
 0001:00039374       __unwindfunclet$??0CAutoAllotDesk@@QAE@HHHH@Z$3 1003a374 f   AutoAllotDesk.obj
 0001:0003937d       __unwindfunclet$??0CAutoAllotDesk@@QAE@HHHH@Z$4 1003a37d f   AutoAllotDesk.obj
 0001:00039386       __unwindfunclet$??0CAutoAllotDesk@@QAE@HHHH@Z$6 1003a386 f   AutoAllotDesk.obj
 0001:0003938f       __unwindfunclet$??0CAutoAllotDesk@@QAE@HHHH@Z$8 1003a38f f   AutoAllotDesk.obj
 0001:00039398       __ehhandler$??0CAutoAllotDesk@@QAE@HHHH@Z 1003a398 f   AutoAllotDesk.obj
 0001:000393c0       __unwindfunclet$?CanSit@CAutoAllotDesk@@UAE_NABUQueueInfo_t@@_N@Z$0 1003a3c0 f   AutoAllotDesk.obj
 0001:000393c9       __unwindfunclet$?CanSit@CAutoAllotDesk@@UAE_NABUQueueInfo_t@@_N@Z$2 1003a3c9 f   AutoAllotDesk.obj
 0001:000393d2       __unwindfunclet$?CanSit@CAutoAllotDesk@@UAE_NABUQueueInfo_t@@_N@Z$3 1003a3d2 f   AutoAllotDesk.obj
 0001:000393db       __ehhandler$?CanSit@CAutoAllotDesk@@UAE_NABUQueueInfo_t@@_N@Z 1003a3db f   AutoAllotDesk.obj
 0001:00039400       __ehhandler$?reserve@?$vector@UQueueInfo_t@@V?$allocator@UQueueInfo_t@@@std@@@std@@QAEXI@Z 1003a400 f   AutoAllotDesk.obj
 0001:00039420       __ehhandler$??$_Uninit_move@PAUQueueInfo_t@@PAU1@V?$allocator@UQueueInfo_t@@@std@@U1@@std@@YAPAUQueueInfo_t@@PAU1@00AAV?$allocator@UQueueInfo_t@@@0@0U_Nonscalar_ptr_iterator_tag@0@@Z 1003a420 f   AutoAllotDesk.obj
 0001:00039440       __unwindfunclet$?OnNetMessage@CBankService@@QAE_NPAUNetMessageHead@@PAXIKIK@Z$0 1003a440 f   BankService.obj
 0001:0003944c       __unwindfunclet$?OnNetMessage@CBankService@@QAE_NPAUNetMessageHead@@PAXIKIK@Z$2 1003a44c f   BankService.obj
 0001:00039458       __unwindfunclet$?OnNetMessage@CBankService@@QAE_NPAUNetMessageHead@@PAXIKIK@Z$3 1003a458 f   BankService.obj
 0001:00039464       __ehhandler$?OnNetMessage@CBankService@@QAE_NPAUNetMessageHead@@PAXIKIK@Z 1003a464 f   BankService.obj
 0001:00039490       __ehhandler$?OnCheckDataConnect@CGameDataBaseHandle@@AAEIPAUDataBaseLineHead@@@Z 1003a490 f   GameDataBaseHandle.obj
 0001:000394c0       __unwindfunclet$?OnRecordGameInfo@CGameDataBaseHandle@@AAEIPAUDataBaseLineHead@@@Z$0 1003a4c0 f   GameDataBaseHandle.obj
 0001:000394c9       __unwindfunclet$?OnRecordGameInfo@CGameDataBaseHandle@@AAEIPAUDataBaseLineHead@@@Z$1 1003a4c9 f   GameDataBaseHandle.obj
 0001:000394d5       __ehhandler$?OnRecordGameInfo@CGameDataBaseHandle@@AAEIPAUDataBaseLineHead@@@Z 1003a4d5 f   GameDataBaseHandle.obj
 0001:00039500       __unwindfunclet$?OnRoomLogon@CGameDataBaseHandle@@AAEIPAUDataBaseLineHead@@@Z$0 1003a500 f   GameDataBaseHandle.obj
 0001:0003950c       __ehhandler$?OnRoomLogon@CGameDataBaseHandle@@AAEIPAUDataBaseLineHead@@@Z 1003a50c f   GameDataBaseHandle.obj
 0001:00039540       __ehhandler$?OnBankOperateNormal@CGameDataBaseHandle@@AAEIPAUDataBaseLineHead@@@Z 1003a540 f   GameDataBaseHandle.obj
 0001:00039570       __unwindfunclet$?OnBankOperateTransfer@CGameDataBaseHandle@@AAEIPAUDataBaseLineHead@@@Z$2 1003a570 f   GameDataBaseHandle.obj
 0001:0003957c       __ehhandler$?OnBankOperateTransfer@CGameDataBaseHandle@@AAEIPAUDataBaseLineHead@@@Z 1003a57c f   GameDataBaseHandle.obj
 0001:000395b0       __unwindfunclet$?OnBankOperateDeposit@CGameDataBaseHandle@@AAEIPAUDataBaseLineHead@@@Z$2 1003a5b0 f   GameDataBaseHandle.obj
 0001:000395bc       __ehhandler$?OnBankOperateDeposit@CGameDataBaseHandle@@AAEIPAUDataBaseLineHead@@@Z 1003a5bc f   GameDataBaseHandle.obj
 0001:000395f0       __ehhandler$?OnPropChange@CGameDataBaseHandle@@AAEIPAUDataBaseLineHead@@@Z 1003a5f0 f   GameDataBaseHandle.obj
 0001:00039620       __ehhandler$?OnBankQueryDeposits@CGameDataBaseHandle@@AAEIPAUDataBaseLineHead@@@Z 1003a620 f   GameDataBaseHandle.obj
 0001:00039650       __ehhandler$?OnBankGetWallet@CGameDataBaseHandle@@AAEIPAUDataBaseLineHead@@@Z 1003a650 f   GameDataBaseHandle.obj
 0001:00039680       __unwindfunclet$?OnCheckOutMoney@CGameDataBaseHandle@@AAEIPAUDataBaseLineHead@@I@Z$2 1003a680 f   GameDataBaseHandle.obj
 0001:00039689       __ehhandler$?OnCheckOutMoney@CGameDataBaseHandle@@AAEIPAUDataBaseLineHead@@I@Z 1003a689 f   GameDataBaseHandle.obj
 0001:000396c0       __unwindfunclet$?OnCheckInMoney@CGameDataBaseHandle@@AAEIPAUDataBaseLineHead@@I@Z$2 1003a6c0 f   GameDataBaseHandle.obj
 0001:000396c9       __ehhandler$?OnCheckInMoney@CGameDataBaseHandle@@AAEIPAUDataBaseLineHead@@I@Z 1003a6c9 f   GameDataBaseHandle.obj
 0001:00039700       __ehhandler$?OnTransferMoney@CGameDataBaseHandle@@AAEIPAUDataBaseLineHead@@I@Z 1003a700 f   GameDataBaseHandle.obj
 0001:00039730       __ehhandler$?OnBankTransferRebate@CGameDataBaseHandle@@AAEIPAUDataBaseLineHead@@I@Z 1003a730 f   GameDataBaseHandle.obj
 0001:00039760       __unwindfunclet$?OnUpdateUserRebate@CGameDataBaseHandle@@AAEIPAUDataBaseLineHead@@I@Z$0 1003a760 f   GameDataBaseHandle.obj
 0001:00039769       __ehhandler$?OnUpdateUserRebate@CGameDataBaseHandle@@AAEIPAUDataBaseLineHead@@I@Z 1003a769 f   GameDataBaseHandle.obj
 0001:000397a0       __ehhandler$?OnOpenWallet@CGameDataBaseHandle@@AAEIPAUDataBaseLineHead@@I@Z 1003a7a0 f   GameDataBaseHandle.obj
 0001:000397d0       __ehhandler$?OnCallGM@CGameDataBaseHandle@@AAEIPAUDataBaseLineHead@@@Z 1003a7d0 f   GameDataBaseHandle.obj
 0001:00039800       __ehhandler$?OnRoomPWChangeRecord@CGameDataBaseHandle@@AAEIPAUDataBaseLineHead@@@Z 1003a800 f   GameDataBaseHandle.obj
 0001:00039820       __unwindfunclet$?OnUserLeft@CGameDataBaseHandle@@AAEIPAUDataBaseLineHead@@@Z$2 1003a820 f   GameDataBaseHandle.obj
 0001:0003982c       __unwindfunclet$?OnUserLeft@CGameDataBaseHandle@@AAEIPAUDataBaseLineHead@@@Z$4 1003a82c f   GameDataBaseHandle.obj
 0001:00039835       __unwindfunclet$?OnUserLeft@CGameDataBaseHandle@@AAEIPAUDataBaseLineHead@@@Z$5 1003a835 f   GameDataBaseHandle.obj
 0001:00039841       __unwindfunclet$?OnUserLeft@CGameDataBaseHandle@@AAEIPAUDataBaseLineHead@@@Z$7 1003a841 f   GameDataBaseHandle.obj
 0001:0003984a       __ehhandler$?OnUserLeft@CGameDataBaseHandle@@AAEIPAUDataBaseLineHead@@@Z 1003a84a f   GameDataBaseHandle.obj
 0001:00039870       __unwindfunclet$?OnUpdateAllUserResult@CGameDataBaseHandle@@AAEIPAUDataBaseLineHead@@@Z$0 1003a870 f   GameDataBaseHandle.obj
 0001:00039879       __unwindfunclet$?OnUpdateAllUserResult@CGameDataBaseHandle@@AAEIPAUDataBaseLineHead@@@Z$1 1003a879 f   GameDataBaseHandle.obj
 0001:00039882       __unwindfunclet$?OnUpdateAllUserResult@CGameDataBaseHandle@@AAEIPAUDataBaseLineHead@@@Z$2 1003a882 f   GameDataBaseHandle.obj
 0001:0003988b       __unwindfunclet$?OnUpdateAllUserResult@CGameDataBaseHandle@@AAEIPAUDataBaseLineHead@@@Z$3 1003a88b f   GameDataBaseHandle.obj
 0001:00039894       __unwindfunclet$?OnUpdateAllUserResult@CGameDataBaseHandle@@AAEIPAUDataBaseLineHead@@@Z$4 1003a894 f   GameDataBaseHandle.obj
 0001:000398a0       __unwindfunclet$?OnUpdateAllUserResult@CGameDataBaseHandle@@AAEIPAUDataBaseLineHead@@@Z$5 1003a8a0 f   GameDataBaseHandle.obj
 0001:000398ac       __ehhandler$?OnUpdateAllUserResult@CGameDataBaseHandle@@AAEIPAUDataBaseLineHead@@@Z 1003a8ac f   GameDataBaseHandle.obj
 0001:000398e0       __ehhandler$?GetWalletMoney@CGameDataBaseHandle@@AAEXAAUtag_RECEIVEMONEY@@K@Z 1003a8e0 f   GameDataBaseHandle.obj
 0001:00039900       __ehhandler$?OnContestBegin@CGameDataBaseHandle@@AAEIPAUDataBaseLineHead@@@Z 1003a900 f   GameDataBaseHandle.obj
 0001:00039930       __ehhandler$?OnContestGameOver@CGameDataBaseHandle@@AAEIPAUDataBaseLineHead@@@Z 1003a930 f   GameDataBaseHandle.obj
 0001:00039960       __ehhandler$?OnUpdateContestInfo@CGameDataBaseHandle@@AAEIPAUDataBaseLineHead@@@Z 1003a960 f   GameDataBaseHandle.obj
 0001:00039980       __ehhandler$?OnGetContestInfo@CGameDataBaseHandle@@AAEIPAUDataBaseLineHead@@@Z 1003a980 f   GameDataBaseHandle.obj
 0001:000399b0       __ehhandler$?OnContestApply@CGameDataBaseHandle@@AAEIPAUDataBaseLineHead@@@Z 1003a9b0 f   GameDataBaseHandle.obj
 0001:000399e0       __unwindfunclet$?OnContestAbandon@CGameDataBaseHandle@@AAEIPAUDataBaseLineHead@@@Z$2 1003a9e0 f   GameDataBaseHandle.obj
 0001:000399ee       __ehhandler$?OnContestAbandon@CGameDataBaseHandle@@AAEIPAUDataBaseLineHead@@@Z 1003a9ee f   GameDataBaseHandle.obj
 0001:00039a20       __unwindfunclet$?OnUserUseOneProp@CGameDataBaseHandle@@AAEIPAUDataBaseLineHead@@@Z$0 1003aa20 f   GameDataBaseHandle.obj
 0001:00039a2c       __ehhandler$?OnUserUseOneProp@CGameDataBaseHandle@@AAEIPAUDataBaseLineHead@@@Z 1003aa2c f   GameDataBaseHandle.obj
 0001:00039a60       __ehhandler$?OnUnRegisterOnLine@CGameDataBaseHandle@@AAEIPAUDataBaseLineHead@@@Z 1003aa60 f   GameDataBaseHandle.obj
 0001:00039a80       __ehhandler$?OnWriteTWLoginRecord@CGameDataBaseHandle@@AAEIPAUDataBaseLineHead@@@Z 1003aa80 f   GameDataBaseHandle.obj
 0001:00039aa0       __ehhandler$?OnAloneDeskInTime@CGameDataBaseHandle@@AAEIPAUDataBaseLineHead@@@Z 1003aaa0 f   GameDataBaseHandle.obj
 0001:00039ac0       __unwindfunclet$?OnFindBuyDeskStation@CGameDataBaseHandle@@AAEHPAUDataBaseLineHead@@@Z$0 1003aac0 f   GameDataBaseHandle.obj
 0001:00039ac9       __ehhandler$?OnFindBuyDeskStation@CGameDataBaseHandle@@AAEHPAUDataBaseLineHead@@@Z 1003aac9 f   GameDataBaseHandle.obj
 0001:00039b00       __unwindfunclet$?OnGetDeskInfo@CGameDataBaseHandle@@AAEHPAUDataBaseLineHead@@@Z$0 1003ab00 f   GameDataBaseHandle.obj
 0001:00039b09       __ehhandler$?OnGetDeskInfo@CGameDataBaseHandle@@AAEHPAUDataBaseLineHead@@@Z 1003ab09 f   GameDataBaseHandle.obj
 0001:00039b40       __unwindfunclet$?OnRecordGame@CGameDataBaseHandle@@AAEHPAUDataBaseLineHead@@@Z$0 1003ab40 f   GameDataBaseHandle.obj
 0001:00039b40       __unwindfunclet$?OnCutNet@CGameDataBaseHandle@@AAEHPAUDataBaseLineHead@@@Z$0 1003ab40 f   GameDataBaseHandle.obj
 0001:00039b49       __unwindfunclet$?OnRecordGame@CGameDataBaseHandle@@AAEHPAUDataBaseLineHead@@@Z$1 1003ab49 f   GameDataBaseHandle.obj
 0001:00039b49       __unwindfunclet$?OnCutNet@CGameDataBaseHandle@@AAEHPAUDataBaseLineHead@@@Z$1 1003ab49 f   GameDataBaseHandle.obj
 0001:00039b52       __ehhandler$?OnRecordGame@CGameDataBaseHandle@@AAEHPAUDataBaseLineHead@@@Z 1003ab52 f   GameDataBaseHandle.obj
 0001:00039b52       __ehhandler$?OnCutNet@CGameDataBaseHandle@@AAEHPAUDataBaseLineHead@@@Z 1003ab52 f   GameDataBaseHandle.obj
 0001:00039b80       __unwindfunclet$?OnCutNetRecordStart@CGameDataBaseHandle@@AAEHPAUDataBaseLineHead@@@Z$0 1003ab80 f   GameDataBaseHandle.obj
 0001:00039b89       __ehhandler$?OnCutNetRecordStart@CGameDataBaseHandle@@AAEHPAUDataBaseLineHead@@@Z 1003ab89 f   GameDataBaseHandle.obj
 0001:00039bb0       __unwindfunclet$?OnGetRoomInfo@CGameDataBaseHandle@@AAEHPAUDataBaseLineHead@@@Z$2 1003abb0 f   GameDataBaseHandle.obj
 0001:00039bbc       __unwindfunclet$?OnGetRoomInfo@CGameDataBaseHandle@@AAEHPAUDataBaseLineHead@@@Z$3 1003abbc f   GameDataBaseHandle.obj
 0001:00039bc8       __ehhandler$?OnGetRoomInfo@CGameDataBaseHandle@@AAEHPAUDataBaseLineHead@@@Z 1003abc8 f   GameDataBaseHandle.obj
 0001:00039bf0       __unwindfunclet$?OnSetContestInfo@CGameDataBaseHandle@@AAEHPAUDataBaseLineHead@@@Z$0 1003abf0 f   GameDataBaseHandle.obj
 0001:00039bf9       __ehhandler$?OnSetContestInfo@CGameDataBaseHandle@@AAEHPAUDataBaseLineHead@@@Z 1003abf9 f   GameDataBaseHandle.obj
 0001:00039c30       __unwindfunclet$?OnUpdateNetCutTime@CGameDataBaseHandle@@AAEHPAUDataBaseLineHead@@@Z$0 1003ac30 f   GameDataBaseHandle.obj
 0001:00039c30       __unwindfunclet$?OnUpdateBeginTime@CGameDataBaseHandle@@AAEHPAUDataBaseLineHead@@@Z$0 1003ac30 f   GameDataBaseHandle.obj
 0001:00039c39       __ehhandler$?OnUpdateBeginTime@CGameDataBaseHandle@@AAEHPAUDataBaseLineHead@@@Z 1003ac39 f   GameDataBaseHandle.obj
 0001:00039c39       __ehhandler$?OnUpdateNetCutTime@CGameDataBaseHandle@@AAEHPAUDataBaseLineHead@@@Z 1003ac39 f   GameDataBaseHandle.obj
 0001:00039c60       __unwindfunclet$??0CGameDesk@@QAE@E@Z$0 1003ac60 f   GameDesk.obj
 0001:00039c6e       __unwindfunclet$??0CGameDesk@@QAE@E@Z$1 1003ac6e f   GameDesk.obj
 0001:00039c7c       __unwindfunclet$??0CGameDesk@@QAE@E@Z$2 1003ac7c f   GameDesk.obj
 0001:00039c8a       __unwindfunclet$??0CGameDesk@@QAE@E@Z$3 1003ac8a f   GameDesk.obj
 0001:00039c98       __unwindfunclet$??0CGameDesk@@QAE@E@Z$4 1003ac98 f   GameDesk.obj
 0001:00039ca6       __unwindfunclet$??0CGameDesk@@QAE@E@Z$5 1003aca6 f   GameDesk.obj
 0001:00039caf       __unwindfunclet$??0CGameDesk@@QAE@E@Z$7 1003acaf f   GameDesk.obj
 0001:00039cb8       __unwindfunclet$??0CGameDesk@@QAE@E@Z$8 1003acb8 f   GameDesk.obj
 0001:00039cc1       __unwindfunclet$??0CGameDesk@@QAE@E@Z$9 1003acc1 f   GameDesk.obj
 0001:00039cca       __ehhandler$??0CGameDesk@@QAE@E@Z 1003acca f   GameDesk.obj
 0001:00039cf0       __unwindfunclet$??1CGameDesk@@UAE@XZ$0 1003acf0 f   GameDesk.obj
 0001:00039cfe       __unwindfunclet$??1CGameDesk@@UAE@XZ$1 1003acfe f   GameDesk.obj
 0001:00039d0c       __unwindfunclet$??1CGameDesk@@UAE@XZ$2 1003ad0c f   GameDesk.obj
 0001:00039d1a       __unwindfunclet$??1CGameDesk@@UAE@XZ$3 1003ad1a f   GameDesk.obj
 0001:00039d28       __ehhandler$??1CGameDesk@@UAE@XZ 1003ad28 f   GameDesk.obj
 0001:00039d50       __unwindfunclet$?CanSitDesk@CGameDesk@@QAEHPAUMSG_GR_S_UserSit@@PAVCGameUserInfo@@@Z$0 1003ad50 f   GameDesk.obj
 0001:00039d59       __ehhandler$?CanSitDesk@CGameDesk@@QAEHPAUMSG_GR_S_UserSit@@PAVCGameUserInfo@@@Z 1003ad59 f   GameDesk.obj
 0001:00039d80       __unwindfunclet$?UserSitDesk@CGameDesk@@UAEEPAUMSG_GR_S_UserSit@@PAVCGameUserInfo@@@Z$0 1003ad80 f   GameDesk.obj
 0001:00039d89       __unwindfunclet$?UserSitDesk@CGameDesk@@UAEEPAUMSG_GR_S_UserSit@@PAVCGameUserInfo@@@Z$1 1003ad89 f   GameDesk.obj
 0001:00039dac       __unwindfunclet$?UserSitDesk@CGameDesk@@UAEEPAUMSG_GR_S_UserSit@@PAVCGameUserInfo@@@Z$2 1003adac f   GameDesk.obj
 0001:00039db5       __ehhandler$?UserSitDesk@CGameDesk@@UAEEPAUMSG_GR_S_UserSit@@PAVCGameUserInfo@@@Z 1003adb5 f   GameDesk.obj
 0001:00039de0       __ehhandler$?FindStation@CGameDesk@@QAEEPAVCGameUserInfo@@@Z 1003ade0 f   GameDesk.obj
 0001:00039e00       __unwindfunclet$?GetCryptedPasswd@@YAPADPAD0@Z$0 1003ae00 f   GameDesk.obj
 0001:00039e0b       __ehhandler$?GetCryptedPasswd@@YAPADPAD0@Z 1003ae0b f   GameDesk.obj
 0001:00039e40       __unwindfunclet$?innerGetMac@@YA?AV?$CStringT@DV?$StrTraitMFC_DLL@DV?$ChTraitsCRT@D@ATL@@@@@ATL@@XZ$0 1003ae40 f   GameDesk.obj
 0001:00039e49       __unwindfunclet$?innerGetMac@@YA?AV?$CStringT@DV?$StrTraitMFC_DLL@DV?$ChTraitsCRT@D@ATL@@@@@ATL@@XZ$1 1003ae49 f   GameDesk.obj
 0001:00039e52       __ehhandler$?innerGetMac@@YA?AV?$CStringT@DV?$StrTraitMFC_DLL@DV?$ChTraitsCRT@D@ATL@@@@@ATL@@XZ 1003ae52 f   GameDesk.obj
 0001:00039e70       __unwindfunclet$?coreGetCode@@YA?AV?$CStringT@DV?$StrTraitMFC_DLL@DV?$ChTraitsCRT@D@ATL@@@@@ATL@@XZ$0 1003ae70 f   GameDesk.obj
 0001:00039e79       __unwindfunclet$?coreGetCode@@YA?AV?$CStringT@DV?$StrTraitMFC_DLL@DV?$ChTraitsCRT@D@ATL@@@@@ATL@@XZ$1 1003ae79 f   GameDesk.obj
 0001:00039e82       __unwindfunclet$?coreGetCode@@YA?AV?$CStringT@DV?$StrTraitMFC_DLL@DV?$ChTraitsCRT@D@ATL@@@@@ATL@@XZ$2 1003ae82 f   GameDesk.obj
 0001:00039e8b       __unwindfunclet$?coreGetCode@@YA?AV?$CStringT@DV?$StrTraitMFC_DLL@DV?$ChTraitsCRT@D@ATL@@@@@ATL@@XZ$4 1003ae8b f   GameDesk.obj
 0001:00039e97       __unwindfunclet$?coreGetCode@@YA?AV?$CStringT@DV?$StrTraitMFC_DLL@DV?$ChTraitsCRT@D@ATL@@@@@ATL@@XZ$5 1003ae97 f   GameDesk.obj
 0001:00039ea3       __unwindfunclet$?coreGetCode@@YA?AV?$CStringT@DV?$StrTraitMFC_DLL@DV?$ChTraitsCRT@D@ATL@@@@@ATL@@XZ$6 1003aea3 f   GameDesk.obj
 0001:00039eac       __unwindfunclet$?coreGetCode@@YA?AV?$CStringT@DV?$StrTraitMFC_DLL@DV?$ChTraitsCRT@D@ATL@@@@@ATL@@XZ$7 1003aeac f   GameDesk.obj
 0001:00039eb8       __unwindfunclet$?coreGetCode@@YA?AV?$CStringT@DV?$StrTraitMFC_DLL@DV?$ChTraitsCRT@D@ATL@@@@@ATL@@XZ$8 1003aeb8 f   GameDesk.obj
 0001:00039ec4       __unwindfunclet$?coreGetCode@@YA?AV?$CStringT@DV?$StrTraitMFC_DLL@DV?$ChTraitsCRT@D@ATL@@@@@ATL@@XZ$10 1003aec4 f   GameDesk.obj
 0001:00039ecd       __ehhandler$?coreGetCode@@YA?AV?$CStringT@DV?$StrTraitMFC_DLL@DV?$ChTraitsCRT@D@ATL@@@@@ATL@@XZ 1003aecd f   GameDesk.obj
 0001:00039ef0       __unwindfunclet$?Init@CGameDesk@@QAE_NEEPAVCGameMainManage@@I@Z$0 1003aef0 f   GameDesk.obj
 0001:00039ef9       __unwindfunclet$?Init@CGameDesk@@QAE_NEEPAVCGameMainManage@@I@Z$1 1003aef9 f   GameDesk.obj
 0001:00039f02       __unwindfunclet$?Init@CGameDesk@@QAE_NEEPAVCGameMainManage@@I@Z$2 1003af02 f   GameDesk.obj
 0001:00039f0e       __unwindfunclet$?Init@CGameDesk@@QAE_NEEPAVCGameMainManage@@I@Z$4 1003af0e f   GameDesk.obj
 0001:00039f16       __unwindfunclet$?Init@CGameDesk@@QAE_NEEPAVCGameMainManage@@I@Z$5 1003af16 f   GameDesk.obj
 0001:00039f22       __unwindfunclet$?Init@CGameDesk@@QAE_NEEPAVCGameMainManage@@I@Z$7 1003af22 f   GameDesk.obj
 0001:00039f2b       __unwindfunclet$?Init@CGameDesk@@QAE_NEEPAVCGameMainManage@@I@Z$8 1003af2b f   GameDesk.obj
 0001:00039f34       __unwindfunclet$?Init@CGameDesk@@QAE_NEEPAVCGameMainManage@@I@Z$9 1003af34 f   GameDesk.obj
 0001:00039f40       __unwindfunclet$?Init@CGameDesk@@QAE_NEEPAVCGameMainManage@@I@Z$10 1003af40 f   GameDesk.obj
 0001:00039f4c       __unwindfunclet$?Init@CGameDesk@@QAE_NEEPAVCGameMainManage@@I@Z$12 1003af4c f   GameDesk.obj
 0001:00039f58       __unwindfunclet$?Init@CGameDesk@@QAE_NEEPAVCGameMainManage@@I@Z$13 1003af58 f   GameDesk.obj
 0001:00039f64       __unwindfunclet$?Init@CGameDesk@@QAE_NEEPAVCGameMainManage@@I@Z$15 1003af64 f   GameDesk.obj
 0001:00039f70       __ehhandler$?Init@CGameDesk@@QAE_NEEPAVCGameMainManage@@I@Z 1003af70 f   GameDesk.obj
 0001:00039fa0       __unwindfunclet$?ChangeUserPointint64@CGameDesk@@QAE_NPA_JPA_NHH@Z$0 1003afa0 f   GameDesk.obj
 0001:00039fa9       __unwindfunclet$?ChangeUserPointint64@CGameDesk@@QAE_NPA_JPA_NHH@Z$1 1003afa9 f   GameDesk.obj
 0001:00039fb7       __ehhandler$?ChangeUserPointint64@CGameDesk@@QAE_NPA_JPA_NHH@Z 1003afb7 f   GameDesk.obj
 0001:00039fe0       __unwindfunclet$?ChangeUserPoint@CGameDesk@@QAE_NPAHPA_NH@Z$0 1003afe0 f   GameDesk.obj
 0001:00039fe9       __unwindfunclet$?ChangeUserPoint@CGameDesk@@QAE_NPAHPA_NH@Z$1 1003afe9 f   GameDesk.obj
 0001:00039ff7       __ehhandler$?ChangeUserPoint@CGameDesk@@QAE_NPAHPA_NH@Z 1003aff7 f   GameDesk.obj
 0001:0003a020       __unwindfunclet$?UpdateUserPoint@CGameDesk@@QAEXPAEPA_JH@Z$0 1003b020 f   GameDesk.obj
 0001:0003a02e       __ehhandler$?UpdateUserPoint@CGameDesk@@QAEXPAEPA_JH@Z 1003b02e f   GameDesk.obj
 0001:0003a060       __unwindfunclet$?UpdateUserInfo@CGameDesk@@QAEXJHHH_NJJ@Z$0 1003b060 f   GameDesk.obj
 0001:0003a06c       __ehhandler$?UpdateUserInfo@CGameDesk@@QAEXJHHH_NJJ@Z 1003b06c f   GameDesk.obj
 0001:0003a0a0       __unwindfunclet$?UserAgreeGame@CGameDesk@@UAE_NE@Z$0 1003b0a0 f   GameDesk.obj
 0001:0003a0a9       __unwindfunclet$?UserAgreeGame@CGameDesk@@UAE_NE@Z$2 1003b0a9 f   GameDesk.obj
 0001:0003a0b2       __unwindfunclet$?UserAgreeGame@CGameDesk@@UAE_NE@Z$3 1003b0b2 f   GameDesk.obj
 0001:0003a0be       __ehhandler$?UserAgreeGame@CGameDesk@@UAE_NE@Z 1003b0be f   GameDesk.obj
 0001:0003a0f0       __unwindfunclet$?HandleFrameMessage@CGameDesk@@UAE_NEPAUNetMessageHead@@PAXII_N@Z$4 1003b0f0 f   GameDesk.obj
 0001:0003a0f9       __unwindfunclet$?HandleFrameMessage@CGameDesk@@UAE_NEPAUNetMessageHead@@PAXII_N@Z$5 1003b0f9 f   GameDesk.obj
 0001:0003a101       __ehhandler$?HandleFrameMessage@CGameDesk@@UAE_NEPAUNetMessageHead@@PAXII_N@Z 1003b101 f   GameDesk.obj
 0001:0003a130       __ehhandler$?UpdateUserDB@CGameDesk@@MAEHJHH@Z 1003b130 f   GameDesk.obj
 0001:0003a160       __unwindfunclet$??HATL@@YA?AV?$CStringT@DV?$StrTraitMFC_DLL@DV?$ChTraitsCRT@D@ATL@@@@@0@ABV10@0@Z$0 1003b160 f   GameDesk.obj
 0001:0003a160       __unwindfunclet$??HATL@@YA?AV?$CStringT@DV?$StrTraitMFC_DLL@DV?$ChTraitsCRT@D@ATL@@@@@0@ABV10@PBD@Z$0 1003b160 f   GameDesk.obj
 0001:0003a169       __ehhandler$??HATL@@YA?AV?$CStringT@DV?$StrTraitMFC_DLL@DV?$ChTraitsCRT@D@ATL@@@@@0@ABV10@PBD@Z 1003b169 f   GameDesk.obj
 0001:0003a169       __ehhandler$??HATL@@YA?AV?$CStringT@DV?$StrTraitMFC_DLL@DV?$ChTraitsCRT@D@ATL@@@@@0@ABV10@0@Z 1003b169 f   GameDesk.obj
 0001:0003a190       __ehhandler$?reserve@?$vector@UMSG_GR_S_Position_Notice@@V?$allocator@UMSG_GR_S_Position_Notice@@@std@@@std@@QAEXI@Z 1003b190 f   GameDesk.obj
 0001:0003a1b0       __ehhandler$??$_Uninit_move@PAUMSG_GR_S_Position_Notice@@PAU1@V?$allocator@UMSG_GR_S_Position_Notice@@@std@@U1@@std@@YAPAUMSG_GR_S_Position_Notice@@PAU1@00AAV?$allocator@UMSG_GR_S_Position_Notice@@@0@0U_Nonscalar_ptr_iterator_tag@0@@Z 1003b1b0 f   GameDesk.obj
 0001:0003a1d0       __unwindfunclet$??0CGameMainManage@@QAE@XZ$0 1003b1d0 f   GameMainManage.obj
 0001:0003a1d8       __unwindfunclet$??0CGameMainManage@@QAE@XZ$1 1003b1d8 f   GameMainManage.obj
 0001:0003a1e6       __unwindfunclet$??0CGameMainManage@@QAE@XZ$2 1003b1e6 f   GameMainManage.obj
 0001:0003a1f4       __unwindfunclet$??0CGameMainManage@@QAE@XZ$3 1003b1f4 f   GameMainManage.obj
 0001:0003a202       __unwindfunclet$??0CGameMainManage@@QAE@XZ$4 1003b202 f   GameMainManage.obj
 0001:0003a210       __unwindfunclet$??0CGameMainManage@@QAE@XZ$5 1003b210 f   GameMainManage.obj
 0001:0003a21e       __unwindfunclet$??0CGameMainManage@@QAE@XZ$6 1003b21e f   GameMainManage.obj
 0001:0003a22c       __unwindfunclet$??0CGameMainManage@@QAE@XZ$7 1003b22c f   GameMainManage.obj
 0001:0003a235       __unwindfunclet$??0CGameMainManage@@QAE@XZ$9 1003b235 f   GameMainManage.obj
 0001:0003a23e       __unwindfunclet$??0CGameMainManage@@QAE@XZ$10 1003b23e f   GameMainManage.obj
 0001:0003a247       __unwindfunclet$??0CGameMainManage@@QAE@XZ$12 1003b247 f   GameMainManage.obj
 0001:0003a250       __unwindfunclet$??0CGameMainManage@@QAE@XZ$13 1003b250 f   GameMainManage.obj
 0001:0003a259       __unwindfunclet$??0CGameMainManage@@QAE@XZ$15 1003b259 f   GameMainManage.obj
 0001:0003a262       __ehhandler$??0CGameMainManage@@QAE@XZ 1003b262 f   GameMainManage.obj
 0001:0003a280       __unwindfunclet$??1CGameMainManage@@UAE@XZ$8 1003b280 f   GameMainManage.obj
 0001:0003a288       __unwindfunclet$??1CGameMainManage@@UAE@XZ$9 1003b288 f   GameMainManage.obj
 0001:0003a296       __unwindfunclet$??1CGameMainManage@@UAE@XZ$10 1003b296 f   GameMainManage.obj
 0001:0003a2a4       __unwindfunclet$??1CGameMainManage@@UAE@XZ$11 1003b2a4 f   GameMainManage.obj
 0001:0003a2b2       __unwindfunclet$??1CGameMainManage@@UAE@XZ$12 1003b2b2 f   GameMainManage.obj
 0001:0003a2c0       __unwindfunclet$??1CGameMainManage@@UAE@XZ$13 1003b2c0 f   GameMainManage.obj
 0001:0003a2ce       __unwindfunclet$??1CGameMainManage@@UAE@XZ$14 1003b2ce f   GameMainManage.obj
 0001:0003a2dc       __ehhandler$??1CGameMainManage@@UAE@XZ 1003b2dc f   GameMainManage.obj
 0001:0003a300       __unwindfunclet$?OnInit@CGameMainManage@@EAE_NPAUManageInfoStruct@@PAUKernelInfoStruct@@@Z$3 1003b300 f   GameMainManage.obj
 0001:0003a30e       __unwindfunclet$?OnInit@CGameMainManage@@EAE_NPAUManageInfoStruct@@PAUKernelInfoStruct@@@Z$4 1003b30e f   GameMainManage.obj
 0001:0003a31c       __unwindfunclet$?OnInit@CGameMainManage@@EAE_NPAUManageInfoStruct@@PAUKernelInfoStruct@@@Z$5 1003b31c f   GameMainManage.obj
 0001:0003a32a       __unwindfunclet$?OnInit@CGameMainManage@@EAE_NPAUManageInfoStruct@@PAUKernelInfoStruct@@@Z$6 1003b32a f   GameMainManage.obj
 0001:0003a338       __unwindfunclet$?OnInit@CGameMainManage@@EAE_NPAUManageInfoStruct@@PAUKernelInfoStruct@@@Z$7 1003b338 f   GameMainManage.obj
 0001:0003a341       __unwindfunclet$?OnInit@CGameMainManage@@EAE_NPAUManageInfoStruct@@PAUKernelInfoStruct@@@Z$9 1003b341 f   GameMainManage.obj
 0001:0003a34a       __unwindfunclet$?OnInit@CGameMainManage@@EAE_NPAUManageInfoStruct@@PAUKernelInfoStruct@@@Z$10 1003b34a f   GameMainManage.obj
 0001:0003a353       __ehhandler$?OnInit@CGameMainManage@@EAE_NPAUManageInfoStruct@@PAUKernelInfoStruct@@@Z 1003b353 f   GameMainManage.obj
 0001:0003a380       __ehhandler$?OnUnInit@CGameMainManage@@EAE_NXZ 1003b380 f   GameMainManage.obj
 0001:0003a3a0       __unwindfunclet$?OnStart@CGameMainManage@@EAE_NXZ$0 1003b3a0 f   GameMainManage.obj
 0001:0003a3ac       __unwindfunclet$?OnStart@CGameMainManage@@EAE_NXZ$2 1003b3ac f   GameMainManage.obj
 0001:0003a3b5       __unwindfunclet$?OnStart@CGameMainManage@@EAE_NXZ$3 1003b3b5 f   GameMainManage.obj
 0001:0003a3c1       __unwindfunclet$?OnStart@CGameMainManage@@EAE_NXZ$5 1003b3c1 f   GameMainManage.obj
 0001:0003a3cd       __unwindfunclet$?OnStart@CGameMainManage@@EAE_NXZ$6 1003b3cd f   GameMainManage.obj
 0001:0003a3d9       __unwindfunclet$?OnStart@CGameMainManage@@EAE_NXZ$8 1003b3d9 f   GameMainManage.obj
 0001:0003a3e5       __ehhandler$?OnStart@CGameMainManage@@EAE_NXZ 1003b3e5 f   GameMainManage.obj
 0001:0003a410       __unwindfunclet$?OnGMSocketMessage@CGameMainManage@@AAE_NPAUNetMessageHead@@PAXIKIK@Z$0 1003b410 f   GameMainManage.obj
 0001:0003a419       __ehhandler$?OnGMSocketMessage@CGameMainManage@@AAE_NPAUNetMessageHead@@PAXIKIK@Z 1003b419 f   GameMainManage.obj
 0001:0003a440       __unwindfunclet$?OnSocketRead@CGameMainManage@@EAE_NPAUNetMessageHead@@PAXIKIK@Z$2 1003b440 f   GameMainManage.obj
 0001:0003a44b       __unwindfunclet$?OnSocketRead@CGameMainManage@@EAE_NPAUNetMessageHead@@PAXIKIK@Z$3 1003b44b f   GameMainManage.obj
 0001:0003a456       __ehhandler$?OnSocketRead@CGameMainManage@@EAE_NPAUNetMessageHead@@PAXIKIK@Z 1003b456 f   GameMainManage.obj
 0001:0003a480       __unwindfunclet$?OnAboutMoney@CGameMainManage@@AAE_NPAUNetMessageHead@@PAXIKIK@Z$0 1003b480 f   GameMainManage.obj
 0001:0003a48c       __unwindfunclet$?OnAboutMoney@CGameMainManage@@AAE_NPAUNetMessageHead@@PAXIKIK@Z$2 1003b48c f   GameMainManage.obj
 0001:0003a498       __unwindfunclet$?OnAboutMoney@CGameMainManage@@AAE_NPAUNetMessageHead@@PAXIKIK@Z$3 1003b498 f   GameMainManage.obj
 0001:0003a4a4       __unwindfunclet$?OnAboutMoney@CGameMainManage@@AAE_NPAUNetMessageHead@@PAXIKIK@Z$5 1003b4a4 f   GameMainManage.obj
 0001:0003a4b0       __unwindfunclet$?OnAboutMoney@CGameMainManage@@AAE_NPAUNetMessageHead@@PAXIKIK@Z$7 1003b4b0 f   GameMainManage.obj
 0001:0003a4bc       __unwindfunclet$?OnAboutMoney@CGameMainManage@@AAE_NPAUNetMessageHead@@PAXIKIK@Z$8 1003b4bc f   GameMainManage.obj
 0001:0003a4c8       __unwindfunclet$?OnAboutMoney@CGameMainManage@@AAE_NPAUNetMessageHead@@PAXIKIK@Z$10 1003b4c8 f   GameMainManage.obj
 0001:0003a4d4       __unwindfunclet$?OnAboutMoney@CGameMainManage@@AAE_NPAUNetMessageHead@@PAXIKIK@Z$11 1003b4d4 f   GameMainManage.obj
 0001:0003a4e0       __unwindfunclet$?OnAboutMoney@CGameMainManage@@AAE_NPAUNetMessageHead@@PAXIKIK@Z$13 1003b4e0 f   GameMainManage.obj
 0001:0003a4ec       __unwindfunclet$?OnAboutMoney@CGameMainManage@@AAE_NPAUNetMessageHead@@PAXIKIK@Z$14 1003b4ec f   GameMainManage.obj
 0001:0003a4f8       __unwindfunclet$?OnAboutMoney@CGameMainManage@@AAE_NPAUNetMessageHead@@PAXIKIK@Z$16 1003b4f8 f   GameMainManage.obj
 0001:0003a504       __unwindfunclet$?OnAboutMoney@CGameMainManage@@AAE_NPAUNetMessageHead@@PAXIKIK@Z$17 1003b504 f   GameMainManage.obj
 0001:0003a510       __unwindfunclet$?OnAboutMoney@CGameMainManage@@AAE_NPAUNetMessageHead@@PAXIKIK@Z$19 1003b510 f   GameMainManage.obj
 0001:0003a51c       __unwindfunclet$?OnAboutMoney@CGameMainManage@@AAE_NPAUNetMessageHead@@PAXIKIK@Z$20 1003b51c f   GameMainManage.obj
 0001:0003a528       __unwindfunclet$?OnAboutMoney@CGameMainManage@@AAE_NPAUNetMessageHead@@PAXIKIK@Z$21 1003b528 f   GameMainManage.obj
 0001:0003a534       __unwindfunclet$?OnAboutMoney@CGameMainManage@@AAE_NPAUNetMessageHead@@PAXIKIK@Z$22 1003b534 f   GameMainManage.obj
 0001:0003a540       __unwindfunclet$?OnAboutMoney@CGameMainManage@@AAE_NPAUNetMessageHead@@PAXIKIK@Z$23 1003b540 f   GameMainManage.obj
 0001:0003a54c       __unwindfunclet$?OnAboutMoney@CGameMainManage@@AAE_NPAUNetMessageHead@@PAXIKIK@Z$25 1003b54c f   GameMainManage.obj
 0001:0003a558       __unwindfunclet$?OnAboutMoney@CGameMainManage@@AAE_NPAUNetMessageHead@@PAXIKIK@Z$26 1003b558 f   GameMainManage.obj
 0001:0003a564       __unwindfunclet$?OnAboutMoney@CGameMainManage@@AAE_NPAUNetMessageHead@@PAXIKIK@Z$28 1003b564 f   GameMainManage.obj
 0001:0003a570       __unwindfunclet$?OnAboutMoney@CGameMainManage@@AAE_NPAUNetMessageHead@@PAXIKIK@Z$29 1003b570 f   GameMainManage.obj
 0001:0003a57c       __unwindfunclet$?OnAboutMoney@CGameMainManage@@AAE_NPAUNetMessageHead@@PAXIKIK@Z$31 1003b57c f   GameMainManage.obj
 0001:0003a588       __unwindfunclet$?OnAboutMoney@CGameMainManage@@AAE_NPAUNetMessageHead@@PAXIKIK@Z$32 1003b588 f   GameMainManage.obj
 0001:0003a594       __unwindfunclet$?OnAboutMoney@CGameMainManage@@AAE_NPAUNetMessageHead@@PAXIKIK@Z$33 1003b594 f   GameMainManage.obj
 0001:0003a5a0       __ehhandler$?OnAboutMoney@CGameMainManage@@AAE_NPAUNetMessageHead@@PAXIKIK@Z 1003b5a0 f   GameMainManage.obj
 0001:0003a5d0       __unwindfunclet$?PrintUsersLog@CGameMainManage@@AAEXXZ$0 1003b5d0 f   GameMainManage.obj
 0001:0003a5d9       __unwindfunclet$?PrintUsersLog@CGameMainManage@@AAEXXZ$1 1003b5d9 f   GameMainManage.obj
 0001:0003a5e4       __unwindfunclet$?PrintUsersLog@CGameMainManage@@AAEXXZ$2 1003b5e4 f   GameMainManage.obj
 0001:0003a5f0       __ehhandler$?PrintUsersLog@CGameMainManage@@AAEXXZ 1003b5f0 f   GameMainManage.obj
 0001:0003a620       __unwindfunclet$?Writeline@CGameMainManage@@CA_NPAVCFile@@V?$CStringT@DV?$StrTraitMFC_DLL@DV?$ChTraitsCRT@D@ATL@@@@@ATL@@@Z$0 1003b620 f   GameMainManage.obj
 0001:0003a629       __ehhandler$?Writeline@CGameMainManage@@CA_NPAVCFile@@V?$CStringT@DV?$StrTraitMFC_DLL@DV?$ChTraitsCRT@D@ATL@@@@@ATL@@@Z 1003b629 f   GameMainManage.obj
 0001:0003a650       __unwindfunclet$?OnManageMessage@CGameMainManage@@AAE_NPAUNetMessageHead@@PAXIKIK@Z$0 1003b650 f   GameMainManage.obj
 0001:0003a65c       __unwindfunclet$?OnManageMessage@CGameMainManage@@AAE_NPAUNetMessageHead@@PAXIKIK@Z$1 1003b65c f   GameMainManage.obj
 0001:0003a668       __unwindfunclet$?OnManageMessage@CGameMainManage@@AAE_NPAUNetMessageHead@@PAXIKIK@Z$2 1003b668 f   GameMainManage.obj
 0001:0003a674       __unwindfunclet$?OnManageMessage@CGameMainManage@@AAE_NPAUNetMessageHead@@PAXIKIK@Z$4 1003b674 f   GameMainManage.obj
 0001:0003a67f       __unwindfunclet$?OnManageMessage@CGameMainManage@@AAE_NPAUNetMessageHead@@PAXIKIK@Z$5 1003b67f f   GameMainManage.obj
 0001:0003a68b       __unwindfunclet$?OnManageMessage@CGameMainManage@@AAE_NPAUNetMessageHead@@PAXIKIK@Z$6 1003b68b f   GameMainManage.obj
 0001:0003a697       __unwindfunclet$?OnManageMessage@CGameMainManage@@AAE_NPAUNetMessageHead@@PAXIKIK@Z$7 1003b697 f   GameMainManage.obj
 0001:0003a6a3       __unwindfunclet$?OnManageMessage@CGameMainManage@@AAE_NPAUNetMessageHead@@PAXIKIK@Z$9 1003b6a3 f   GameMainManage.obj
 0001:0003a6af       __unwindfunclet$?OnManageMessage@CGameMainManage@@AAE_NPAUNetMessageHead@@PAXIKIK@Z$10 1003b6af f   GameMainManage.obj
 0001:0003a6bb       __unwindfunclet$?OnManageMessage@CGameMainManage@@AAE_NPAUNetMessageHead@@PAXIKIK@Z$12 1003b6bb f   GameMainManage.obj
 0001:0003a6c7       __unwindfunclet$?OnManageMessage@CGameMainManage@@AAE_NPAUNetMessageHead@@PAXIKIK@Z$13 1003b6c7 f   GameMainManage.obj
 0001:0003a6d3       __unwindfunclet$?OnManageMessage@CGameMainManage@@AAE_NPAUNetMessageHead@@PAXIKIK@Z$15 1003b6d3 f   GameMainManage.obj
 0001:0003a6df       __unwindfunclet$?OnManageMessage@CGameMainManage@@AAE_NPAUNetMessageHead@@PAXIKIK@Z$16 1003b6df f   GameMainManage.obj
 0001:0003a6eb       __unwindfunclet$?OnManageMessage@CGameMainManage@@AAE_NPAUNetMessageHead@@PAXIKIK@Z$18 1003b6eb f   GameMainManage.obj
 0001:0003a6f7       __unwindfunclet$?OnManageMessage@CGameMainManage@@AAE_NPAUNetMessageHead@@PAXIKIK@Z$19 1003b6f7 f   GameMainManage.obj
 0001:0003a703       __unwindfunclet$?OnManageMessage@CGameMainManage@@AAE_NPAUNetMessageHead@@PAXIKIK@Z$21 1003b703 f   GameMainManage.obj
 0001:0003a70f       __unwindfunclet$?OnManageMessage@CGameMainManage@@AAE_NPAUNetMessageHead@@PAXIKIK@Z$22 1003b70f f   GameMainManage.obj
 0001:0003a71b       __unwindfunclet$?OnManageMessage@CGameMainManage@@AAE_NPAUNetMessageHead@@PAXIKIK@Z$24 1003b71b f   GameMainManage.obj
 0001:0003a727       __unwindfunclet$?OnManageMessage@CGameMainManage@@AAE_NPAUNetMessageHead@@PAXIKIK@Z$25 1003b727 f   GameMainManage.obj
 0001:0003a733       __unwindfunclet$?OnManageMessage@CGameMainManage@@AAE_NPAUNetMessageHead@@PAXIKIK@Z$27 1003b733 f   GameMainManage.obj
 0001:0003a73f       __unwindfunclet$?OnManageMessage@CGameMainManage@@AAE_NPAUNetMessageHead@@PAXIKIK@Z$28 1003b73f f   GameMainManage.obj
 0001:0003a74b       __unwindfunclet$?OnManageMessage@CGameMainManage@@AAE_NPAUNetMessageHead@@PAXIKIK@Z$30 1003b74b f   GameMainManage.obj
 0001:0003a757       __unwindfunclet$?OnManageMessage@CGameMainManage@@AAE_NPAUNetMessageHead@@PAXIKIK@Z$31 1003b757 f   GameMainManage.obj
 0001:0003a763       __unwindfunclet$?OnManageMessage@CGameMainManage@@AAE_NPAUNetMessageHead@@PAXIKIK@Z$33 1003b763 f   GameMainManage.obj
 0001:0003a76f       __unwindfunclet$?OnManageMessage@CGameMainManage@@AAE_NPAUNetMessageHead@@PAXIKIK@Z$34 1003b76f f   GameMainManage.obj
 0001:0003a77b       __unwindfunclet$?OnManageMessage@CGameMainManage@@AAE_NPAUNetMessageHead@@PAXIKIK@Z$36 1003b77b f   GameMainManage.obj
 0001:0003a787       __unwindfunclet$?OnManageMessage@CGameMainManage@@AAE_NPAUNetMessageHead@@PAXIKIK@Z$37 1003b787 f   GameMainManage.obj
 0001:0003a793       __unwindfunclet$?OnManageMessage@CGameMainManage@@AAE_NPAUNetMessageHead@@PAXIKIK@Z$38 1003b793 f   GameMainManage.obj
 0001:0003a79f       __unwindfunclet$?OnManageMessage@CGameMainManage@@AAE_NPAUNetMessageHead@@PAXIKIK@Z$40 1003b79f f   GameMainManage.obj
 0001:0003a7ab       __unwindfunclet$?OnManageMessage@CGameMainManage@@AAE_NPAUNetMessageHead@@PAXIKIK@Z$41 1003b7ab f   GameMainManage.obj
 0001:0003a7b7       __unwindfunclet$?OnManageMessage@CGameMainManage@@AAE_NPAUNetMessageHead@@PAXIKIK@Z$43 1003b7b7 f   GameMainManage.obj
 0001:0003a7c3       __unwindfunclet$?OnManageMessage@CGameMainManage@@AAE_NPAUNetMessageHead@@PAXIKIK@Z$44 1003b7c3 f   GameMainManage.obj
 0001:0003a7cf       __unwindfunclet$?OnManageMessage@CGameMainManage@@AAE_NPAUNetMessageHead@@PAXIKIK@Z$46 1003b7cf f   GameMainManage.obj
 0001:0003a7db       __unwindfunclet$?OnManageMessage@CGameMainManage@@AAE_NPAUNetMessageHead@@PAXIKIK@Z$47 1003b7db f   GameMainManage.obj
 0001:0003a7e7       __unwindfunclet$?OnManageMessage@CGameMainManage@@AAE_NPAUNetMessageHead@@PAXIKIK@Z$49 1003b7e7 f   GameMainManage.obj
 0001:0003a7f3       __unwindfunclet$?OnManageMessage@CGameMainManage@@AAE_NPAUNetMessageHead@@PAXIKIK@Z$50 1003b7f3 f   GameMainManage.obj
 0001:0003a7ff       __unwindfunclet$?OnManageMessage@CGameMainManage@@AAE_NPAUNetMessageHead@@PAXIKIK@Z$52 1003b7ff f   GameMainManage.obj
 0001:0003a80b       __unwindfunclet$?OnManageMessage@CGameMainManage@@AAE_NPAUNetMessageHead@@PAXIKIK@Z$53 1003b80b f   GameMainManage.obj
 0001:0003a817       __unwindfunclet$?OnManageMessage@CGameMainManage@@AAE_NPAUNetMessageHead@@PAXIKIK@Z$55 1003b817 f   GameMainManage.obj
 0001:0003a823       __unwindfunclet$?OnManageMessage@CGameMainManage@@AAE_NPAUNetMessageHead@@PAXIKIK@Z$56 1003b823 f   GameMainManage.obj
 0001:0003a82f       __unwindfunclet$?OnManageMessage@CGameMainManage@@AAE_NPAUNetMessageHead@@PAXIKIK@Z$58 1003b82f f   GameMainManage.obj
 0001:0003a83b       __unwindfunclet$?OnManageMessage@CGameMainManage@@AAE_NPAUNetMessageHead@@PAXIKIK@Z$59 1003b83b f   GameMainManage.obj
 0001:0003a847       __unwindfunclet$?OnManageMessage@CGameMainManage@@AAE_NPAUNetMessageHead@@PAXIKIK@Z$61 1003b847 f   GameMainManage.obj
 0001:0003a853       __unwindfunclet$?OnManageMessage@CGameMainManage@@AAE_NPAUNetMessageHead@@PAXIKIK@Z$62 1003b853 f   GameMainManage.obj
 0001:0003a85f       __unwindfunclet$?OnManageMessage@CGameMainManage@@AAE_NPAUNetMessageHead@@PAXIKIK@Z$64 1003b85f f   GameMainManage.obj
 0001:0003a86b       __unwindfunclet$?OnManageMessage@CGameMainManage@@AAE_NPAUNetMessageHead@@PAXIKIK@Z$65 1003b86b f   GameMainManage.obj
 0001:0003a877       __unwindfunclet$?OnManageMessage@CGameMainManage@@AAE_NPAUNetMessageHead@@PAXIKIK@Z$67 1003b877 f   GameMainManage.obj
 0001:0003a883       __unwindfunclet$?OnManageMessage@CGameMainManage@@AAE_NPAUNetMessageHead@@PAXIKIK@Z$68 1003b883 f   GameMainManage.obj
 0001:0003a88f       __unwindfunclet$?OnManageMessage@CGameMainManage@@AAE_NPAUNetMessageHead@@PAXIKIK@Z$70 1003b88f f   GameMainManage.obj
 0001:0003a89b       __unwindfunclet$?OnManageMessage@CGameMainManage@@AAE_NPAUNetMessageHead@@PAXIKIK@Z$71 1003b89b f   GameMainManage.obj
 0001:0003a8a7       __ehhandler$?OnManageMessage@CGameMainManage@@AAE_NPAUNetMessageHead@@PAXIKIK@Z 1003b8a7 f   GameMainManage.obj
 0001:0003a8d0       __unwindfunclet$?SendRoomPondUpDataALL@CGameMainManage@@QAEXXZ$0 1003b8d0 f   GameMainManage.obj
 0001:0003a8dc       __unwindfunclet$?SendRoomPondUpDataALL@CGameMainManage@@QAEXXZ$1 1003b8dc f   GameMainManage.obj
 0001:0003a8e8       __unwindfunclet$?SendRoomPondUpDataALL@CGameMainManage@@QAEXXZ$3 1003b8e8 f   GameMainManage.obj
 0001:0003a8f3       __unwindfunclet$?SendRoomPondUpDataALL@CGameMainManage@@QAEXXZ$4 1003b8f3 f   GameMainManage.obj
 0001:0003a8ff       __unwindfunclet$?SendRoomPondUpDataALL@CGameMainManage@@QAEXXZ$5 1003b8ff f   GameMainManage.obj
 0001:0003a90b       __unwindfunclet$?SendRoomPondUpDataALL@CGameMainManage@@QAEXXZ$7 1003b90b f   GameMainManage.obj
 0001:0003a917       __unwindfunclet$?SendRoomPondUpDataALL@CGameMainManage@@QAEXXZ$9 1003b917 f   GameMainManage.obj
 0001:0003a923       __unwindfunclet$?SendRoomPondUpDataALL@CGameMainManage@@QAEXXZ$11 1003b923 f   GameMainManage.obj
 0001:0003a92f       __unwindfunclet$?SendRoomPondUpDataALL@CGameMainManage@@QAEXXZ$13 1003b92f f   GameMainManage.obj
 0001:0003a93b       __unwindfunclet$?SendRoomPondUpDataALL@CGameMainManage@@QAEXXZ$15 1003b93b f   GameMainManage.obj
 0001:0003a947       __unwindfunclet$?SendRoomPondUpDataALL@CGameMainManage@@QAEXXZ$17 1003b947 f   GameMainManage.obj
 0001:0003a953       __unwindfunclet$?SendRoomPondUpDataALL@CGameMainManage@@QAEXXZ$19 1003b953 f   GameMainManage.obj
 0001:0003a95f       __unwindfunclet$?SendRoomPondUpDataALL@CGameMainManage@@QAEXXZ$21 1003b95f f   GameMainManage.obj
 0001:0003a96b       __unwindfunclet$?SendRoomPondUpDataALL@CGameMainManage@@QAEXXZ$23 1003b96b f   GameMainManage.obj
 0001:0003a977       __unwindfunclet$?SendRoomPondUpDataALL@CGameMainManage@@QAEXXZ$25 1003b977 f   GameMainManage.obj
 0001:0003a983       __unwindfunclet$?SendRoomPondUpDataALL@CGameMainManage@@QAEXXZ$27 1003b983 f   GameMainManage.obj
 0001:0003a98f       __unwindfunclet$?SendRoomPondUpDataALL@CGameMainManage@@QAEXXZ$29 1003b98f f   GameMainManage.obj
 0001:0003a99b       __unwindfunclet$?SendRoomPondUpDataALL@CGameMainManage@@QAEXXZ$31 1003b99b f   GameMainManage.obj
 0001:0003a9a7       __unwindfunclet$?SendRoomPondUpDataALL@CGameMainManage@@QAEXXZ$33 1003b9a7 f   GameMainManage.obj
 0001:0003a9b3       __unwindfunclet$?SendRoomPondUpDataALL@CGameMainManage@@QAEXXZ$35 1003b9b3 f   GameMainManage.obj
 0001:0003a9bf       __ehhandler$?SendRoomPondUpDataALL@CGameMainManage@@QAEXXZ 1003b9bf f   GameMainManage.obj
 0001:0003a9f0       __unwindfunclet$?queuerGame@CGameMainManage@@AAEXXZ$0 1003b9f0 f   GameMainManage.obj
 0001:0003a9f8       __unwindfunclet$?queuerGame@CGameMainManage@@AAEXXZ$1 1003b9f8 f   GameMainManage.obj
 0001:0003aa00       __ehhandler$?queuerGame@CGameMainManage@@AAEXXZ 1003ba00 f   GameMainManage.obj
 0001:0003aa30       __unwindfunclet$?OnRoomMessage@CGameMainManage@@AAE_NPAUNetMessageHead@@PAXIKIK@Z$0 1003ba30 f   GameMainManage.obj
 0001:0003aa39       __unwindfunclet$?OnRoomMessage@CGameMainManage@@AAE_NPAUNetMessageHead@@PAXIKIK@Z$1 1003ba39 f   GameMainManage.obj
 0001:0003aa41       __unwindfunclet$?OnRoomMessage@CGameMainManage@@AAE_NPAUNetMessageHead@@PAXIKIK@Z$2 1003ba41 f   GameMainManage.obj
 0001:0003aa49       __ehhandler$?OnRoomMessage@CGameMainManage@@AAE_NPAUNetMessageHead@@PAXIKIK@Z 1003ba49 f   GameMainManage.obj
 0001:0003aa80       __unwindfunclet$?UserLeftDesk@CGameMainManage@@AAE_NPAVCGameUserInfo@@_N@Z$0 1003ba80 f   GameMainManage.obj
 0001:0003aa89       __unwindfunclet$?UserLeftDesk@CGameMainManage@@AAE_NPAVCGameUserInfo@@_N@Z$2 1003ba89 f   GameMainManage.obj
 0001:0003aa92       __unwindfunclet$?UserLeftDesk@CGameMainManage@@AAE_NPAVCGameUserInfo@@_N@Z$3 1003ba92 f   GameMainManage.obj
 0001:0003aa9b       __ehhandler$?UserLeftDesk@CGameMainManage@@AAE_NPAVCGameUserInfo@@_N@Z 1003ba9b f   GameMainManage.obj
 0001:0003aac0       __unwindfunclet$?OnRoomLogonResult@CGameMainManage@@AAE_NPAUDataBaseResultLine@@@Z$2 1003bac0 f   GameMainManage.obj
 0001:0003aacc       __unwindfunclet$?OnRoomLogonResult@CGameMainManage@@AAE_NPAUDataBaseResultLine@@@Z$4 1003bacc f   GameMainManage.obj
 0001:0003aad5       __unwindfunclet$?OnRoomLogonResult@CGameMainManage@@AAE_NPAUDataBaseResultLine@@@Z$5 1003bad5 f   GameMainManage.obj
 0001:0003aade       __unwindfunclet$?OnRoomLogonResult@CGameMainManage@@AAE_NPAUDataBaseResultLine@@@Z$6 1003bade f   GameMainManage.obj
 0001:0003aaea       __ehhandler$?OnRoomLogonResult@CGameMainManage@@AAE_NPAUDataBaseResultLine@@@Z 1003baea f   GameMainManage.obj
 0001:0003ab20       __unwindfunclet$?OnTransferMoney@CGameMainManage@@AAE_NPAUDataBaseResultLine@@I@Z$0 1003bb20 f   GameMainManage.obj
 0001:0003ab2c       __ehhandler$?OnTransferMoney@CGameMainManage@@AAE_NPAUDataBaseResultLine@@I@Z 1003bb2c f   GameMainManage.obj
 0001:0003ab60       __ehhandler$?OnGetContestAbandonResult@CGameMainManage@@AAE_NPAUDataBaseResultLine@@@Z 1003bb60 f   GameMainManage.obj
 0001:0003ab80       __unwindfunclet$?InitGameDesk@CGameMainManage@@AAE_NII@Z$0 1003bb80 f   GameMainManage.obj
 0001:0003ab8e       __unwindfunclet$?InitGameDesk@CGameMainManage@@AAE_NII@Z$1 1003bb8e f   GameMainManage.obj
 0001:0003ab99       __unwindfunclet$?InitGameDesk@CGameMainManage@@AAE_NII@Z$2 1003bb99 f   GameMainManage.obj
 0001:0003aba2       __unwindfunclet$?InitGameDesk@CGameMainManage@@AAE_NII@Z$4 1003bba2 f   GameMainManage.obj
 0001:0003abab       __unwindfunclet$?InitGameDesk@CGameMainManage@@AAE_NII@Z$5 1003bbab f   GameMainManage.obj
 0001:0003abb4       __ehhandler$?InitGameDesk@CGameMainManage@@AAE_NII@Z 1003bbb4 f   GameMainManage.obj
 0001:0003abe0       __unwindfunclet$?CreateAutoAllotDesk@CGameMainManage@@UAEPAUIAutoAllotDesk@@HH@Z$0 1003bbe0 f   GameMainManage.obj
 0001:0003abeb       __ehhandler$?CreateAutoAllotDesk@CGameMainManage@@UAEPAUIAutoAllotDesk@@HH@Z 1003bbeb f   GameMainManage.obj
 0001:0003ac10       __unwindfunclet$?NewQueueGame@CGameMainManage@@QAEXXZ$0 1003bc10 f   GameMainManage.obj
 0001:0003ac18       __ehhandler$?NewQueueGame@CGameMainManage@@QAEXXZ 1003bc18 f   GameMainManage.obj
 0001:0003ac40       __unwindfunclet$?OnStartTimingMatchTimer@CGameMainManage@@QAEXVCOleDateTime@ATL@@@Z$0 1003bc40 f   GameMainManage.obj
 0001:0003ac49       __ehhandler$?OnStartTimingMatchTimer@CGameMainManage@@QAEXVCOleDateTime@ATL@@@Z 1003bc49 f   GameMainManage.obj
 0001:0003ac70       __unwindfunclet$??1?$list@PAVCGameUserInfo@@V?$allocator@PAVCGameUserInfo@@@std@@@std@@QAE@XZ$0 1003bc70 f   GameMainManage.obj
 0001:0003ac78       __ehhandler$??1?$list@PAVCGameUserInfo@@V?$allocator@PAVCGameUserInfo@@@std@@@std@@QAE@XZ 1003bc78 f   GameMainManage.obj
 0001:0003aca0       __ehhandler$?reserve@?$vector@UMSG_GM_S_ReturnGameInfo@@V?$allocator@UMSG_GM_S_ReturnGameInfo@@@std@@@std@@QAEXI@Z 1003bca0 f   GameMainManage.obj
 0001:0003acc0       __ehhandler$?reserve@?$vector@JV?$allocator@J@std@@@std@@QAEXI@Z 1003bcc0 f   GameMainManage.obj
 0001:0003acc0       __ehhandler$?reserve@?$vector@PAVCGameUserInfo@@V?$allocator@PAVCGameUserInfo@@@std@@@std@@QAEXI@Z 1003bcc0 f   GameMainManage.obj
 0001:0003acc0       __ehhandler$?reserve@?$vector@HV?$allocator@H@std@@@std@@QAEXI@Z 1003bcc0 f   GameMainManage.obj
 0001:0003ace0       __unwindfunclet$??$sort@Vcompare@@@?$list@PAVCGameUserInfo@@V?$allocator@PAVCGameUserInfo@@@std@@@std@@QAEXVcompare@@@Z$0 1003bce0 f   GameMainManage.obj
 0001:0003ace8       __unwindfunclet$??$sort@Vcompare@@@?$list@PAVCGameUserInfo@@V?$allocator@PAVCGameUserInfo@@@std@@@std@@QAEXVcompare@@@Z$1 1003bce8 f   GameMainManage.obj
 0001:0003acfe       __ehhandler$??$sort@Vcompare@@@?$list@PAVCGameUserInfo@@V?$allocator@PAVCGameUserInfo@@@std@@@std@@QAEXVcompare@@@Z 1003bcfe f   GameMainManage.obj
 0001:0003ad30       __unwindfunclet$??$_Construct@PAVCGameUserInfo@@ABQAV1@@std@@YAXPAPAVCGameUserInfo@@ABQAV1@@Z$0 1003bd30 f   GameMainManage.obj
 0001:0003ad30       __unwindfunclet$??$_Construct@PAUFILEINFO@@ABQAU1@@std@@YAXPAPAUFILEINFO@@ABQAU1@@Z$0 1003bd30 f   GameMainManage.obj
 0001:0003ad30       __unwindfunclet$??$_Construct@JABJ@std@@YAXPAJABJ@Z$0 1003bd30 f   GameMainManage.obj
 0001:0003ad30       __unwindfunclet$??$_Construct@UQueueInfo_t@@ABU1@@std@@YAXPAUQueueInfo_t@@ABU1@@Z$0 1003bd30 f   GameMainManage.obj
 0001:0003ad30       __unwindfunclet$??$_Construct@HABH@std@@YAXPAHABH@Z$0 1003bd30 f   GameMainManage.obj
 0001:0003ad30       __unwindfunclet$??$_Construct@UMSG_GR_S_Position_Notice@@ABU1@@std@@YAXPAUMSG_GR_S_Position_Notice@@ABU1@@Z$0 1003bd30 f   GameMainManage.obj
 0001:0003ad30       __unwindfunclet$??$_Construct@UMSG_GM_S_ReturnGameInfo@@ABU1@@std@@YAXPAUMSG_GM_S_ReturnGameInfo@@ABU1@@Z$0 1003bd30 f   GameMainManage.obj
 0001:0003ad41       __ehhandler$??$_Construct@HABH@std@@YAXPAHABH@Z 1003bd41 f   GameMainManage.obj
 0001:0003ad41       __ehhandler$??$_Construct@UMSG_GM_S_ReturnGameInfo@@ABU1@@std@@YAXPAUMSG_GM_S_ReturnGameInfo@@ABU1@@Z 1003bd41 f   GameMainManage.obj
 0001:0003ad41       __ehhandler$??$_Construct@JABJ@std@@YAXPAJABJ@Z 1003bd41 f   GameMainManage.obj
 0001:0003ad41       __ehhandler$??$_Construct@UQueueInfo_t@@ABU1@@std@@YAXPAUQueueInfo_t@@ABU1@@Z 1003bd41 f   GameMainManage.obj
 0001:0003ad41       __ehhandler$??$_Construct@UMSG_GR_S_Position_Notice@@ABU1@@std@@YAXPAUMSG_GR_S_Position_Notice@@ABU1@@Z 1003bd41 f   GameMainManage.obj
 0001:0003ad41       __ehhandler$??$_Construct@PAVCGameUserInfo@@ABQAV1@@std@@YAXPAPAVCGameUserInfo@@ABQAV1@@Z 1003bd41 f   GameMainManage.obj
 0001:0003ad41       __ehhandler$??$_Construct@PAUFILEINFO@@ABQAU1@@std@@YAXPAPAUFILEINFO@@ABQAU1@@Z 1003bd41 f   GameMainManage.obj
 0001:0003ad60       __ehhandler$??$_Uninit_move@PAUMSG_GM_S_ReturnGameInfo@@PAU1@V?$allocator@UMSG_GM_S_ReturnGameInfo@@@std@@U1@@std@@YAPAUMSG_GM_S_ReturnGameInfo@@PAU1@00AAV?$allocator@UMSG_GM_S_ReturnGameInfo@@@0@0U_Nonscalar_ptr_iterator_tag@0@@Z 1003bd60 f   GameMainManage.obj
 0001:0003ad80       __ehhandler$??$_Buynode@PAVCGameUserInfo@@@?$_List_val@PAVCGameUserInfo@@V?$allocator@PAVCGameUserInfo@@@std@@@std@@QAEPAU_Node@?$_List_nod@PAVCGameUserInfo@@V?$allocator@PAVCGameUserInfo@@@std@@@1@PAU231@0$$QAPAVCGameUserInfo@@@Z 1003bd80 f   GameMainManage.obj
 0001:0003ada0       __unwindfunclet$??$construct@AAU?$pair@$$CBV?$basic_string@DU?$char_traits@D@std@@V?$allocator@D@2@@std@@VHNTreeNode@@@std@@@?$allocator@U?$pair@$$CBV?$basic_string@DU?$char_traits@D@std@@V?$allocator@D@2@@std@@VHNTreeNode@@@std@@@std@@QAEXPAU?$pair@$$CBV?$basic_string@DU?$char_traits@D@std@@V?$allocator@D@2@@std@@VHNTreeNode@@@1@AAU21@@Z$0 1003bda0 f   GameMainManage.obj
 0001:0003ada0       __unwindfunclet$?construct@?$allocator@UMSG_GR_S_Position_Notice@@@std@@QAEXPAUMSG_GR_S_Position_Notice@@$$QAU3@@Z$0 1003bda0 f   GameMainManage.obj
 0001:0003ada0       __unwindfunclet$??$construct@AAJ@?$allocator@J@std@@QAEXPAJAAJ@Z$0 1003bda0 f   GameMainManage.obj
 0001:0003ada0       __unwindfunclet$??$construct@AAUMSG_GR_S_Position_Notice@@@?$allocator@UMSG_GR_S_Position_Notice@@@std@@QAEXPAUMSG_GR_S_Position_Notice@@AAU2@@Z$0 1003bda0 f   GameMainManage.obj
 0001:0003ada0       __unwindfunclet$??$construct@AAPAVCGameUserInfo@@@?$allocator@PAVCGameUserInfo@@@std@@QAEXPAPAVCGameUserInfo@@AAPAV2@@Z$0 1003bda0 f   GameMainManage.obj
 0001:0003ada0       __unwindfunclet$??$construct@AAH@?$allocator@H@std@@QAEXPAHAAH@Z$0 1003bda0 f   GameMainManage.obj
 0001:0003ada0       __unwindfunclet$??$construct@AAUQueueInfo_t@@@?$allocator@UQueueInfo_t@@@std@@QAEXPAUQueueInfo_t@@AAU2@@Z$0 1003bda0 f   GameMainManage.obj
 0001:0003ada0       __unwindfunclet$?construct@?$allocator@UMSG_GM_S_ReturnGameInfo@@@std@@QAEXPAUMSG_GM_S_ReturnGameInfo@@$$QAU3@@Z$0 1003bda0 f   GameMainManage.obj
 0001:0003ada0       __unwindfunclet$?construct@?$allocator@UQueueInfo_t@@@std@@QAEXPAUQueueInfo_t@@$$QAU3@@Z$0 1003bda0 f   GameMainManage.obj
 0001:0003ada0       __unwindfunclet$?construct@?$allocator@PAVCGameUserInfo@@@std@@QAEXPAPAVCGameUserInfo@@$$QAPAV3@@Z$0 1003bda0 f   GameMainManage.obj
 0001:0003ada0       __unwindfunclet$??$construct@AAUMSG_GM_S_ReturnGameInfo@@@?$allocator@UMSG_GM_S_ReturnGameInfo@@@std@@QAEXPAUMSG_GM_S_ReturnGameInfo@@AAU2@@Z$0 1003bda0 f   GameMainManage.obj
 0001:0003adb1       __ehhandler$??$construct@AAUQueueInfo_t@@@?$allocator@UQueueInfo_t@@@std@@QAEXPAUQueueInfo_t@@AAU2@@Z 1003bdb1 f   GameMainManage.obj
 0001:0003adb1       __ehhandler$?construct@?$allocator@UMSG_GR_S_Position_Notice@@@std@@QAEXPAUMSG_GR_S_Position_Notice@@$$QAU3@@Z 1003bdb1 f   GameMainManage.obj
 0001:0003adb1       __ehhandler$?construct@?$allocator@UMSG_GM_S_ReturnGameInfo@@@std@@QAEXPAUMSG_GM_S_ReturnGameInfo@@$$QAU3@@Z 1003bdb1 f   GameMainManage.obj
 0001:0003adb1       __ehhandler$?construct@?$allocator@UQueueInfo_t@@@std@@QAEXPAUQueueInfo_t@@$$QAU3@@Z 1003bdb1 f   GameMainManage.obj
 0001:0003adb1       __ehhandler$??$construct@AAU?$pair@$$CBV?$basic_string@DU?$char_traits@D@std@@V?$allocator@D@2@@std@@VHNTreeNode@@@std@@@?$allocator@U?$pair@$$CBV?$basic_string@DU?$char_traits@D@std@@V?$allocator@D@2@@std@@VHNTreeNode@@@std@@@std@@QAEXPAU?$pair@$$CBV?$basic_string@DU?$char_traits@D@std@@V?$allocator@D@2@@std@@VHNTreeNode@@@1@AAU21@@Z 1003bdb1 f   GameMainManage.obj
 0001:0003adb1       __ehhandler$??$construct@AAPAVCGameUserInfo@@@?$allocator@PAVCGameUserInfo@@@std@@QAEXPAPAVCGameUserInfo@@AAPAV2@@Z 1003bdb1 f   GameMainManage.obj
 0001:0003adb1       __ehhandler$??$construct@AAH@?$allocator@H@std@@QAEXPAHAAH@Z 1003bdb1 f   GameMainManage.obj
 0001:0003adb1       __ehhandler$??$construct@AAJ@?$allocator@J@std@@QAEXPAJAAJ@Z 1003bdb1 f   GameMainManage.obj
 0001:0003adb1       __ehhandler$??$construct@AAUMSG_GR_S_Position_Notice@@@?$allocator@UMSG_GR_S_Position_Notice@@@std@@QAEXPAUMSG_GR_S_Position_Notice@@AAU2@@Z 1003bdb1 f   GameMainManage.obj
 0001:0003adb1       __ehhandler$??$construct@AAUMSG_GM_S_ReturnGameInfo@@@?$allocator@UMSG_GM_S_ReturnGameInfo@@@std@@QAEXPAUMSG_GM_S_ReturnGameInfo@@AAU2@@Z 1003bdb1 f   GameMainManage.obj
 0001:0003adb1       __ehhandler$?construct@?$allocator@PAVCGameUserInfo@@@std@@QAEXPAPAVCGameUserInfo@@$$QAPAV3@@Z 1003bdb1 f   GameMainManage.obj
 0001:0003add0       __unwindfunclet$?GetKeyVal@CINIFile@@QAE_JV?$CStringT@DV?$StrTraitMFC_DLL@DV?$ChTraitsCRT@D@ATL@@@@@ATL@@0_J@Z$0 1003bdd0 f   GameMainManage.obj
 0001:0003add9       __unwindfunclet$?GetKeyVal@CINIFile@@QAE_JV?$CStringT@DV?$StrTraitMFC_DLL@DV?$ChTraitsCRT@D@ATL@@@@@ATL@@0_J@Z$1 1003bdd9 f   GameMainManage.obj
 0001:0003ade2       __unwindfunclet$?GetKeyVal@CINIFile@@QAE_JV?$CStringT@DV?$StrTraitMFC_DLL@DV?$ChTraitsCRT@D@ATL@@@@@ATL@@0_J@Z$2 1003bde2 f   GameMainManage.obj
 0001:0003adee       __unwindfunclet$?GetKeyVal@CINIFile@@QAE_JV?$CStringT@DV?$StrTraitMFC_DLL@DV?$ChTraitsCRT@D@ATL@@@@@ATL@@0_J@Z$4 1003bdee f   GameMainManage.obj
 0001:0003adfa       __ehhandler$?GetKeyVal@CINIFile@@QAE_JV?$CStringT@DV?$StrTraitMFC_DLL@DV?$ChTraitsCRT@D@ATL@@@@@ATL@@0_J@Z 1003bdfa f   GameMainManage.obj
 0001:0003ae30       __unwindfunclet$?OnNetMessage@CPropService@@QAE_NPAUNetMessageHead@@PAXIKIK@Z$0 1003be30 f   PropService.obj
 0001:0003ae39       __ehhandler$?OnNetMessage@CPropService@@QAE_NPAUNetMessageHead@@PAXIKIK@Z 1003be39 f   PropService.obj
 0001:0003ae60       __unwindfunclet$?OnUserSmallBoardcase@CPropService@@QAE_NPAUNetMessageHead@@PAXIKIK@Z$0 1003be60 f   PropService.obj
 0001:0003ae6b       __ehhandler$?OnUserSmallBoardcase@CPropService@@QAE_NPAUNetMessageHead@@PAXIKIK@Z 1003be6b f   PropService.obj
 0001:0003aea0       __unwindfunclet$??0CSmtp@@QAE@ABV0@@Z$0 1003bea0 f   stdafx.obj
 0001:0003aeab       __unwindfunclet$??0CSmtp@@QAE@ABV0@@Z$1 1003beab f   stdafx.obj
 0001:0003aeb6       __unwindfunclet$??0CSmtp@@QAE@ABV0@@Z$2 1003beb6 f   stdafx.obj
 0001:0003aec1       __unwindfunclet$??0CSmtp@@QAE@ABV0@@Z$3 1003bec1 f   stdafx.obj
 0001:0003aecc       __unwindfunclet$??0CSmtp@@QAE@ABV0@@Z$4 1003becc f   stdafx.obj
 0001:0003aed7       __unwindfunclet$??0CSmtp@@QAE@ABV0@@Z$5 1003bed7 f   stdafx.obj
 0001:0003aee5       __ehhandler$??0CSmtp@@QAE@ABV0@@Z 1003bee5 f   stdafx.obj
 0001:0003af00       __unwindfunclet$??0?$list@PAUFILEINFO@@V?$allocator@PAUFILEINFO@@@std@@@std@@QAE@ABV01@@Z$2 1003bf00 f   stdafx.obj
 0001:0003af08       __ehhandler$??0?$list@PAUFILEINFO@@V?$allocator@PAUFILEINFO@@@std@@@std@@QAE@ABV01@@Z 1003bf08 f   stdafx.obj
 0001:0003af30       __ehhandler$??$_Insert@V?$_List_const_iterator@V?$_List_val@PAVCGameUserInfo@@V?$allocator@PAVCGameUserInfo@@@std@@@std@@@std@@@?$list@PAVCGameUserInfo@@V?$allocator@PAVCGameUserInfo@@@std@@@std@@QAEXV?$_List_const_iterator@V?$_List_val@PAVCGameUserInfo@@V?$allocator@PAVCGameUserInfo@@@std@@@std@@@1@00Uforward_iterator_tag@1@@Z 1003bf30 f   stdafx.obj
 0001:0003af30       __ehhandler$??$_Insert@V?$_List_const_iterator@V?$_List_val@PAUFILEINFO@@V?$allocator@PAUFILEINFO@@@std@@@std@@@std@@@?$list@PAUFILEINFO@@V?$allocator@PAUFILEINFO@@@std@@@std@@QAEXV?$_List_const_iterator@V?$_List_val@PAUFILEINFO@@V?$allocator@PAUFILEINFO@@@std@@@std@@@1@00Uforward_iterator_tag@1@@Z 1003bf30 f   stdafx.obj
 0001:0003af50       __ehhandler$?_Buynode@?$_List_val@PAUFILEINFO@@V?$allocator@PAUFILEINFO@@@std@@@std@@QAEPAU_Node@?$_List_nod@PAUFILEINFO@@V?$allocator@PAUFILEINFO@@@std@@@2@PAU342@0ABQAUFILEINFO@@@Z 1003bf50 f   stdafx.obj
 0001:0003af50       __ehhandler$?_Buynode@?$_List_val@PAVCGameUserInfo@@V?$allocator@PAVCGameUserInfo@@@std@@@std@@QAEPAU_Node@?$_List_nod@PAVCGameUserInfo@@V?$allocator@PAVCGameUserInfo@@@std@@@2@PAU342@0ABQAVCGameUserInfo@@@Z 1003bf50 f   stdafx.obj
 0001:0003af70       __unwindfunclet$??__EUSER_STATESTRING@@YAXXZ$0 1003bf70 f   stdafx.obj
 0001:0003af7b       __unwindfunclet$??__EUSER_STATESTRING@@YAXXZ$1 1003bf7b f   stdafx.obj
 0001:0003af86       __unwindfunclet$??__EUSER_STATESTRING@@YAXXZ$2 1003bf86 f   stdafx.obj
 0001:0003af91       __unwindfunclet$??__EUSER_STATESTRING@@YAXXZ$3 1003bf91 f   stdafx.obj
 0001:0003af9c       __unwindfunclet$??__EUSER_STATESTRING@@YAXXZ$4 1003bf9c f   stdafx.obj
 0001:0003afa7       __unwindfunclet$??__EUSER_STATESTRING@@YAXXZ$5 1003bfa7 f   stdafx.obj
 0001:0003afb2       __unwindfunclet$??__EUSER_STATESTRING@@YAXXZ$6 1003bfb2 f   stdafx.obj
 0001:0003afbd       __ehhandler$??__EUSER_STATESTRING@@YAXXZ 1003bfbd f   stdafx.obj
 0001:0003aff0       __unwindfunclet$??__EERR_RP_STRING@@YAXXZ$0 1003bff0 f   stdafx.obj
 0001:0003affb       __unwindfunclet$??__EERR_RP_STRING@@YAXXZ$1 1003bffb f   stdafx.obj
 0001:0003b006       __unwindfunclet$??__EERR_RP_STRING@@YAXXZ$2 1003c006 f   stdafx.obj
 0001:0003b011       __unwindfunclet$??__EERR_RP_STRING@@YAXXZ$3 1003c011 f   stdafx.obj
 0001:0003b01c       __unwindfunclet$??__EERR_RP_STRING@@YAXXZ$4 1003c01c f   stdafx.obj
 0001:0003b027       __unwindfunclet$??__EERR_RP_STRING@@YAXXZ$5 1003c027 f   stdafx.obj
 0001:0003b032       __unwindfunclet$??__EERR_RP_STRING@@YAXXZ$6 1003c032 f   stdafx.obj
 0001:0003b03d       __unwindfunclet$??__EERR_RP_STRING@@YAXXZ$7 1003c03d f   stdafx.obj
 0001:0003b048       __unwindfunclet$??__EERR_RP_STRING@@YAXXZ$8 1003c048 f   stdafx.obj
 0001:0003b053       __unwindfunclet$??__EERR_RP_STRING@@YAXXZ$9 1003c053 f   stdafx.obj
 0001:0003b05e       __unwindfunclet$??__EERR_RP_STRING@@YAXXZ$10 1003c05e f   stdafx.obj
 0001:0003b069       __unwindfunclet$??__EERR_RP_STRING@@YAXXZ$11 1003c069 f   stdafx.obj
 0001:0003b074       __unwindfunclet$??__EERR_RP_STRING@@YAXXZ$12 1003c074 f   stdafx.obj
 0001:0003b07f       __unwindfunclet$??__EERR_RP_STRING@@YAXXZ$13 1003c07f f   stdafx.obj
 0001:0003b08a       __unwindfunclet$??__EERR_RP_STRING@@YAXXZ$14 1003c08a f   stdafx.obj
 0001:0003b095       __unwindfunclet$??__EERR_RP_STRING@@YAXXZ$15 1003c095 f   stdafx.obj
 0001:0003b0a0       __unwindfunclet$??__EERR_RP_STRING@@YAXXZ$16 1003c0a0 f   stdafx.obj
 0001:0003b0ab       __unwindfunclet$??__EERR_RP_STRING@@YAXXZ$17 1003c0ab f   stdafx.obj
 0001:0003b0b6       __unwindfunclet$??__EERR_RP_STRING@@YAXXZ$18 1003c0b6 f   stdafx.obj
 0001:0003b0c1       __unwindfunclet$??__EERR_RP_STRING@@YAXXZ$19 1003c0c1 f   stdafx.obj
 0001:0003b0cc       __ehhandler$??__EERR_RP_STRING@@YAXXZ 1003c0cc f   stdafx.obj
 0001:0003b0f0       __unwindfunclet$?ChangePoint@CGameUserInfo@@QAE_N_J0_N111JAA_J1@Z$0 1003c0f0 f   UserInfo.obj
 0001:0003b0f9       __ehhandler$?ChangePoint@CGameUserInfo@@QAE_N_J0_N111JAA_J1@Z 1003c0f9 f   UserInfo.obj
 0001:0003b120       __unwindfunclet$?GetWeigth@CGameUserInfo@@QAEHXZ$0 1003c120 f   UserInfo.obj
 0001:0003b129       __unwindfunclet$?GetWeigth@CGameUserInfo@@QAEHXZ$2 1003c129 f   UserInfo.obj
 0001:0003b132       __unwindfunclet$?GetWeigth@CGameUserInfo@@QAEHXZ$3 1003c132 f   UserInfo.obj
 0001:0003b13b       __ehhandler$?GetWeigth@CGameUserInfo@@QAEHXZ 1003c13b f   UserInfo.obj
 0001:0003b160       __unwindfunclet$??1CGameUserInfoManage@@QAE@XZ$0 1003c160 f   UserInfo.obj
 0001:0003b160       __unwindfunclet$??0CGameUserInfoManage@@QAE@XZ$0 1003c160 f   UserInfo.obj
 0001:0003b16b       __ehhandler$??0CGameUserInfoManage@@QAE@XZ 1003c16b f   UserInfo.obj
 0001:0003b16b       __ehhandler$??1CGameUserInfoManage@@QAE@XZ 1003c16b f   UserInfo.obj
 0001:0003b190       __unwindfunclet$??1?$CAFCPtrArray@VCGameUserInfo@@@@QAE@XZ$0 1003c190 f   UserInfo.obj
 0001:0003b19b       __ehhandler$??1?$CAFCPtrArray@VCGameUserInfo@@@@QAE@XZ 1003c19b f   UserInfo.obj
 0001:0003b1c0       __unwindfunclet$?Init@?$CAFCPtrArray@VCGameUserInfo@@@@QAE_NII@Z$2 1003c1c0 f   UserInfo.obj
 0001:0003b1cb       __ehhandler$?Init@?$CAFCPtrArray@VCGameUserInfo@@@@QAE_NII@Z 1003c1cb f   UserInfo.obj
 0001:0003b1f0       __ehhandler$?UnInit@?$CAFCPtrArray@VCGameUserInfo@@@@QAE_NXZ 1003c1f0 f   UserInfo.obj
 0001:0003b20b       __unwindfunclet$?AfxWndProcDllStatic@@YGJPAUHWND__@@IIJ@Z$0 1003c20b f   mfcs100:dllmodul.obj
 0001:0003b213       __ehhandler$?AfxWndProcDllStatic@@YGJPAUHWND__@@IIJ@Z 1003c213 f   mfcs100:dllmodul.obj
 0001:0003b22e       __unwindfunclet$_InternalDllMain@12$5 1003c22e f   mfcs100:dllmodul.obj
 0001:0003b237       __unwindfunclet$_InternalDllMain@12$6 1003c237 f   mfcs100:dllmodul.obj
 0001:0003b23f       __ehhandler$_InternalDllMain@12 1003c23f f   mfcs100:dllmodul.obj
 0001:0003b260       ??__EtheApp@@YAXXZ         1003c260 f   GameManage.obj
 0001:0003b290       ??__EUSER_STATESTRING@@YAXXZ 1003c290 f   stdafx.obj
 0001:0003b380       ??__EERR_RP_STRING@@YAXXZ  1003c380 f   stdafx.obj
 0001:0003b571       ??__EafxModuleState@@YAXXZ 1003c571 f   mfcs100:dllmodul.obj
 0001:0003b5a0       ??__FtheApp@@YAXXZ         1003c5a0 f   GameManage.obj
 0001:0003b5c0       ??__FUSER_STATESTRING@@YAXXZ 1003c5c0 f   stdafx.obj
 0001:0003b5f0       ??__FERR_RP_STRING@@YAXXZ  1003c5f0 f   stdafx.obj
 0001:0003b614       ??__FafxModuleState@@YAXXZ 1003c614 f   mfcs100:dllmodul.obj
