 GServer

 Timestamp is 5c7c88ce (Mon Mar 04 10:09:18 2019)

 Preferred load address is 00400000

 Start         Length     Name                   Class
 0001:00000000 0000f26cH .text                   CODE
 0001:0000f270 00000d18H .text$x                 CODE
 0001:0000ff90 00000202H .text$yc                CODE
 0001:000101a0 00000064H .text$yd                CODE
 0002:00000000 00000648H .idata$5                DATA
 0002:00000648 00000004H .CRT$XCA                DATA
 0002:0000064c 00000004H .CRT$XCAA               DATA
 0002:00000650 00000004H .CRT$XCL                DATA
 0002:00000654 00000020H .CRT$XCU                DATA
 0002:00000674 00000004H .CRT$XCZ                DATA
 0002:00000678 00000004H .CRT$XIA                DATA
 0002:0000067c 00000004H .CRT$XIAA               DATA
 0002:00000680 00000004H .CRT$XIY                DATA
 0002:00000684 00000004H .CRT$XIZ                DATA
 0002:00000690 000027d8H .rdata                  DATA
 0002:00002e68 00000059H .rdata$debug            DATA
 0002:00002ec4 00000a24H .rdata$r                DATA
 0002:000038f0 000000c8H .rdata$sxdata           DATA
 0002:000039b8 00000004H .rtc$IAA                DATA
 0002:000039bc 00000004H .rtc$IZZ                DATA
 0002:000039c0 00000004H .rtc$TAA                DATA
 0002:000039c4 00000004H .rtc$TZZ                DATA
 0002:000039c8 00000d1cH .xdata$x                DATA
 0002:000046e4 00000000H ATL$__a                 DATA
 0002:000046e4 00000000H ATL$__z                 DATA
 0002:000046e4 000000c8H .idata$2                DATA
 0002:000047ac 00000014H .idata$3                DATA
 0002:000047c0 00000648H .idata$4                DATA
 0002:00004e08 00000992H .idata$6                DATA
 0002:0000579a 00000000H .edata                  DATA
 0003:00000000 00000510H .data                   DATA
 0003:00000510 00000740H .bss                    DATA
 0004:00000000 00000550H .rsrc$01                DATA
 0004:00000550 000055a8H .rsrc$02                DATA

  Address         Publics by Value              Rva+Base       Lib:Object

 0000:00000000       __except_list              00000000     <absolute>
 0000:00000032       ___safe_se_handler_count   00000032     <absolute>
 0000:00009876       __ldused                   00009876     <absolute>
 0000:00009876       __fltused                  00009876     <absolute>
 0000:00000000       ___ImageBase               00400000     <linker-defined>
 0001:00000000       ??1StrPair@tinyxml2@@QAE@XZ 00401000 f   tinyxml2.obj
 0001:00000020       ?Reset@StrPair@tinyxml2@@AAEXXZ 00401020 f   tinyxml2.obj
 0001:00000080       ?SetStr@StrPair@tinyxml2@@QAEXPBDH@Z 00401080 f   tinyxml2.obj
 0001:00000100       ?ParseText@StrPair@tinyxml2@@QAEPADPADPBDH@Z 00401100 f   tinyxml2.obj
 0001:00000190       ?Set@StrPair@tinyxml2@@QAEXPAD0H@Z 00401190 f i tinyxml2.obj
 0001:000001d0       ?ParseName@StrPair@tinyxml2@@QAEPADPAD@Z 004011d0 f   tinyxml2.obj
 0001:00000270       ?IsNameStartChar@XMLUtil@tinyxml2@@SA_NE@Z 00401270 f i tinyxml2.obj
 0001:000002d0       ?IsNameChar@XMLUtil@tinyxml2@@SA_NE@Z 004012d0 f i tinyxml2.obj
 0001:00000330       ?CollapseWhitespace@StrPair@tinyxml2@@AAEXXZ 00401330 f   tinyxml2.obj
 0001:00000400       ?IsWhiteSpace@XMLUtil@tinyxml2@@SA_ND@Z 00401400 f i tinyxml2.obj
 0001:00000450       ?IsUTF8Continuation@XMLUtil@tinyxml2@@SAHD@Z 00401450 f i tinyxml2.obj
 0001:00000470       ?GetStr@StrPair@tinyxml2@@QAEPBDXZ 00401470 f   tinyxml2.obj
 0001:00000710       ?ReadBOM@XMLUtil@tinyxml2@@SAPBDPBDPA_N@Z 00401710 f   tinyxml2.obj
 0001:00000770       ?ConvertUTF32ToUTF8@XMLUtil@tinyxml2@@SAXKPADPAH@Z 00401770 f   tinyxml2.obj
 0001:00000900       ?GetCharacterRef@XMLUtil@tinyxml2@@SAPBDPBDPADPAH@Z 00401900 f   tinyxml2.obj
 0001:00000b30       ?StringEqual@XMLUtil@tinyxml2@@SA_NPBD0H@Z 00401b30 f i tinyxml2.obj
 0001:00000bc0       ?Identify@XMLDocument@tinyxml2@@QAEPADPADPAPAVXMLNode@2@@Z 00401bc0 f   tinyxml2.obj
 0001:00001050       ?SetCData@XMLText@tinyxml2@@QAEX_N@Z 00402050 f i tinyxml2.obj
 0001:00001070       ??0XMLText@tinyxml2@@IAE@PAVXMLDocument@1@@Z 00402070 f i tinyxml2.obj
 0001:000010b0       ??_GXMLText@tinyxml2@@MAEPAXI@Z 004020b0 f i tinyxml2.obj
 0001:000010b0       ??_EXMLText@tinyxml2@@MAEPAXI@Z 004020b0 f i tinyxml2.obj
 0001:000010f0       ??1XMLText@tinyxml2@@MAE@XZ 004020f0 f i tinyxml2.obj
 0001:00001120       ??2@YAPAXIPAX@Z            00402120 f i tinyxml2.obj
 0001:00001140       ??3@YAXPAX0@Z              00402140 f i tinyxml2.obj
 0001:00001150       ?Accept@XMLDocument@tinyxml2@@UBE_NPAVXMLVisitor@2@@Z 00402150 f   tinyxml2.obj
 0001:000011d0       ?FirstChild@XMLNode@tinyxml2@@QBEPBV12@XZ 004021d0 f i tinyxml2.obj
 0001:000011f0       ?NextSibling@XMLNode@tinyxml2@@QBEPBV12@XZ 004021f0 f i tinyxml2.obj
 0001:00001210       ??0XMLNode@tinyxml2@@IAE@PAVXMLDocument@1@@Z 00402210 f   tinyxml2.obj
 0001:00001290       ??0StrPair@tinyxml2@@QAE@XZ 00402290 f i tinyxml2.obj
 0001:000012d0       ?ToElement@XMLNode@tinyxml2@@UAEPAVXMLElement@2@XZ 004022d0 f i tinyxml2.obj
 0001:000012d0       ?ToUnknown@XMLNode@tinyxml2@@UBEPBVXMLUnknown@2@XZ 004022d0 f i tinyxml2.obj
 0001:000012d0       ?ToDocument@XMLNode@tinyxml2@@UBEPBVXMLDocument@2@XZ 004022d0 f i tinyxml2.obj
 0001:000012d0       ?ToDeclaration@XMLNode@tinyxml2@@UBEPBVXMLDeclaration@2@XZ 004022d0 f i tinyxml2.obj
 0001:000012d0       ?ToComment@XMLNode@tinyxml2@@UBEPBVXMLComment@2@XZ 004022d0 f i tinyxml2.obj
 0001:000012d0       ?ToDocument@XMLNode@tinyxml2@@UAEPAVXMLDocument@2@XZ 004022d0 f i tinyxml2.obj
 0001:000012d0       ?GetApplicationRecoveryParameter@CWinApp@@UAEPAXXZ 004022d0 f i AFCLoader.obj
 0001:000012d0       ?ToText@XMLNode@tinyxml2@@UAEPAVXMLText@2@XZ 004022d0 f i tinyxml2.obj
 0001:000012d0       ?ToUnknown@XMLNode@tinyxml2@@UAEPAVXMLUnknown@2@XZ 004022d0 f i tinyxml2.obj
 0001:000012d0       ?ToComment@XMLNode@tinyxml2@@UAEPAVXMLComment@2@XZ 004022d0 f i tinyxml2.obj
 0001:000012d0       ?ToDeclaration@XMLNode@tinyxml2@@UAEPAVXMLDeclaration@2@XZ 004022d0 f i tinyxml2.obj
 0001:000012d0       ?ToElement@XMLNode@tinyxml2@@UBEPBVXMLElement@2@XZ 004022d0 f i tinyxml2.obj
 0001:000012d0       ?GetApplicationRestartFlags@CWinApp@@UAEKXZ 004022d0 f i AFCLoader.obj
 0001:000012d0       ?ToText@XMLNode@tinyxml2@@UBEPBVXMLText@2@XZ 004022d0 f i tinyxml2.obj
 0001:000012f0       ??_GXMLNode@tinyxml2@@MAEPAXI@Z 004022f0 f i tinyxml2.obj
 0001:000012f0       ??_EXMLNode@tinyxml2@@MAEPAXI@Z 004022f0 f i tinyxml2.obj
 0001:00001330       ??1XMLNode@tinyxml2@@MAE@XZ 00402330 f   tinyxml2.obj
 0001:000013b0       ?Value@XMLNode@tinyxml2@@QBEPBDXZ 004023b0 f   tinyxml2.obj
 0001:000013d0       ?SetValue@XMLNode@tinyxml2@@QAEXPBD_N@Z 004023d0 f   tinyxml2.obj
 0001:00001410       ?SetInternedStr@StrPair@tinyxml2@@QAEXPBD@Z 00402410 f i tinyxml2.obj
 0001:00001440       ?DeleteChildren@XMLNode@tinyxml2@@QAEXXZ 00402440 f   tinyxml2.obj
 0001:000014c0       ?Unlink@XMLNode@tinyxml2@@AAEXPAV12@@Z 004024c0 f   tinyxml2.obj
 0001:00001550       ?InsertEndChild@XMLNode@tinyxml2@@QAEPAV12@PAV12@@Z 00402550 f   tinyxml2.obj
 0001:00001620       ?FirstChildElement@XMLNode@tinyxml2@@QBEPBVXMLElement@2@PBD@Z 00402620 f   tinyxml2.obj
 0001:000016a0       ?Name@XMLElement@tinyxml2@@QBEPBDXZ 004026a0 f i tinyxml2.obj
 0001:000016c0       ?NextSiblingElement@XMLNode@tinyxml2@@QBEPBVXMLElement@2@PBD@Z 004026c0 f   tinyxml2.obj
 0001:00001740       ?ParseDeep@XMLNode@tinyxml2@@UAEPADPADPAVStrPair@2@@Z 00402740 f   tinyxml2.obj
 0001:00001a60       ?Empty@StrPair@tinyxml2@@QBE_NXZ 00402a60 f i tinyxml2.obj
 0001:00001a90       ?ClosingType@XMLElement@tinyxml2@@QBEHXZ 00402a90 f i tinyxml2.obj
 0001:00001ab0       ?Error@XMLDocument@tinyxml2@@QBE_NXZ 00402ab0 f i tinyxml2.obj
 0001:00001ae0       ?ParseDeep@XMLText@tinyxml2@@UAEPADPADPAVStrPair@2@@Z 00402ae0 f   tinyxml2.obj
 0001:00001bd0       ?CData@XMLText@tinyxml2@@QBE_NXZ 00402bd0 f i tinyxml2.obj
 0001:00001bf0       ?ProcessEntities@XMLDocument@tinyxml2@@QBE_NXZ 00402bf0 f i tinyxml2.obj
 0001:00001c10       ?WhitespaceMode@XMLDocument@tinyxml2@@QBE?AW4Whitespace@2@XZ 00402c10 f i tinyxml2.obj
 0001:00001c30       ?ShallowClone@XMLText@tinyxml2@@UBEPAVXMLNode@2@PAVXMLDocument@2@@Z 00402c30 f   tinyxml2.obj
 0001:00001c80       ?ShallowEqual@XMLText@tinyxml2@@UBE_NPBVXMLNode@2@@Z 00402c80 f   tinyxml2.obj
 0001:00001cf0       ?Accept@XMLText@tinyxml2@@UBE_NPAVXMLVisitor@2@@Z 00402cf0 f   tinyxml2.obj
 0001:00001d20       ??0XMLComment@tinyxml2@@IAE@PAVXMLDocument@1@@Z 00402d20 f   tinyxml2.obj
 0001:00001d50       ??_GXMLComment@tinyxml2@@MAEPAXI@Z 00402d50 f i tinyxml2.obj
 0001:00001d50       ??_EXMLComment@tinyxml2@@MAEPAXI@Z 00402d50 f i tinyxml2.obj
 0001:00001d90       ??1XMLComment@tinyxml2@@MAE@XZ 00402d90 f   tinyxml2.obj
 0001:00001dc0       ?ParseDeep@XMLComment@tinyxml2@@UAEPADPADPAVStrPair@2@@Z 00402dc0 f   tinyxml2.obj
 0001:00001e10       ?ShallowClone@XMLComment@tinyxml2@@UBEPAVXMLNode@2@PAVXMLDocument@2@@Z 00402e10 f   tinyxml2.obj
 0001:00001e50       ?ShallowEqual@XMLComment@tinyxml2@@UBE_NPBVXMLNode@2@@Z 00402e50 f   tinyxml2.obj
 0001:00001ec0       ?Accept@XMLComment@tinyxml2@@UBE_NPAVXMLVisitor@2@@Z 00402ec0 f   tinyxml2.obj
 0001:00001ef0       ??0XMLDeclaration@tinyxml2@@IAE@PAVXMLDocument@1@@Z 00402ef0 f   tinyxml2.obj
 0001:00001f20       ??_GXMLDeclaration@tinyxml2@@MAEPAXI@Z 00402f20 f i tinyxml2.obj
 0001:00001f20       ??_EXMLDeclaration@tinyxml2@@MAEPAXI@Z 00402f20 f i tinyxml2.obj
 0001:00001f60       ??1XMLDeclaration@tinyxml2@@MAE@XZ 00402f60 f   tinyxml2.obj
 0001:00001f90       ?ParseDeep@XMLDeclaration@tinyxml2@@UAEPADPADPAVStrPair@2@@Z 00402f90 f   tinyxml2.obj
 0001:00001fe0       ?ShallowClone@XMLDeclaration@tinyxml2@@UBEPAVXMLNode@2@PAVXMLDocument@2@@Z 00402fe0 f   tinyxml2.obj
 0001:00002020       ?ShallowEqual@XMLDeclaration@tinyxml2@@UBE_NPBVXMLNode@2@@Z 00403020 f   tinyxml2.obj
 0001:00002090       ?Accept@XMLDeclaration@tinyxml2@@UBE_NPAVXMLVisitor@2@@Z 00403090 f   tinyxml2.obj
 0001:000020c0       ??0XMLUnknown@tinyxml2@@IAE@PAVXMLDocument@1@@Z 004030c0 f   tinyxml2.obj
 0001:000020f0       ??0ManageInfoStruct@@QAE@XZ 004030f0 f i ServiceManage.obj
 0001:000020f0       ?ToDocument@XMLDocument@tinyxml2@@UAEPAV12@XZ 004030f0 f i tinyxml2.obj
 0001:000020f0       ??0CObject@@IAE@XZ         004030f0 f i MainFrm.obj
 0001:000020f0       ?ToElement@XMLElement@tinyxml2@@UBEPBV12@XZ 004030f0 f i tinyxml2.obj
 0001:000020f0       ??0CGameSelecter@@QAE@XZ   004030f0 f i GameSelect.obj
 0001:000020f0       ?ToUnknown@XMLUnknown@tinyxml2@@UAEPAV12@XZ 004030f0 f i tinyxml2.obj
 0001:000020f0       ?ToComment@XMLComment@tinyxml2@@UBEPBV12@XZ 004030f0 f i tinyxml2.obj
 0001:000020f0       ?ToElement@XMLElement@tinyxml2@@UAEPAV12@XZ 004030f0 f i tinyxml2.obj
 0001:000020f0       ?ToComment@XMLComment@tinyxml2@@UAEPAV12@XZ 004030f0 f i tinyxml2.obj
 0001:000020f0       ?ToDeclaration@XMLDeclaration@tinyxml2@@UAEPAV12@XZ 004030f0 f i tinyxml2.obj
 0001:000020f0       ?ToDocument@XMLDocument@tinyxml2@@UBEPBV12@XZ 004030f0 f i tinyxml2.obj
 0001:000020f0       ?ToText@XMLText@tinyxml2@@UBEPBV12@XZ 004030f0 f i tinyxml2.obj
 0001:000020f0       ?ToText@XMLText@tinyxml2@@UAEPAV12@XZ 004030f0 f i tinyxml2.obj
 0001:000020f0       ?ToUnknown@XMLUnknown@tinyxml2@@UBEPBV12@XZ 004030f0 f i tinyxml2.obj
 0001:000020f0       ?ToDeclaration@XMLDeclaration@tinyxml2@@UBEPBV12@XZ 004030f0 f i tinyxml2.obj
 0001:00002110       ??_GXMLUnknown@tinyxml2@@MAEPAXI@Z 00403110 f i tinyxml2.obj
 0001:00002110       ??_EXMLUnknown@tinyxml2@@MAEPAXI@Z 00403110 f i tinyxml2.obj
 0001:00002150       ??1XMLUnknown@tinyxml2@@MAE@XZ 00403150 f   tinyxml2.obj
 0001:00002180       ?ParseDeep@XMLUnknown@tinyxml2@@UAEPADPADPAVStrPair@2@@Z 00403180 f   tinyxml2.obj
 0001:000021d0       ?ShallowClone@XMLUnknown@tinyxml2@@UBEPAVXMLNode@2@PAVXMLDocument@2@@Z 004031d0 f   tinyxml2.obj
 0001:00002210       ?ShallowEqual@XMLUnknown@tinyxml2@@UBE_NPBVXMLNode@2@@Z 00403210 f   tinyxml2.obj
 0001:00002280       ?Accept@XMLUnknown@tinyxml2@@UBE_NPAVXMLVisitor@2@@Z 00403280 f   tinyxml2.obj
 0001:000022b0       ?Name@XMLAttribute@tinyxml2@@QBEPBDXZ 004032b0 f   tinyxml2.obj
 0001:000022d0       ?Value@XMLAttribute@tinyxml2@@QBEPBDXZ 004032d0 f   tinyxml2.obj
 0001:000022f0       ?ParseDeep@XMLAttribute@tinyxml2@@AAEPADPAD_N@Z 004032f0 f   tinyxml2.obj
 0001:000023c0       ?SetName@XMLAttribute@tinyxml2@@AAEXPBD@Z 004033c0 f   tinyxml2.obj
 0001:000023f0       ?SetAttribute@XMLAttribute@tinyxml2@@QAEXPBD@Z 004033f0 f   tinyxml2.obj
 0001:00002420       ??0XMLElement@tinyxml2@@AAE@PAVXMLDocument@1@@Z 00403420 f   tinyxml2.obj
 0001:00002470       ??_GXMLElement@tinyxml2@@EAEPAXI@Z 00403470 f i tinyxml2.obj
 0001:00002470       ??_EXMLElement@tinyxml2@@EAEPAXI@Z 00403470 f i tinyxml2.obj
 0001:000024b0       ??1XMLElement@tinyxml2@@EAE@XZ 004034b0 f   tinyxml2.obj
 0001:00002570       ?FindAttribute@XMLElement@tinyxml2@@QBEPBVXMLAttribute@2@PBD@Z 00403570 f   tinyxml2.obj
 0001:000025d0       ?Attribute@XMLElement@tinyxml2@@QBEPBDPBD0@Z 004035d0 f   tinyxml2.obj
 0001:00002640       ?FindOrCreateAttribute@XMLElement@tinyxml2@@AAEPAVXMLAttribute@2@PBD@Z 00403640 f   tinyxml2.obj
 0001:000027a0       ??0XMLAttribute@tinyxml2@@AAE@XZ 004037a0 f i tinyxml2.obj
 0001:00002830       ??_GXMLAttribute@tinyxml2@@EAEPAXI@Z 00403830 f i tinyxml2.obj
 0001:00002830       ??_EXMLAttribute@tinyxml2@@EAEPAXI@Z 00403830 f i tinyxml2.obj
 0001:00002870       ??1XMLAttribute@tinyxml2@@EAE@XZ 00403870 f i tinyxml2.obj
 0001:000028e0       ?ParseAttributes@XMLElement@tinyxml2@@AAEPADPAD@Z 004038e0 f   tinyxml2.obj
 0001:00002b30       ?ParseDeep@XMLElement@tinyxml2@@UAEPADPADPAVStrPair@2@@Z 00403b30 f   tinyxml2.obj
 0001:00002bf0       ?ShallowClone@XMLElement@tinyxml2@@UBEPAVXMLNode@2@PAVXMLDocument@2@@Z 00403bf0 f   tinyxml2.obj
 0001:00002c70       ?Next@XMLAttribute@tinyxml2@@QBEPBV12@XZ 00403c70 f i tinyxml2.obj
 0001:00002c90       ?SetAttribute@XMLElement@tinyxml2@@QAEXPBD0@Z 00403c90 f i tinyxml2.obj
 0001:00002cc0       ?ShallowEqual@XMLElement@tinyxml2@@UBE_NPBVXMLNode@2@@Z 00403cc0 f   tinyxml2.obj
 0001:00002d90       ?Accept@XMLElement@tinyxml2@@UBE_NPAVXMLVisitor@2@@Z 00403d90 f   tinyxml2.obj
 0001:00002e10       ??0XMLDocument@tinyxml2@@QAE@_NW4Whitespace@1@@Z 00403e10 f   tinyxml2.obj
 0001:00002f00       ?ShallowClone@XMLDocument@tinyxml2@@UBEPAVXMLNode@2@PAV12@@Z 00403f00 f i tinyxml2.obj
 0001:00002f20       ?ShallowEqual@XMLDocument@tinyxml2@@UBE_NPBVXMLNode@2@@Z 00403f20 f i tinyxml2.obj
 0001:00002f40       ??_EXMLDocument@tinyxml2@@UAEPAXI@Z 00403f40 f i tinyxml2.obj
 0001:00002f40       ??_GXMLDocument@tinyxml2@@UAEPAXI@Z 00403f40 f i tinyxml2.obj
 0001:00002f80       ??1XMLDocument@tinyxml2@@UAE@XZ 00403f80 f   tinyxml2.obj
 0001:00003040       ?Clear@XMLDocument@tinyxml2@@QAEXXZ 00404040 f   tinyxml2.obj
 0001:000030a0       ?NewElement@XMLDocument@tinyxml2@@QAEPAVXMLElement@2@PBD@Z 004040a0 f   tinyxml2.obj
 0001:00003160       ?SetName@XMLElement@tinyxml2@@QAEXPBD_N@Z 00404160 f i tinyxml2.obj
 0001:00003190       ?NewComment@XMLDocument@tinyxml2@@QAEPAVXMLComment@2@PBD@Z 00404190 f   tinyxml2.obj
 0001:00003260       ?NewText@XMLDocument@tinyxml2@@QAEPAVXMLText@2@PBD@Z 00404260 f   tinyxml2.obj
 0001:00003330       ?NewDeclaration@XMLDocument@tinyxml2@@QAEPAVXMLDeclaration@2@PBD@Z 00404330 f   tinyxml2.obj
 0001:00003410       ?NewUnknown@XMLDocument@tinyxml2@@QAEPAVXMLUnknown@2@PBD@Z 00404410 f   tinyxml2.obj
 0001:000034e0       ?LoadFile@XMLDocument@tinyxml2@@QAE?AW4XMLError@2@PBD@Z 004044e0 f   tinyxml2.obj
 0001:00003560       ?LoadFile@XMLDocument@tinyxml2@@QAE?AW4XMLError@2@PAU_iobuf@@@Z 00404560 f   tinyxml2.obj
 0001:00003700       ?SkipWhiteSpace@XMLUtil@tinyxml2@@SAPADPAD@Z 00404700 f i tinyxml2.obj
 0001:00003700       ?SkipWhiteSpace@XMLUtil@tinyxml2@@SAPBDPBD@Z 00404700 f i tinyxml2.obj
 0001:00003750       ?SetError@XMLDocument@tinyxml2@@QAEXW4XMLError@2@PBD1@Z 00404750 f   tinyxml2.obj
 0001:00003780       ??0?$MemPoolT@$0DE@@tinyxml2@@QAE@XZ 00404780 f i tinyxml2.obj
 0001:00003820       ??0MemPool@tinyxml2@@QAE@XZ 00404820 f i tinyxml2.obj
 0001:00003840       ??1MemPool@tinyxml2@@UAE@XZ 00404840 f i tinyxml2.obj
 0001:00003860       ??_EMemPool@tinyxml2@@UAEPAXI@Z 00404860 f i tinyxml2.obj
 0001:00003860       ??_GMemPool@tinyxml2@@UAEPAXI@Z 00404860 f i tinyxml2.obj
 0001:000038a0       ??1?$MemPoolT@$0DE@@tinyxml2@@UAE@XZ 004048a0 f i tinyxml2.obj
 0001:00003950       ?ItemSize@?$MemPoolT@$0DE@@tinyxml2@@UBEHXZ 00404950 f i tinyxml2.obj
 0001:00003970       ?Alloc@?$MemPoolT@$0DE@@tinyxml2@@UAEPAXXZ 00404970 f i tinyxml2.obj
 0001:00003a90       ??0?$MemPoolT@$0CE@@tinyxml2@@QAE@XZ 00404a90 f i tinyxml2.obj
 0001:00003b30       ??1?$MemPoolT@$0CE@@tinyxml2@@UAE@XZ 00404b30 f i tinyxml2.obj
 0001:00003be0       ?ItemSize@?$MemPoolT@$0CE@@tinyxml2@@UBEHXZ 00404be0 f i tinyxml2.obj
 0001:00003c00       ?Alloc@?$MemPoolT@$0CE@@tinyxml2@@UAEPAXXZ 00404c00 f i tinyxml2.obj
 0001:00003d20       ??0?$MemPoolT@$0DA@@tinyxml2@@QAE@XZ 00404d20 f i tinyxml2.obj
 0001:00003dc0       ??1?$MemPoolT@$0DA@@tinyxml2@@UAE@XZ 00404dc0 f i tinyxml2.obj
 0001:00003e70       ?ItemSize@?$MemPoolT@$0DA@@tinyxml2@@UBEHXZ 00404e70 f i tinyxml2.obj
 0001:00003e90       ?Alloc@?$MemPoolT@$0DA@@tinyxml2@@UAEPAXXZ 00404e90 f i tinyxml2.obj
 0001:00003fb0       ?Free@?$MemPoolT@$0CM@@tinyxml2@@UAEXPAX@Z 00404fb0 f i tinyxml2.obj
 0001:00003fb0       ?Free@?$MemPoolT@$0DE@@tinyxml2@@UAEXPAX@Z 00404fb0 f i tinyxml2.obj
 0001:00003fb0       ?Free@?$MemPoolT@$0CE@@tinyxml2@@UAEXPAX@Z 00404fb0 f i tinyxml2.obj
 0001:00003fb0       ?Free@?$MemPoolT@$0DA@@tinyxml2@@UAEXPAX@Z 00404fb0 f i tinyxml2.obj
 0001:00004000       ?SetTracked@?$MemPoolT@$0CE@@tinyxml2@@UAEXXZ 00405000 f i tinyxml2.obj
 0001:00004000       ?SetTracked@?$MemPoolT@$0DA@@tinyxml2@@UAEXXZ 00405000 f i tinyxml2.obj
 0001:00004000       ?SetTracked@?$MemPoolT@$0DE@@tinyxml2@@UAEXXZ 00405000 f i tinyxml2.obj
 0001:00004000       ?SetTracked@?$MemPoolT@$0CM@@tinyxml2@@UAEXXZ 00405000 f i tinyxml2.obj
 0001:00004030       ??0?$MemPoolT@$0CM@@tinyxml2@@QAE@XZ 00405030 f i tinyxml2.obj
 0001:000040d0       ??1?$MemPoolT@$0CM@@tinyxml2@@UAE@XZ 004050d0 f i tinyxml2.obj
 0001:00004180       ?ItemSize@?$MemPoolT@$0CM@@tinyxml2@@UBEHXZ 00405180 f i tinyxml2.obj
 0001:000041a0       ?Alloc@?$MemPoolT@$0CM@@tinyxml2@@UAEPAXXZ 004051a0 f i tinyxml2.obj
 0001:000042c0       ??_E?$MemPoolT@$0DE@@tinyxml2@@UAEPAXI@Z 004052c0 f i tinyxml2.obj
 0001:000042c0       ??_G?$MemPoolT@$0DE@@tinyxml2@@UAEPAXI@Z 004052c0 f i tinyxml2.obj
 0001:00004300       ??_E?$MemPoolT@$0CE@@tinyxml2@@UAEPAXI@Z 00405300 f i tinyxml2.obj
 0001:00004300       ??_G?$MemPoolT@$0CE@@tinyxml2@@UAEPAXI@Z 00405300 f i tinyxml2.obj
 0001:00004340       ??_E?$MemPoolT@$0DA@@tinyxml2@@UAEPAXI@Z 00405340 f i tinyxml2.obj
 0001:00004340       ??_G?$MemPoolT@$0DA@@tinyxml2@@UAEPAXI@Z 00405340 f i tinyxml2.obj
 0001:00004380       ??_G?$MemPoolT@$0CM@@tinyxml2@@UAEPAXI@Z 00405380 f i tinyxml2.obj
 0001:00004380       ??_E?$MemPoolT@$0CM@@tinyxml2@@UAEPAXI@Z 00405380 f i tinyxml2.obj
 0001:000043c0       ?Push@?$DynArray@PAUBlock@?$MemPoolT@$0DA@@tinyxml2@@$09@tinyxml2@@QAEXPAUBlock@?$MemPoolT@$0DA@@2@@Z 004053c0 f i tinyxml2.obj
 0001:000043c0       ?Push@?$DynArray@PAUBlock@?$MemPoolT@$0CM@@tinyxml2@@$09@tinyxml2@@QAEXPAUBlock@?$MemPoolT@$0CM@@2@@Z 004053c0 f i tinyxml2.obj
 0001:000043c0       ?Push@?$DynArray@PAUBlock@?$MemPoolT@$0CE@@tinyxml2@@$09@tinyxml2@@QAEXPAUBlock@?$MemPoolT@$0CE@@2@@Z 004053c0 f i tinyxml2.obj
 0001:000043c0       ?Push@?$DynArray@PAUBlock@?$MemPoolT@$0DE@@tinyxml2@@$09@tinyxml2@@QAEXPAUBlock@?$MemPoolT@$0DE@@2@@Z 004053c0 f i tinyxml2.obj
 0001:00004410       ??A?$DynArray@PAUBlock@?$MemPoolT@$0CE@@tinyxml2@@$09@tinyxml2@@QAEAAPAUBlock@?$MemPoolT@$0CE@@1@H@Z 00405410 f i tinyxml2.obj
 0001:00004410       ??A?$DynArray@PAUBlock@?$MemPoolT@$0DA@@tinyxml2@@$09@tinyxml2@@QAEAAPAUBlock@?$MemPoolT@$0DA@@1@H@Z 00405410 f i tinyxml2.obj
 0001:00004410       ??A?$DynArray@PAUBlock@?$MemPoolT@$0DE@@tinyxml2@@$09@tinyxml2@@QAEAAPAUBlock@?$MemPoolT@$0DE@@1@H@Z 00405410 f i tinyxml2.obj
 0001:00004410       ??A?$DynArray@PAUBlock@?$MemPoolT@$0CM@@tinyxml2@@$09@tinyxml2@@QAEAAPAUBlock@?$MemPoolT@$0CM@@1@H@Z 00405410 f i tinyxml2.obj
 0001:00004430       ?Size@?$DynArray@PAUBlock@?$MemPoolT@$0DA@@tinyxml2@@$09@tinyxml2@@QBEHXZ 00405430 f i tinyxml2.obj
 0001:00004430       ?Size@?$DynArray@PAUBlock@?$MemPoolT@$0CE@@tinyxml2@@$09@tinyxml2@@QBEHXZ 00405430 f i tinyxml2.obj
 0001:00004430       ?Size@?$DynArray@PAUBlock@?$MemPoolT@$0CM@@tinyxml2@@$09@tinyxml2@@QBEHXZ 00405430 f i tinyxml2.obj
 0001:00004430       ?FirstAttribute@XMLElement@tinyxml2@@QBEPBVXMLAttribute@2@XZ 00405430 f i tinyxml2.obj
 0001:00004430       ?Size@?$DynArray@PAUBlock@?$MemPoolT@$0DE@@tinyxml2@@$09@tinyxml2@@QBEHXZ 00405430 f i tinyxml2.obj
 0001:00004450       ??0?$DynArray@PAUBlock@?$MemPoolT@$0DE@@tinyxml2@@$09@tinyxml2@@QAE@XZ 00405450 f i tinyxml2.obj
 0001:00004450       ??0?$DynArray@PAUBlock@?$MemPoolT@$0CM@@tinyxml2@@$09@tinyxml2@@QAE@XZ 00405450 f i tinyxml2.obj
 0001:00004450       ??0?$DynArray@PAUBlock@?$MemPoolT@$0DA@@tinyxml2@@$09@tinyxml2@@QAE@XZ 00405450 f i tinyxml2.obj
 0001:00004450       ??0?$DynArray@PAUBlock@?$MemPoolT@$0CE@@tinyxml2@@$09@tinyxml2@@QAE@XZ 00405450 f i tinyxml2.obj
 0001:00004490       ??1?$DynArray@PAUBlock@?$MemPoolT@$0DE@@tinyxml2@@$09@tinyxml2@@QAE@XZ 00405490 f i tinyxml2.obj
 0001:00004490       ??1?$DynArray@PAUBlock@?$MemPoolT@$0CM@@tinyxml2@@$09@tinyxml2@@QAE@XZ 00405490 f i tinyxml2.obj
 0001:00004490       ??1?$DynArray@PAUBlock@?$MemPoolT@$0DA@@tinyxml2@@$09@tinyxml2@@QAE@XZ 00405490 f i tinyxml2.obj
 0001:00004490       ??1?$DynArray@PAUBlock@?$MemPoolT@$0CE@@tinyxml2@@$09@tinyxml2@@QAE@XZ 00405490 f i tinyxml2.obj
 0001:000044d0       ?EnsureCapacity@?$DynArray@PAUBlock@?$MemPoolT@$0DE@@tinyxml2@@$09@tinyxml2@@AAEXH@Z 004054d0 f i tinyxml2.obj
 0001:000044d0       ?EnsureCapacity@?$DynArray@PAUBlock@?$MemPoolT@$0CM@@tinyxml2@@$09@tinyxml2@@AAEXH@Z 004054d0 f i tinyxml2.obj
 0001:000044d0       ?EnsureCapacity@?$DynArray@PAUBlock@?$MemPoolT@$0DA@@tinyxml2@@$09@tinyxml2@@AAEXH@Z 004054d0 f i tinyxml2.obj
 0001:000044d0       ?EnsureCapacity@?$DynArray@PAUBlock@?$MemPoolT@$0CE@@tinyxml2@@$09@tinyxml2@@AAEXH@Z 004054d0 f i tinyxml2.obj
 0001:00004570       ??3CObject@@SGXPAX@Z       00405570 f i AddRoomDialog.obj
 0001:00004590       ?DoDataExchange@CWnd@@MAEXPAVCDataExchange@@@Z 00405590 f i AddRoomDialog.obj
 0001:00004590       ?Serialize@CObject@@UAEXAAVCArchive@@@Z 00405590 f i AddRoomDialog.obj
 0001:00004590       ?Dump@CObject@@UBEXAAVCDumpContext@@@Z 00405590 f i AddRoomDialog.obj
 0001:000045b0       ?BeginModalState@CWnd@@UAEXXZ 004055b0 f i AddRoomDialog.obj
 0001:000045e0       ?EndModalState@CWnd@@UAEXXZ 004055e0 f i AddRoomDialog.obj
 0001:00004610       ?Create@CDialog@@UAEHIPAVCWnd@@@Z 00405610 f i AddRoomDialog.obj
 0001:00004640       ?GetMessageMap@CAFCLoaderApp@@MBEPBUAFX_MSGMAP@@XZ 00405640 f   AFCLoader.obj
 0001:00004660       ?GetThisMessageMap@CAFCLoaderApp@@KGPBUAFX_MSGMAP@@XZ 00405660 f   AFCLoader.obj
 0001:00004680       ?MyUnhandledExceptionFilter@@YGJPAU_EXCEPTION_POINTERS@@@Z 00405680 f   AFCLoader.obj
 0001:00004820       ?CreateMiniDump@@YAXPAU_EXCEPTION_POINTERS@@PBD@Z 00405820 f i AFCLoader.obj
 0001:000048c0       ?MiniDumpCallback@@YGHPAXQAU_MINIDUMP_CALLBACK_INPUT@@PAU_MINIDUMP_CALLBACK_OUTPUT@@@Z 004058c0 f i AFCLoader.obj
 0001:00004940       ?IsDataSectionNeeded@@YAHPB_W@Z 00405940 f i AFCLoader.obj
 0001:000049d0       ?DisableSetUnhandledExceptionFilter@@YAXXZ 004059d0 f   AFCLoader.obj
 0001:00004ac0       ?InitMinDump@@YAXXZ        00405ac0 f   AFCLoader.obj
 0001:00004ae0       ??0CAFCLoaderApp@@QAE@XZ   00405ae0 f   AFCLoader.obj
 0001:00004b10       ??_ECAFCLoaderApp@@UAEPAXI@Z 00405b10 f i AFCLoader.obj
 0001:00004b10       ??_GCAFCLoaderApp@@UAEPAXI@Z 00405b10 f i AFCLoader.obj
 0001:00004b50       ??1CAFCLoaderApp@@UAE@XZ   00405b50 f i AFCLoader.obj
 0001:00004b70       ?CheckBanBen@CAFCLoaderApp@@QAE_NXZ 00405b70 f   AFCLoader.obj
 0001:00004db0       ?InitInstance@CAFCLoaderApp@@UAEHXZ 00405db0 f   AFCLoader.obj
 0001:00004f70       ??0CTimeSpan@ATL@@QAE@XZ   00405f70 f i AFCLoader.obj
 0001:00004fa0       ?GetDays@CTimeSpan@ATL@@QBE_JXZ 00405fa0 f i AFCLoader.obj
 0001:00004fd0       ?GetTickCount@CTime@ATL@@SG?AV12@XZ 00405fd0 f i AFCLoader.obj
 0001:00005000       ??0CTime@ATL@@QAE@HHHHHHH@Z 00406000 f i AFCLoader.obj
 0001:00005240       ?AtlThrowImpl@ATL@@YGXJ@Z  00406240 f i AFCLoader.obj
 0001:00005270       ??GCTime@ATL@@QBE?AVCTimeSpan@1@V01@@Z 00406270 f i AFCLoader.obj
 0001:000052a0       ??0CTimeSpan@ATL@@QAE@_J@Z 004062a0 f i AFCLoader.obj
 0001:000052a0       ??0CTime@ATL@@QAE@_J@Z     004062a0 f i AFCLoader.obj
 0001:000052d0       ??OCTime@ATL@@QBE_NV01@@Z  004062d0 f i AFCLoader.obj
 0001:00005320       ?GetYear@CTime@ATL@@QBEHXZ 00406320 f i AFCLoader.obj
 0001:00005380       ?GetLocalTm@CTime@ATL@@QBEPAUtm@@PAU3@@Z 00406380 f i AFCLoader.obj
 0001:00005410       ?GetMonth@CTime@ATL@@QBEHXZ 00406410 f i AFCLoader.obj
 0001:00005470       ?GetDay@CTime@ATL@@QBEHXZ  00406470 f i AFCLoader.obj
 0001:000054d0       ?GetHour@CTime@ATL@@QBEHXZ 004064d0 f i AFCLoader.obj
 0001:00005530       ?GetMinute@CTime@ATL@@QBEHXZ 00406530 f i AFCLoader.obj
 0001:00005590       ?GetSecond@CTime@ATL@@QBEHXZ 00406590 f i AFCLoader.obj
 0001:000055e0       ??2CObject@@SGPAXI@Z       004065e0 f i AFCLoader.obj
 0001:00005600       ?SupportsRestartManager@CWinApp@@UBEHXZ 00406600 f i AFCLoader.obj
 0001:00005620       ?SupportsApplicationRecovery@CWinApp@@UBEHXZ 00406620 f i AFCLoader.obj
 0001:00005640       ?SupportsAutosaveAtRestart@CWinApp@@UBEHXZ 00406640 f i AFCLoader.obj
 0001:00005660       ?SupportsAutosaveAtInterval@CWinApp@@UBEHXZ 00406660 f i AFCLoader.obj
 0001:00005680       ?ReopenPreviousFilesAtRestart@CWinApp@@UBEHXZ 00406680 f i AFCLoader.obj
 0001:000056a0       ?RestoreAutosavedFilesAtRestart@CWinApp@@UBEHXZ 004066a0 f i AFCLoader.obj
 0001:000056c0       ?GetApplicationRecoveryPingInterval@CWinApp@@UAEKXZ 004066c0 f i AFCLoader.obj
 0001:000056e0       ?AfxGetInstanceHandle@@YGPAUHINSTANCE__@@XZ 004066e0 f i AFCLoader.obj
 0001:00005700       ?GetMessageMap@CChildView@@MBEPBUAFX_MSGMAP@@XZ 00406700 f   ChildView.obj
 0001:00005720       ?GetThisMessageMap@CChildView@@KGPBUAFX_MSGMAP@@XZ 00406720 f   ChildView.obj
 0001:00005740       ??0CChildView@@QAE@XZ      00406740 f   ChildView.obj
 0001:000057b0       ??_GCChildView@@UAEPAXI@Z  004067b0 f i ChildView.obj
 0001:000057b0       ??_ECChildView@@UAEPAXI@Z  004067b0 f i ChildView.obj
 0001:000057f0       ??1CChildView@@UAE@XZ      004067f0 f   ChildView.obj
 0001:00005860       ?PreCreateWindow@CChildView@@MAEHAAUtagCREATESTRUCTA@@@Z 00406860 f   ChildView.obj
 0001:000058e0       ?OnPaint@CChildView@@IAEXXZ 004068e0 f   ChildView.obj
 0001:00005920       ?OnCreate@CChildView@@IAEHPAUtagCREATESTRUCTA@@@Z 00406920 f   ChildView.obj
 0001:00005a30       ?OnSize@CChildView@@IAEXIHH@Z 00406a30 f   ChildView.obj
 0001:00005a80       ??0CRect@@QAE@HHHH@Z       00406a80 f i ChildView.obj
 0001:00005ac0       ?OnCreate@CWnd@@IAEHPAUtagCREATESTRUCTA@@@Z 00406ac0 f i ChildView.obj
 0001:00005ac0       ?OnTimer@CWnd@@IAEXI@Z     00406ac0 f i ServiceControl.obj
 0001:00005ae0       ?OnSize@CWnd@@IAEXIHH@Z    00406ae0 f i ChildView.obj
 0001:00005b00       ??0CStatic@@QAE@XZ         00406b00 f i ChildView.obj
 0001:00005b30       ??_ECStatic@@UAEPAXI@Z     00406b30 f i ChildView.obj
 0001:00005b30       ??_GCStatic@@UAEPAXI@Z     00406b30 f i ChildView.obj
 0001:00005b70       ?GameIsUsable@CGameSelecter@@QAEHI@Z 00406b70 f   GameSelect.obj
 0001:00005bc0       ?FreeGameIsUsable@CGameSelecter@@AAEHI@Z 00406bc0 f   GameSelect.obj
 0001:00005c40       ?PayGameIsUsable@CGameSelecter@@AAEHI@Z 00406c40 f   GameSelect.obj
 0001:00005cc0       ?GetNameIDFromFreeTable@CGameSelecter@@AAEII@Z 00406cc0 f   GameSelect.obj
 0001:00005e00       ?GetNameIDFromPayTable@CGameSelecter@@AAEII@Z 00406e00 f   GameSelect.obj
 0001:00005f40       ?Decode@CGameSelecter@@AAEEE@Z 00406f40 f   GameSelect.obj
 0001:00005f70       ?_GetBaseClass@CMainFrame@@KGPAUCRuntimeClass@@XZ 00406f70 f   MainFrm.obj
 0001:00005f90       ?GetRuntimeClass@CMainFrame@@UBEPAUCRuntimeClass@@XZ 00406f90 f   MainFrm.obj
 0001:00005fb0       ?GetMessageMap@CMainFrame@@MBEPBUAFX_MSGMAP@@XZ 00406fb0 f   MainFrm.obj
 0001:00005fd0       ?GetThisMessageMap@CMainFrame@@KGPBUAFX_MSGMAP@@XZ 00406fd0 f   MainFrm.obj
 0001:00005ff0       ??0CMainFrame@@QAE@XZ      00406ff0 f   MainFrm.obj
 0001:000060a0       ??_ECMainFrame@@UAEPAXI@Z  004070a0 f i MainFrm.obj
 0001:000060a0       ??_GCMainFrame@@UAEPAXI@Z  004070a0 f i MainFrm.obj
 0001:000060e0       ??0IMessageShow@@QAE@XZ    004070e0 f i MainFrm.obj
 0001:00006100       ??1CMainFrame@@UAE@XZ      00407100 f   MainFrm.obj
 0001:00006190       ?OnCreate@CMainFrame@@QAEHPAUtagCREATESTRUCTA@@@Z 00407190 f   MainFrm.obj
 0001:00006380       ?PreTranslateMessage@CMainFrame@@UAEHPAUtagMSG@@@Z 00407380 f   MainFrm.obj
 0001:00006470       ?PreCreateWindow@CMainFrame@@UAEHAAUtagCREATESTRUCTA@@@Z 00407470 f   MainFrm.obj
 0001:000064d0       ?OnSetFocus@CMainFrame@@QAEXPAVCWnd@@@Z 004074d0 f   MainFrm.obj
 0001:00006500       ?OnCmdMsg@CMainFrame@@UAEHIHPAXPAUAFX_CMDHANDLERINFO@@@Z 00407500 f   MainFrm.obj
 0001:00006560       ?OnMouseHover@CMainFrame@@QAEJIJ@Z 00407560 f   MainFrm.obj
 0001:00006580       ?OnMouseLeave@CMainFrame@@QAEJIJ@Z 00407580 f   MainFrm.obj
 0001:00006630       ?OnTrayIconNotify@CMainFrame@@QAEJIJ@Z 00407630 f   MainFrm.obj
 0001:000067c0       ?OnSize@CMainFrame@@QAEXIHH@Z 004077c0 f   MainFrm.obj
 0001:00006800       ?OnLogonSystem@CMainFrame@@QAEXXZ 00407800 f   MainFrm.obj
 0001:00006830       ?ShowMessage@CMainFrame@@UAE_NPBD@Z 00407830 f   MainFrm.obj
 0001:00006860       ?OnGetRoomList@CMainFrame@@QAEXXZ 00407860 f   MainFrm.obj
 0001:000068a0       ?OnCreateTray@CMainFrame@@QAEJIJ@Z 004078a0 f   MainFrm.obj
 0001:000068e0       ??0CPoint@@QAE@XZ          004078e0 f i MainFrm.obj
 0001:00006910       ?AfxGetApp@@YGPAVCWinApp@@XZ 00407910 f i MainFrm.obj
 0001:00006930       ?AfxGetMainWnd@@YGPAVCWnd@@XZ 00407930 f i MainFrm.obj
 0001:00006970       ??0CMenu@@QAE@XZ           00407970 f i MainFrm.obj
 0001:000069b0       ??_GCMenu@@UAEPAXI@Z       004079b0 f i MainFrm.obj
 0001:000069b0       ??_ECMenu@@UAEPAXI@Z       004079b0 f i MainFrm.obj
 0001:000069f0       ??1CMenu@@UAE@XZ           004079f0 f i MainFrm.obj
 0001:00006a60       ?GetSafeHmenu@CMenu@@QBEPAUHMENU__@@XZ 00407a60 f i MainFrm.obj
 0001:00006a90       ?EnableMenuItem@CMenu@@QAEIII@Z 00407a90 f i MainFrm.obj
 0001:00006ac0       ?GetSubMenu@CMenu@@QBEPAV1@H@Z 00407ac0 f i MainFrm.obj
 0001:00006af0       ?LoadMenuA@CMenu@@QAEHI@Z  00407af0 f i MainFrm.obj
 0001:00006b30       ?GetSafeHwnd@CWnd@@QBEPAUHWND__@@XZ 00407b30 f i MainFrm.obj
 0001:00006b60       ?PostMessageA@CWnd@@QAEHIIJ@Z 00407b60 f i MainFrm.obj
 0001:00006b90       ?SetForegroundWindow@CWnd@@QAEHXZ 00407b90 f i MainFrm.obj
 0001:00006bb0       ?SetIcon@CWnd@@QAEPAUHICON__@@PAU2@H@Z 00407bb0 f i MainFrm.obj
 0001:00006be0       ?LoadIconA@CWinApp@@QBEPAUHICON__@@I@Z 00407be0 f i MainFrm.obj
 0001:00006c10       ?OnBnClickedOk@RegKeyDlg@@QAEXXZ 00407c10 f   RegKeyDlg.obj
 0001:00006cc0       ?OnBnClickedCancel@RegKeyDlg@@QAEXXZ 00407cc0 f   RegKeyDlg.obj
 0001:00006cf0       ??0CEdit@@QAE@XZ           00407cf0 f i RegKeyDlg.obj
 0001:00006d20       ??_ECEdit@@UAEPAXI@Z       00407d20 f i RegKeyDlg.obj
 0001:00006d20       ??_GCEdit@@UAEPAXI@Z       00407d20 f i RegKeyDlg.obj
 0001:00006d60       ?GetMessageMap@CBaseDialog@@MBEPBUAFX_MSGMAP@@XZ 00407d60 f   ServiceControl.obj
 0001:00006d80       ?GetThisMessageMap@CBaseDialog@@KGPBUAFX_MSGMAP@@XZ 00407d80 f   ServiceControl.obj
 0001:00006da0       ?GetMessageMap@CServiceControl@@MBEPBUAFX_MSGMAP@@XZ 00407da0 f   ServiceControl.obj
 0001:00006dc0       ?GetThisMessageMap@CServiceControl@@KGPBUAFX_MSGMAP@@XZ 00407dc0 f   ServiceControl.obj
 0001:00006de0       ??0CBaseDialog@@QAE@IPAVCWnd@@@Z 00407de0 f   ServiceControl.obj
 0001:00006e20       ??_GCBaseDialog@@UAEPAXI@Z 00407e20 f i ServiceControl.obj
 0001:00006e20       ??_ECBaseDialog@@UAEPAXI@Z 00407e20 f i ServiceControl.obj
 0001:00006e60       ??1CBaseDialog@@UAE@XZ     00407e60 f   ServiceControl.obj
 0001:00006e90       ?SafeMoveWindow@CBaseDialog@@QAE_NIHHHH@Z 00407e90 f   ServiceControl.obj
 0001:00006f00       ??0CServiceControl@@QAE@XZ 00407f00 f   ServiceControl.obj
 0001:00006f90       ??_ECServiceControl@@UAEPAXI@Z 00407f90 f i ServiceControl.obj
 0001:00006f90       ??_GCServiceControl@@UAEPAXI@Z 00407f90 f i ServiceControl.obj
 0001:00006fd0       ??1CServiceControl@@UAE@XZ 00407fd0 f   ServiceControl.obj
 0001:00007050       ?DoDataExchange@CServiceControl@@UAEXPAVCDataExchange@@@Z 00408050 f   ServiceControl.obj
 0001:000070a0       ?OnInitDialog@CServiceControl@@UAEHXZ 004080a0 f   ServiceControl.obj
 0001:00007480       ?OnSize@CServiceControl@@QAEXIHH@Z 00408480 f   ServiceControl.obj
 0001:00007790       ?OnBnClickedStop@CServiceControl@@QAEXXZ 00408790 f   ServiceControl.obj
 0001:000078d0       ?GetLastErrorMsg@CServiceManage@@QAEQBDXZ 004088d0 f i ServiceControl.obj
 0001:000078f0       ?OnBnClickedStart@CServiceControl@@QAEXXZ 004088f0 f   ServiceControl.obj
 0001:00007bd0       ?OnBnClickedSetCom@CServiceControl@@QAEXXZ 00408bd0 f   ServiceControl.obj
 0001:00007d60       ?OnBnClickedReLoad@CServiceControl@@QAEXXZ 00408d60 f   ServiceControl.obj
 0001:00007d90       ?OnBnClickedUpdateCom@CServiceControl@@QAEXXZ 00408d90 f   ServiceControl.obj
 0001:00008080       ?OnBnClickedSetup@CServiceControl@@QAEXXZ 00409080 f   ServiceControl.obj
 0001:00008130       ?OnBnClickedMotif@CServiceControl@@QAEXXZ 00409130 f   ServiceControl.obj
 0001:000083d0       ?OnBnClickedRemove@CServiceControl@@QAEXXZ 004093d0 f   ServiceControl.obj
 0001:00008460       ?OnBnClickedStartAll@CServiceControl@@QAEXXZ 00409460 f   ServiceControl.obj
 0001:000086f0       ?OnBnClickedStopAll@CServiceControl@@QAEXXZ 004096f0 f   ServiceControl.obj
 0001:00008810       ?OnBnClickedDelete@CServiceControl@@QAEXXZ 00409810 f   ServiceControl.obj
 0001:000088d0       ??1CGameSelecter@@QAE@XZ   004098d0 f   GameSelect.obj
 0001:000088d0       ?OnBnClickedChange@CServiceControl@@QAEXXZ 004098d0 f   ServiceControl.obj
 0001:000088d0       ??1CObject@@UAE@XZ         004098d0 f   MainFrm.obj
 0001:000088d0       ?OnBnClickedInfo@CServiceControl@@QAEXXZ 004098d0 f   ServiceControl.obj
 0001:000088d0       ?OnBnClickedManage@CServiceControl@@QAEXXZ 004098d0 f   ServiceControl.obj
 0001:000088d0       ?AssertValid@CObject@@UBEXXZ 004098d0 f   AddRoomDialog.obj
 0001:000088f0       ?OnBnClickedReloadRoomlist@CServiceControl@@QAEXXZ 004098f0 f   ServiceControl.obj
 0001:00008920       ?OnTimer@CServiceControl@@QAEXI@Z 00409920 f   ServiceControl.obj
 0001:00008970       ?PreTranslateMessage@CServiceControl@@UAEHPAUtagMSG@@@Z 00409970 f   ServiceControl.obj
 0001:000089c0       ??HATL@@YA?AV?$CStringT@DV?$StrTraitMFC_DLL@DV?$ChTraitsCRT@D@ATL@@@@@0@PBDABV10@@Z 004099c0 f i ServiceControl.obj
 0001:00008a80       ??9ATL@@YA_NABV?$CStringT@DV?$StrTraitMFC_DLL@DV?$ChTraitsCRT@D@ATL@@@@@0@PBD@Z 00409a80 f i ServiceControl.obj
 0001:00008ab0       ?GetCount@CPtrArray@@QBEHXZ 00409ab0 f i ServiceManage.obj
 0001:00008ab0       ?GetSize@CPtrArray@@QBEHXZ 00409ab0 f i ServiceControl.obj
 0001:00008ad0       ?GetUpperBound@CPtrArray@@QBEHXZ 00409ad0 f i ServiceControl.obj
 0001:00008af0       ?GetAt@CPtrArray@@QBEPAXH@Z 00409af0 f i ServiceControl.obj
 0001:00008b30       ?SendMessageA@CWnd@@QBEJIIJ@Z 00409b30 f i ServiceControl.obj
 0001:00008b60       ??0CListCtrl@@QAE@XZ       00409b60 f i ServiceControl.obj
 0001:00008b90       ??_ECListCtrl@@UAEPAXI@Z   00409b90 f i ServiceControl.obj
 0001:00008b90       ??_GCListCtrl@@UAEPAXI@Z   00409b90 f i ServiceControl.obj
 0001:00008bd0       ?GetFirstSelectedItemPosition@CListCtrl@@QBEPAU__POSITION@@XZ 00409bd0 f i ServiceControl.obj
 0001:00008c00       ?GetNextItem@CListCtrl@@QBEHHH@Z 00409c00 f i ServiceControl.obj
 0001:00008c40       ?GetNextSelectedItem@CListCtrl@@QBEHAAPAU__POSITION@@@Z 00409c40 f i ServiceControl.obj
 0001:00008c80       ??0CServiceManage@@QAE@XZ  00409c80 f   ServiceManage.obj
 0001:00009140       ??_ECServiceManage@@UAEPAXI@Z 0040a140 f i ServiceManage.obj
 0001:00009140       ??_GCServiceManage@@UAEPAXI@Z 0040a140 f i ServiceManage.obj
 0001:00009180       ??0IClientSocketService@@QAE@XZ 0040a180 f i ServiceManage.obj
 0001:000091a0       ?LogonSystem@CServiceManage@@QAE_NPBD0@Z 0040a1a0 f   ServiceManage.obj
 0001:000091e0       ?StartAllGames@CServiceManage@@QAEXPAVCListCtrl@@@Z 0040a1e0 f   ServiceManage.obj
 0001:000094a0       ?bGetServiceInfo@CServiceManage@@QAE_NPAUSC_GameRoomInitStruct@@@Z 0040a4a0 f   ServiceManage.obj
 0001:00009690       ?StartGameRoom@CServiceManage@@QAE_NPAUSC_GameRoomInitStruct@@@Z 0040a690 f   ServiceManage.obj
 0001:00009840       ?UpdateServiceInfo@CServiceManage@@QAE_NPAVCListCtrl@@@Z 0040a840 f   ServiceManage.obj
 0001:00009880       ??0CServiceInfo@@QAE@XZ    0040a880 f   ServiceManage.obj
 0001:00009960       ??1CServiceInfo@@QAE@XZ    0040a960 f   ServiceManage.obj
 0001:00009980       ?LoadData@CServiceInfo@@QAE_NXZ 0040a980 f   ServiceManage.obj
 0001:00009b70       ?SaveData@CServiceInfo@@QAE_NXZ 0040ab70 f   ServiceManage.obj
 0001:00009c30       ?IsLogonSystem@CServiceInfo@@QAE_NXZ 0040ac30 f   ServiceManage.obj
 0001:00009c70       ?IsLockSystem@CServiceInfo@@QAE_NXZ 0040ac70 f   ServiceManage.obj
 0001:00009ca0       ??1CServiceManage@@UAE@XZ  0040aca0 f   ServiceManage.obj
 0001:00009f90       ?sqlAddConnection@CServiceManage@@QAE_NXZ 0040af90 f   ServiceManage.obj
 0001:0000a1d0       ?SetMessageInterface@CServiceManage@@QAE_NPAUIMessageShow@@@Z 0040b1d0 f   ServiceManage.obj
 0001:0000a200       ?UpdateComDLLList@CServiceManage@@QAE_NPAVCListCtrl@@@Z 0040b200 f   ServiceManage.obj
 0001:0000a760       ?Init@CServiceManage@@QAE_NXZ 0040b760 f   ServiceManage.obj
 0001:0000a780       ?StopGameRoom@CServiceManage@@QAE_NPAUSC_GameRoomInitStruct@@@Z 0040b780 f   ServiceManage.obj
 0001:0000a980       ?OnSocketReadEvent@CServiceManage@@MAE_NPAUNetMessageHead@@PAXIPAVCTCPClientSocket@@@Z 0040b980 f   ServiceManage.obj
 0001:0000ad70       ?OnSocketConnectEvent@CServiceManage@@MAE_NIPAVCTCPClientSocket@@@Z 0040bd70 f   ServiceManage.obj
 0001:0000adf0       ?OnSocketCloseEvent@CServiceManage@@MAE_NXZ 0040bdf0 f   ServiceManage.obj
 0001:0000ae70       ?SetupCom@CServiceManage@@QAE_NPAVCListCtrl@@USC_ServiceInfoStruct@@@Z 0040be70 f   ServiceManage.obj
 0001:0000b0e0       ?ModifCom@CServiceManage@@QAE_NPAVCListCtrl@@PAUSC_ServiceInfoStruct@@U3@@Z 0040c0e0 f   ServiceManage.obj
 0001:0000b3b0       ?CopyNewCom@CServiceManage@@QAE_NPAUSC_ServiceInfoStruct@@@Z 0040c3b0 f   ServiceManage.obj
 0001:0000b3e0       ?RemoveDLLCom@CServiceManage@@QAE_NPAVCListCtrl@@PAUSC_ServiceInfoStruct@@@Z 0040c3e0 f   ServiceManage.obj
 0001:0000b550       ?DeleteGameRoomInfo@CServiceManage@@QAE_NPAUSC_GameRoomInitStruct@@@Z 0040c550 f   ServiceManage.obj
 0001:0000b780       ?GetRoomListInfo@CServiceManage@@QAE_NXZ 0040c780 f   ServiceManage.obj
 0001:0000ca50       ??0SC_GameRoomInitStruct@@QAE@XZ 0040da50 f i ServiceManage.obj
 0001:0000ca80       ?UpdateRoomListInfo@CServiceManage@@QAE_NPAVCListCtrl@@@Z 0040da80 f   ServiceManage.obj
 0001:0000d090       ?CountOnLinePeople@CServiceManage@@QAEXPAVCListCtrl@@0@Z 0040e090 f   ServiceManage.obj
 0001:0000d3e0       ?GetRoomName@CServiceManage@@QAE?AV?$CStringT@DV?$StrTraitMFC_DLL@DV?$ChTraitsCRT@D@ATL@@@@@ATL@@XZ 0040e3e0 f   ServiceManage.obj
 0001:0000d4e0       ?ClearRoomTWRecode@CServiceManage@@QAEXH@Z 0040e4e0 f   ServiceManage.obj
 0001:0000d630       ??HATL@@YA?AV?$CStringT@DV?$StrTraitMFC_DLL@DV?$ChTraitsCRT@D@ATL@@@@@0@ABV10@0@Z 0040e630 f i ServiceManage.obj
 0001:0000d6f0       ??HATL@@YA?AV?$CStringT@DV?$StrTraitMFC_DLL@DV?$ChTraitsCRT@D@ATL@@@@@0@ABV10@PBD@Z 0040e6f0 f i ServiceManage.obj
 0001:0000d7b0       ??$strcpy_s@$0EA@@@YAHAAY0EA@DPBD@Z 0040e7b0 f i ServiceManage.obj
 0001:0000d7e0       ?GetTime@CTime@ATL@@QBE_JXZ 0040e7e0 f i ServiceManage.obj
 0001:0000d800       ?IsEmpty@CPtrArray@@QBEHXZ 0040e800 f i ServiceManage.obj
 0001:0000d830       ?RemoveAll@CPtrArray@@QAEXXZ 0040e830 f i ServiceManage.obj
 0001:0000d850       ?SetAt@CPtrArray@@QAEXHPAX@Z 0040e850 f i ServiceManage.obj
 0001:0000d890       ?Add@CPtrArray@@QAEHPAX@Z  0040e890 f i ServiceManage.obj
 0001:0000d8d0       ?GetItemCount@CListCtrl@@QBEHXZ 0040e8d0 f i ServiceManage.obj
 0001:0000d900       ?SetItemData@CListCtrl@@QAEHHK@Z 0040e900 f i ServiceManage.obj
 0001:0000d940       ?InsertItem@CListCtrl@@QAEHHPBD@Z 0040e940 f i ServiceManage.obj
 0001:0000d970       ?DeleteItem@CListCtrl@@QAEHH@Z 0040e970 f i ServiceManage.obj
 0001:0000d9a0       ?DeleteAllItems@CListCtrl@@QAEHXZ 0040e9a0 f i ServiceManage.obj
 0001:0000d9d0       ?FirstChildElement@XMLNode@tinyxml2@@QAEPAVXMLElement@2@PBD@Z 0040e9d0 f i ServiceManage.obj
 0001:0000da00       ??0DB_CREATE_PARAM@@QAE@XZ 0040ea00 f i ServiceManage.obj
 0001:0000da80       ?_GetBaseClass@CSetupDialog@@KGPAUCRuntimeClass@@XZ 0040ea80 f   SetupDialog.obj
 0001:0000daa0       ?GetRuntimeClass@CSetupDialog@@UBEPAUCRuntimeClass@@XZ 0040eaa0 f   SetupDialog.obj
 0001:0000dac0       ??0CSetupDialog@@QAE@PAVCWnd@@@Z 0040eac0 f   SetupDialog.obj
 0001:0000dc40       ??_ECSetupDialog@@UAEPAXI@Z 0040ec40 f i SetupDialog.obj
 0001:0000dc40       ??_GCSetupDialog@@UAEPAXI@Z 0040ec40 f i SetupDialog.obj
 0001:0000dc80       ??1CSetupDialog@@UAE@XZ    0040ec80 f   SetupDialog.obj
 0001:0000dd50       ?DoDataExchange@CSetupDialog@@MAEXPAVCDataExchange@@@Z 0040ed50 f   SetupDialog.obj
 0001:0000dea0       ?GetMessageMap@CSetupDialog@@MBEPBUAFX_MSGMAP@@XZ 0040eea0 f   SetupDialog.obj
 0001:0000dec0       ?GetThisMessageMap@CSetupDialog@@KGPBUAFX_MSGMAP@@XZ 0040eec0 f   SetupDialog.obj
 0001:0000dee0       ?Format@CTime@ATL@@QBE?AV?$CStringT@DV?$StrTraitMFC_DLL@DV?$ChTraitsCRT@D@ATL@@@@@2@PBD@Z 0040eee0 f i SetupDialog.obj
 0001:0000dfb0       ??0CTrayIcon@@QAE@I@Z      0040efb0 f   TrayIcon.obj
 0001:0000dff0       ??1CTrayIcon@@QAE@XZ       0040eff0 f   TrayIcon.obj
 0001:0000e020       ?SetNotifyWnd@CTrayIcon@@QAEXPAVCWnd@@I@Z 0040f020 f   TrayIcon.obj
 0001:0000e050       ?SetIcon@CTrayIcon@@QAEHPAUHICON__@@PBDH@Z 0040f050 f   TrayIcon.obj
 0001:0000e160       ?ShowBalloonTip@CTrayIcon@@QAEHPBD0IK@Z 0040f160 f   TrayIcon.obj
 0001:0000e1fa       ??_U@YAPAXI@Z              0040f1fa f   msvcprt:newaop_s.obj
 0001:0000e206       ??_V@YAXPAX@Z              0040f206 f   MSVCRT:MSVCR100.dll
 0001:0000e20c       _memcpy                    0040f20c f   MSVCRT:MSVCR100.dll
 0001:0000e212       _strlen                    0040f212 f   MSVCRT:MSVCR100.dll
 0001:0000e218       @__security_check_cookie@4 0040f218 f   MSVCRT:secchk.obj
 0001:0000e230       ___CxxFrameHandler3        0040f230 f   MSVCRT:MSVCR100.dll
 0001:0000e236       ??_Etype_info@@UAEPAXI@Z   0040f236 f i MSVCRT:ti_inst.obj
 0001:0000e282       ??3@YAXPAX@Z               0040f282 f   MSVCRT:MSVCR100.dll
 0001:0000e288       __purecall                 0040f288 f   MSVCRT:MSVCR100.dll
 0001:0000e28e       ??2@YAPAXI@Z               0040f28e f   MSVCRT:MSVCR100.dll
 0001:0000e294       _memset                    0040f294 f   MSVCRT:MSVCR100.dll
 0001:0000e2a0       __alldiv                   0040f2a0 f   MSVCRT:lldiv.obj
 0001:0000e34a       __onexit                   0040f34a f   MSVCRT:atonexit.obj
 0001:0000e3eb       _atexit                    0040f3eb f   MSVCRT:atonexit.obj
 0001:0000e402       _strcpy                    0040f402 f   MSVCRT:MSVCR100.dll
 0001:0000e408       _strcmp                    0040f408 f   MSVCRT:MSVCR100.dll
 0001:0000e40e       __CxxThrowException@8      0040f40e f   MSVCRT:MSVCR100.dll
 0001:0000e414       ?__ArrayUnwind@@YGXPAXIHP6EX0@Z@Z 0040f414 f   MSVCRT:ehvecdtr.obj
 0001:0000e472       ??_M@YGXPAXIHP6EX0@Z@Z     0040f472 f   MSVCRT:ehvecdtr.obj
 0001:0000e7b3       _WinMainCRTStartup         0040f7b3 f   MSVCRT:crtexew.obj
 0001:0000e7bd       ___report_gsfailure        0040f7bd f   MSVCRT:gs_report.obj
 0001:0000e8c4       __unlock                   0040f8c4 f   MSVCRT:MSVCR100.dll
 0001:0000e8ca       ___dllonexit               0040f8ca f   MSVCRT:MSVCR100.dll
 0001:0000e8d0       __lock                     0040f8d0 f   MSVCRT:MSVCR100.dll
 0001:0000e8e0       __SEH_prolog4              0040f8e0 f   MSVCRT:sehprolg4.obj
 0001:0000e925       __SEH_epilog4              0040f925 f   MSVCRT:sehprolg4.obj
 0001:0000e939       __except_handler4          0040f939 f   MSVCRT:chandler4gs.obj
 0001:0000e95e       ?terminate@@YAXXZ          0040f95e f   MSVCRT:MSVCR100.dll
 0001:0000e964       ?__CxxUnhandledExceptionFilter@@YGJPAU_EXCEPTION_POINTERS@@@Z 0040f964 f   MSVCRT:unhandld.obj
 0001:0000e9a6       ___CxxSetUnhandledExceptionFilter 0040f9a6 f   MSVCRT:unhandld.obj
 0001:0000e9b4       __amsg_exit                0040f9b4 f   MSVCRT:MSVCR100.dll
 0001:0000e9ba       __RTC_Initialize           0040f9ba f   MSVCRT:_initsect_.obj
 0001:0000e9e0       __RTC_Terminate            0040f9e0 f   MSVCRT:_initsect_.obj
 0001:0000ea06       __XcptFilter               0040fa06 f   MSVCRT:MSVCR100.dll
 0001:0000ea10       __ValidateImageBase        0040fa10 f   MSVCRT:pesect.obj
 0001:0000ea50       __FindPESection            0040fa50 f   MSVCRT:pesect.obj
 0001:0000eaa0       __IsNonwritableInCurrentImage 0040faa0 f   MSVCRT:pesect.obj
 0001:0000eb5c       __initterm                 0040fb5c f   MSVCRT:MSVCR100.dll
 0001:0000eb62       __initterm_e               0040fb62 f   MSVCRT:MSVCR100.dll
 0001:0000eb68       __setdefaultprecision      0040fb68 f   MSVCRT:fp8.obj
 0001:0000eb90       __matherr                  0040fb90 f   MSVCRT:merr.obj
 0001:0000eb90       __setargv                  0040fb90 f   MSVCRT:dllargv.obj
 0001:0000eb93       ___security_init_cookie    0040fb93 f   MSVCRT:gs_support.obj
 0001:0000ec2e       __crt_debugger_hook        0040fc2e f   MSVCRT:MSVCR100.dll
 0001:0000ec34       ??1type_info@@UAE@XZ       0040fc34 f   MSVCRT:MSVCR100.dll
 0001:0000ec34       ?_type_info_dtor_internal_method@type_info@@QAEXXZ 0040fc34 f   MSVCRT:MSVCR100.dll
 0001:0000ec3a       __except_handler4_common   0040fc3a f   MSVCRT:MSVCR100.dll
 0001:0000ec40       __invoke_watson            0040fc40 f   MSVCRT:MSVCR100.dll
 0001:0000ec46       __controlfp_s              0040fc46 f   MSVCRT:MSVCR100.dll
 0001:0000ec4c       ?GetThisMessageMap@CDialog@@KGPBUAFX_MSGMAP@@XZ 0040fc4c f   mfc100:mfc100.dll
 0001:0000ec52       ?GetThisClass@CDialog@@SGPAUCRuntimeClass@@XZ 0040fc52 f   mfc100:mfc100.dll
 0001:0000ec58       ??1CDialog@@UAE@XZ         0040fc58 f   mfc100:mfc100.dll
 0001:0000ec5e       ??0CDialog@@QAE@IPAVCWnd@@@Z 0040fc5e f   mfc100:mfc100.dll
 0001:0000ec64       ?OnCmdMsg@CDialog@@UAEHIHPAXPAUAFX_CMDHANDLERINFO@@@Z 0040fc64 f   mfc100:mfc100.dll
 0001:0000ec6a       ?IsInvokeAllowed@CCmdTarget@@UAEHJ@Z 0040fc6a f   mfc100:mfc100.dll
 0001:0000ec70       ?GetDispatchIID@CCmdTarget@@UAEHPAU_GUID@@@Z 0040fc70 f   mfc100:mfc100.dll
 0001:0000ec76       ?GetTypeInfoCount@CCmdTarget@@UAEIXZ 0040fc76 f   mfc100:mfc100.dll
 0001:0000ec7c       ?GetTypeLibCache@CCmdTarget@@UAEPAVCTypeLibCache@@XZ 0040fc7c f   mfc100:mfc100.dll
 0001:0000ec82       ?GetTypeLib@CCmdTarget@@UAEJKPAPAUITypeLib@@@Z 0040fc82 f   mfc100:mfc100.dll
 0001:0000ec88       ?GetCommandMap@CCmdTarget@@MBEPBUAFX_OLECMDMAP@@XZ 0040fc88 f   mfc100:mfc100.dll
 0001:0000ec8e       ?GetConnectionMap@CCmdTarget@@MBEPBUAFX_CONNECTIONMAP@@XZ 0040fc8e f   mfc100:mfc100.dll
 0001:0000ec94       ?GetEventSinkMap@CCmdTarget@@MBEPBUAFX_EVENTSINKMAP@@XZ 0040fc94 f   mfc100:mfc100.dll
 0001:0000ec9a       ?OnCreateAggregates@CCmdTarget@@UAEHXZ 0040fc9a f   mfc100:mfc100.dll
 0001:0000eca0       ?GetInterfaceHook@CCmdTarget@@UAEPAUIUnknown@@PBX@Z 0040fca0 f   mfc100:mfc100.dll
 0001:0000eca6       ?GetExtraConnectionPoints@CCmdTarget@@MAEHPAVCPtrArray@@@Z 0040fca6 f   mfc100:mfc100.dll
 0001:0000ecac       ?GetConnectionHook@CCmdTarget@@MAEPAUIConnectionPoint@@ABU_GUID@@@Z 0040fcac f   mfc100:mfc100.dll
 0001:0000ecb2       ?PreSubclassWindow@CWnd@@UAEXXZ 0040fcb2 f   mfc100:mfc100.dll
 0001:0000ecb8       ?Create@CWnd@@UAEHPBD0KABUtagRECT@@PAV1@IPAUCCreateContext@@@Z 0040fcb8 f   mfc100:mfc100.dll
 0001:0000ecbe       ?CreateEx@CWnd@@UAEHKPBD0KABUtagRECT@@PAV1@IPAX@Z 0040fcbe f   mfc100:mfc100.dll
 0001:0000ecc4       ?CreateEx@CWnd@@UAEHKPBD0KHHHHPAUHWND__@@PAUHMENU__@@PAX@Z 0040fcc4 f   mfc100:mfc100.dll
 0001:0000ecca       ?DestroyWindow@CWnd@@UAEHXZ 0040fcca f   mfc100:mfc100.dll
 0001:0000ecd0       ?PreCreateWindow@CWnd@@UAEHAAUtagCREATESTRUCTA@@@Z 0040fcd0 f   mfc100:mfc100.dll
 0001:0000ecd6       ?CalcWindowRect@CWnd@@UAEXPAUtagRECT@@I@Z 0040fcd6 f   mfc100:mfc100.dll
 0001:0000ecdc       ?GetMenu@CWnd@@UBEPAVCMenu@@XZ 0040fcdc f   mfc100:mfc100.dll
 0001:0000ece2       ?SetMenu@CWnd@@UAEHPAVCMenu@@@Z 0040fce2 f   mfc100:mfc100.dll
 0001:0000ece8       ?OnToolHitTest@CWnd@@UBEHVCPoint@@PAUtagTOOLINFOA@@@Z 0040fce8 f   mfc100:mfc100.dll
 0001:0000ecee       ?GetScrollBarCtrl@CWnd@@UBEPAVCScrollBar@@H@Z 0040fcee f   mfc100:mfc100.dll
 0001:0000ecf4       ?WinHelpA@CWnd@@UAEXKI@Z   0040fcf4 f   mfc100:mfc100.dll
 0001:0000ecfa       ?HtmlHelpA@CWnd@@UAEXKI@Z  0040fcfa f   mfc100:mfc100.dll
 0001:0000ed00       ?WinHelpInternal@CWnd@@UAEXKI@Z 0040fd00 f   mfc100:mfc100.dll
 0001:0000ed06       ?ContinueModal@CWnd@@UAEHXZ 0040fd06 f   mfc100:mfc100.dll
 0001:0000ed0c       ?EndModalLoop@CWnd@@UAEXH@Z 0040fd0c f   mfc100:mfc100.dll
 0001:0000ed12       ?OnDrawIconicThumbnailOrLivePreview@CWnd@@UAEXAAVCDC@@VCRect@@VCSize@@HAAH@Z 0040fd12 f   mfc100:mfc100.dll
 0001:0000ed18       ?EnsureStdObj@CWnd@@UAEJXZ 0040fd18 f   mfc100:mfc100.dll
 0001:0000ed1e       ?get_accParent@CWnd@@UAEJPAPAUIDispatch@@@Z 0040fd1e f   mfc100:mfc100.dll
 0001:0000ed24       ?get_accChildCount@CWnd@@UAEJPAJ@Z 0040fd24 f   mfc100:mfc100.dll
 0001:0000ed2a       ?get_accChild@CWnd@@UAEJUtagVARIANT@@PAPAUIDispatch@@@Z 0040fd2a f   mfc100:mfc100.dll
 0001:0000ed30       ?get_accName@CWnd@@UAEJUtagVARIANT@@PAPA_W@Z 0040fd30 f   mfc100:mfc100.dll
 0001:0000ed36       ?get_accValue@CWnd@@UAEJUtagVARIANT@@PAPA_W@Z 0040fd36 f   mfc100:mfc100.dll
 0001:0000ed3c       ?get_accDescription@CWnd@@UAEJUtagVARIANT@@PAPA_W@Z 0040fd3c f   mfc100:mfc100.dll
 0001:0000ed42       ?get_accRole@CWnd@@UAEJUtagVARIANT@@PAU2@@Z 0040fd42 f   mfc100:mfc100.dll
 0001:0000ed48       ?get_accState@CWnd@@UAEJUtagVARIANT@@PAU2@@Z 0040fd48 f   mfc100:mfc100.dll
 0001:0000ed4e       ?get_accHelp@CWnd@@UAEJUtagVARIANT@@PAPA_W@Z 0040fd4e f   mfc100:mfc100.dll
 0001:0000ed54       ?get_accHelpTopic@CWnd@@UAEJPAPA_WUtagVARIANT@@PAJ@Z 0040fd54 f   mfc100:mfc100.dll
 0001:0000ed5a       ?get_accKeyboardShortcut@CWnd@@UAEJUtagVARIANT@@PAPA_W@Z 0040fd5a f   mfc100:mfc100.dll
 0001:0000ed60       ?get_accFocus@CWnd@@UAEJPAUtagVARIANT@@@Z 0040fd60 f   mfc100:mfc100.dll
 0001:0000ed66       ?get_accSelection@CWnd@@UAEJPAUtagVARIANT@@@Z 0040fd66 f   mfc100:mfc100.dll
 0001:0000ed6c       ?get_accDefaultAction@CWnd@@UAEJUtagVARIANT@@PAPA_W@Z 0040fd6c f   mfc100:mfc100.dll
 0001:0000ed72       ?accSelect@CWnd@@UAEJJUtagVARIANT@@@Z 0040fd72 f   mfc100:mfc100.dll
 0001:0000ed78       ?accLocation@CWnd@@UAEJPAJ000UtagVARIANT@@@Z 0040fd78 f   mfc100:mfc100.dll
 0001:0000ed7e       ?accNavigate@CWnd@@UAEJJUtagVARIANT@@PAU2@@Z 0040fd7e f   mfc100:mfc100.dll
 0001:0000ed84       ?accHitTest@CWnd@@UAEJJJPAUtagVARIANT@@@Z 0040fd84 f   mfc100:mfc100.dll
 0001:0000ed8a       ?accDoDefaultAction@CWnd@@UAEJUtagVARIANT@@@Z 0040fd8a f   mfc100:mfc100.dll
 0001:0000ed90       ?put_accName@CWnd@@UAEJUtagVARIANT@@PA_W@Z 0040fd90 f   mfc100:mfc100.dll
 0001:0000ed96       ?put_accValue@CWnd@@UAEJUtagVARIANT@@PA_W@Z 0040fd96 f   mfc100:mfc100.dll
 0001:0000ed9c       ?SetProxy@CWnd@@UAEJPAUIAccessibleProxy@@@Z 0040fd9c f   mfc100:mfc100.dll
 0001:0000eda2       ?CreateAccessibleProxy@CWnd@@UAEJIJPAJ@Z 0040fda2 f   mfc100:mfc100.dll
 0001:0000eda8       ?OnCommand@CWnd@@MAEHIJ@Z  0040fda8 f   mfc100:mfc100.dll
 0001:0000edae       ?OnNotify@CWnd@@MAEHIJPAJ@Z 0040fdae f   mfc100:mfc100.dll
 0001:0000edb4       ?GetSuperWndProcAddr@CWnd@@MAEPAP6GJPAUHWND__@@IIJ@ZXZ 0040fdb4 f   mfc100:mfc100.dll
 0001:0000edba       ?PreTranslateMessage@CDialog@@UAEHPAUtagMSG@@@Z 0040fdba f   mfc100:mfc100.dll
 0001:0000edc0       ?OnAmbientProperty@CWnd@@UAEHPAVCOleControlSite@@JPAUtagVARIANT@@@Z 0040fdc0 f   mfc100:mfc100.dll
 0001:0000edc6       ?WindowProc@CWnd@@MAEJIIJ@Z 0040fdc6 f   mfc100:mfc100.dll
 0001:0000edcc       ?OnWndMsg@CWnd@@MAEHIIJPAJ@Z 0040fdcc f   mfc100:mfc100.dll
 0001:0000edd2       ?DefWindowProcA@CWnd@@MAEJIIJ@Z 0040fdd2 f   mfc100:mfc100.dll
 0001:0000edd8       ?PostNcDestroy@CWnd@@MAEXXZ 0040fdd8 f   mfc100:mfc100.dll
 0001:0000edde       ?OnChildNotify@CWnd@@MAEHIIJPAJ@Z 0040fdde f   mfc100:mfc100.dll
 0001:0000ede4       ?OnTouchInputs@CWnd@@MAEHIPAUtagTOUCHINPUT@@@Z 0040fde4 f   mfc100:mfc100.dll
 0001:0000edea       ?OnTouchInput@CWnd@@MAEHVCPoint@@HHPAUtagTOUCHINPUT@@@Z 0040fdea f   mfc100:mfc100.dll
 0001:0000edf0       ?GetGestureStatus@CWnd@@MAEKVCPoint@@@Z 0040fdf0 f   mfc100:mfc100.dll
 0001:0000edf6       ?OnGestureZoom@CWnd@@MAEHVCPoint@@J@Z 0040fdf6 f   mfc100:mfc100.dll
 0001:0000edfc       ?OnGesturePan@CWnd@@MAEHVCPoint@@0@Z 0040fdfc f   mfc100:mfc100.dll
 0001:0000ee02       ?OnGestureRotate@CWnd@@MAEHVCPoint@@N@Z 0040fe02 f   mfc100:mfc100.dll
 0001:0000ee08       ?OnGestureTwoFingerTap@CWnd@@MAEHVCPoint@@@Z 0040fe08 f   mfc100:mfc100.dll
 0001:0000ee0e       ?OnGesturePressAndTap@CWnd@@MAEHVCPoint@@J@Z 0040fe0e f   mfc100:mfc100.dll
 0001:0000ee14       ?CheckAutoCenter@CDialog@@UAEHXZ 0040fe14 f   mfc100:mfc100.dll
 0001:0000ee1a       ?IsFrameWnd@CWnd@@UBEHXZ   0040fe1a f   mfc100:mfc100.dll
 0001:0000ee20       ?CreateControlContainer@CWnd@@MAEHPAPAVCOleControlContainer@@@Z 0040fe20 f   mfc100:mfc100.dll
 0001:0000ee26       ?CreateControlSite@CWnd@@MAEHPAVCOleControlContainer@@PAPAVCOleControlSite@@IABU_GUID@@@Z 0040fe26 f   mfc100:mfc100.dll
 0001:0000ee2c       ?SetOccDialogInfo@CDialog@@MAEHPAU_AFX_OCC_DIALOG_INFO@@@Z 0040fe2c f   mfc100:mfc100.dll
 0001:0000ee32       ?GetOccDialogInfo@CDialog@@MAEPAU_AFX_OCC_DIALOG_INFO@@XZ 0040fe32 f   mfc100:mfc100.dll
 0001:0000ee38       ?Create@CDialog@@UAEHPBDPAVCWnd@@@Z 0040fe38 f   mfc100:mfc100.dll
 0001:0000ee3e       ?CreateIndirect@CDialog@@UAEHPAXPAVCWnd@@@Z 0040fe3e f   mfc100:mfc100.dll
 0001:0000ee44       ?CreateIndirect@CDialog@@UAEHPBUDLGTEMPLATE@@PAVCWnd@@PAX@Z 0040fe44 f   mfc100:mfc100.dll
 0001:0000ee4a       ?DoModal@CDialog@@UAEHXZ   0040fe4a f   mfc100:mfc100.dll
 0001:0000ee50       ?OnInitDialog@CDialog@@UAEHXZ 0040fe50 f   mfc100:mfc100.dll
 0001:0000ee56       ?OnSetFont@CDialog@@UAEXPAVCFont@@@Z 0040fe56 f   mfc100:mfc100.dll
 0001:0000ee5c       ?OnOK@CDialog@@MAEXXZ      0040fe5c f   mfc100:mfc100.dll
 0001:0000ee62       ?OnCancel@CDialog@@MAEXXZ  0040fe62 f   mfc100:mfc100.dll
 0001:0000ee68       ?PreInitDialog@CDialog@@MAEXXZ 0040fe68 f   mfc100:mfc100.dll
 0001:0000ee6e       ?OnFinalRelease@CWnd@@UAEXXZ 0040fe6e f   mfc100:mfc100.dll
 0001:0000ee74       ?DDV_MinMaxInt@@YGXPAVCDataExchange@@HHH@Z 0040fe74 f   mfc100:mfc100.dll
 0001:0000ee7a       ?DDX_Control@@YGXPAVCDataExchange@@HAAVCWnd@@@Z 0040fe7a f   mfc100:mfc100.dll
 0001:0000ee80       ?DDX_Text@@YGXPAVCDataExchange@@HAAV?$CStringT@DV?$StrTraitMFC_DLL@DV?$ChTraitsCRT@D@ATL@@@@@ATL@@@Z 0040fe80 f   mfc100:mfc100.dll
 0001:0000ee86       ??0CWnd@@QAE@XZ            0040fe86 f   mfc100:mfc100.dll
 0001:0000ee8c       ?OnCmdMsg@CCmdTarget@@UAEHIHPAXPAUAFX_CMDHANDLERINFO@@@Z 0040fe8c f   mfc100:mfc100.dll
 0001:0000ee92       ?GetMessageMap@CWnd@@MBEPBUAFX_MSGMAP@@XZ 0040fe92 f   mfc100:mfc100.dll
 0001:0000ee98       ?GetDispatchMap@CCmdTarget@@MBEPBUAFX_DISPMAP@@XZ 0040fe98 f   mfc100:mfc100.dll
 0001:0000ee9e       ?GetInterfaceMap@CWnd@@MBEPBUAFX_INTERFACEMAP@@XZ 0040fe9e f   mfc100:mfc100.dll
 0001:0000eea4       ?PreTranslateMessage@CWnd@@UAEHPAUtagMSG@@@Z 0040fea4 f   mfc100:mfc100.dll
 0001:0000eeaa       ?CheckAutoCenter@CWnd@@UAEHXZ 0040feaa f   mfc100:mfc100.dll
 0001:0000eeb0       ?SetOccDialogInfo@CWnd@@MAEHPAU_AFX_OCC_DIALOG_INFO@@@Z 0040feb0 f   mfc100:mfc100.dll
 0001:0000eeb6       ?GetOccDialogInfo@CWnd@@MAEPAU_AFX_OCC_DIALOG_INFO@@XZ 0040feb6 f   mfc100:mfc100.dll
 0001:0000eebc       ?GetThisMessageMap@CWinApp@@KGPBUAFX_MSGMAP@@XZ 0040febc f   mfc100:mfc100.dll
 0001:0000eec2       ?AfxMessageBox@@YGHPBDII@Z 0040fec2 f   mfc100:mfc100.dll
 0001:0000eec8       ??0CWinApp@@QAE@PBD@Z      0040fec8 f   mfc100:mfc100.dll
 0001:0000eece       ?GetRuntimeClass@CWinApp@@UBEPAUCRuntimeClass@@XZ 0040fece f   mfc100:mfc100.dll
 0001:0000eed4       ?OnFinalRelease@CCmdTarget@@UAEXXZ 0040fed4 f   mfc100:mfc100.dll
 0001:0000eeda       ?GetInterfaceMap@CCmdTarget@@MBEPBUAFX_INTERFACEMAP@@XZ 0040feda f   mfc100:mfc100.dll
 0001:0000eee0       ?Run@CWinApp@@UAEHXZ       0040fee0 f   mfc100:mfc100.dll
 0001:0000eee6       ?PreTranslateMessage@CWinThread@@UAEHPAUtagMSG@@@Z 0040fee6 f   mfc100:mfc100.dll
 0001:0000eeec       ?PumpMessage@CWinThread@@UAEHXZ 0040feec f   mfc100:mfc100.dll
 0001:0000eef2       ?OnIdle@CWinApp@@UAEHJ@Z   0040fef2 f   mfc100:mfc100.dll
 0001:0000eef8       ?IsIdleMessage@CWinThread@@UAEHPAUtagMSG@@@Z 0040fef8 f   mfc100:mfc100.dll
 0001:0000eefe       ?ExitInstance@CWinApp@@UAEHXZ 0040fefe f   mfc100:mfc100.dll
 0001:0000ef04       ?ProcessWndProcException@CWinApp@@UAEJPAVCException@@PBUtagMSG@@@Z 0040ff04 f   mfc100:mfc100.dll
 0001:0000ef0a       ?ProcessMessageFilter@CWinThread@@UAEHHPAUtagMSG@@@Z 0040ff0a f   mfc100:mfc100.dll
 0001:0000ef10       ?GetMainWnd@CWinThread@@UAEPAVCWnd@@XZ 0040ff10 f   mfc100:mfc100.dll
 0001:0000ef16       ?Delete@CWinThread@@UAEXXZ 0040ff16 f   mfc100:mfc100.dll
 0001:0000ef1c       ?GetProfileIntA@CWinApp@@UAEIPBD0H@Z 0040ff1c f   mfc100:mfc100.dll
 0001:0000ef22       ?WriteProfileInt@CWinApp@@UAEHPBD0H@Z 0040ff22 f   mfc100:mfc100.dll
 0001:0000ef28       ?GetProfileStringA@CWinApp@@UAE?AV?$CStringT@DV?$StrTraitMFC_DLL@DV?$ChTraitsCRT@D@ATL@@@@@ATL@@PBD00@Z 0040ff28 f   mfc100:mfc100.dll
 0001:0000ef2e       ?WriteProfileStringA@CWinApp@@UAEHPBD00@Z 0040ff2e f   mfc100:mfc100.dll
 0001:0000ef34       ?GetProfileBinary@CWinApp@@UAEHPBD0PAPAEPAI@Z 0040ff34 f   mfc100:mfc100.dll
 0001:0000ef3a       ?WriteProfileBinary@CWinApp@@UAEHPBD0PAEI@Z 0040ff3a f   mfc100:mfc100.dll
 0001:0000ef40       ?InitLibId@CWinApp@@UAEXXZ 0040ff40 f   mfc100:mfc100.dll
 0001:0000ef46       ?Register@CWinApp@@UAEHXZ  0040ff46 f   mfc100:mfc100.dll
 0001:0000ef4c       ?Unregister@CWinApp@@UAEHXZ 0040ff4c f   mfc100:mfc100.dll
 0001:0000ef52       ?OpenDocumentFile@CWinApp@@UAEPAVCDocument@@PBDH@Z 0040ff52 f   mfc100:mfc100.dll
 0001:0000ef58       ?OpenDocumentFile@CWinApp@@UAEPAVCDocument@@PBD@Z 0040ff58 f   mfc100:mfc100.dll
 0001:0000ef5e       ?AddToRecentFileList@CWinApp@@UAEXPBD@Z 0040ff5e f   mfc100:mfc100.dll
 0001:0000ef64       ?InitApplication@CWinApp@@UAEHXZ 0040ff64 f   mfc100:mfc100.dll
 0001:0000ef6a       ?SaveAllModified@CWinApp@@UAEHXZ 0040ff6a f   mfc100:mfc100.dll
 0001:0000ef70       ?DoMessageBox@CWinApp@@UAEHPBDII@Z 0040ff70 f   mfc100:mfc100.dll
 0001:0000ef76       ?DoWaitCursor@CWinApp@@UAEXH@Z 0040ff76 f   mfc100:mfc100.dll
 0001:0000ef7c       ?OnDDECommand@CWinApp@@UAEHPAD@Z 0040ff7c f   mfc100:mfc100.dll
 0001:0000ef82       ?WinHelpA@CWinApp@@UAEXKI@Z 0040ff82 f   mfc100:mfc100.dll
 0001:0000ef88       ?HtmlHelpA@CWinApp@@UAEXKI@Z 0040ff88 f   mfc100:mfc100.dll
 0001:0000ef8e       ?WinHelpInternal@CWinApp@@UAEXKI@Z 0040ff8e f   mfc100:mfc100.dll
 0001:0000ef94       ?RegisterWithRestartManager@CWinApp@@UAEJPB_WKP6GKPAX@Z1KK@Z 0040ff94 f   mfc100:mfc100.dll
 0001:0000ef9a       ?RegisterWithRestartManager@CWinApp@@UAEJHABV?$CStringT@DV?$StrTraitMFC_DLL@DV?$ChTraitsCRT@D@ATL@@@@@ATL@@@Z 0040ff9a f   mfc100:mfc100.dll
 0001:0000efa0       ?ApplicationRecoveryCallback@CWinApp@@UAEKPAX@Z 0040ffa0 f   mfc100:mfc100.dll
 0001:0000efa6       ?GetDataRecoveryHandler@CWinApp@@UAEPAVCDataRecoveryHandler@@XZ 0040ffa6 f   mfc100:mfc100.dll
 0001:0000efac       ?IsTaskbarInteractionEnabled@CWinApp@@UAEHXZ 0040ffac f   mfc100:mfc100.dll
 0001:0000efb2       ?RestartInstance@CWinApp@@UAEHXZ 0040ffb2 f   mfc100:mfc100.dll
 0001:0000efb8       ?LoadAppLangResourceDLL@CWinApp@@UAEPAUHINSTANCE__@@XZ 0040ffb8 f   mfc100:mfc100.dll
 0001:0000efbe       ?LoadSysPolicies@CWinApp@@UAEHXZ 0040ffbe f   mfc100:mfc100.dll
 0001:0000efc4       ??1CWinApp@@UAE@XZ         0040ffc4 f   mfc100:mfc100.dll
 0001:0000efca       ?SetRegistryKey@CWinApp@@IAEXPBD@Z 0040ffca f   mfc100:mfc100.dll
 0001:0000efd0       ?AfxEnableControlContainer@@YAXPAVCOccManager@@@Z 0040ffd0 f   mfc100:mfc100.dll
 0001:0000efd6       ?AfxOleInit@@YGHXZ         0040ffd6 f   mfc100:mfc100.dll
 0001:0000efdc       ?InitInstance@CWinApp@@UAEHXZ 0040ffdc f   mfc100:mfc100.dll
 0001:0000efe2       ?AfxThrowOleException@@YGXJ@Z 0040ffe2 f   mfc100:mfc100.dll
 0001:0000efe8       ?AfxThrowMemoryException@@YGXXZ 0040ffe8 f   mfc100:mfc100.dll
 0001:0000efee       ?AfxGetModuleState@@YGPAVAFX_MODULE_STATE@@XZ 0040ffee f   mfc100:mfc100.dll
 0001:0000eff4       ?GetThisMessageMap@CWnd@@KGPBUAFX_MSGMAP@@XZ 0040fff4 f   mfc100:mfc100.dll
 0001:0000effa       ??1CWnd@@UAE@XZ            0040fffa f   mfc100:mfc100.dll
 0001:0000f000       ?GetRuntimeClass@CWnd@@UBEPAUCRuntimeClass@@XZ 00410000 f   mfc100:mfc100.dll
 0001:0000f006       ?AfxRegisterWndClass@@YGPBDIPAUHICON__@@PAUHBRUSH__@@0@Z 00410006 f   mfc100:mfc100.dll
 0001:0000f00c       ??1CPaintDC@@UAE@XZ        0041000c f   mfc100:mfc100.dll
 0001:0000f012       ??0CPaintDC@@QAE@PAVCWnd@@@Z 00410012 f   mfc100:mfc100.dll
 0001:0000f018       ?ShowWindow@CWnd@@QAEHH@Z  00410018 f   mfc100:mfc100.dll
 0001:0000f01e       ?MoveWindow@CWnd@@QAEXHHHHH@Z 0041001e f   mfc100:mfc100.dll
 0001:0000f024       ?Default@CWnd@@IAEJXZ      00410024 f   mfc100:mfc100.dll
 0001:0000f02a       ?GetRuntimeClass@CStatic@@UBEPAUCRuntimeClass@@XZ 0041002a f   mfc100:mfc100.dll
 0001:0000f030       ?OnChildNotify@CStatic@@MAEHIIJPAJ@Z 00410030 f   mfc100:mfc100.dll
 0001:0000f036       ?Create@CStatic@@UAEHPBDKABUtagRECT@@PAVCWnd@@I@Z 00410036 f   mfc100:mfc100.dll
 0001:0000f03c       ?DrawItem@CStatic@@UAEXPAUtagDRAWITEMSTRUCT@@@Z 0041003c f   mfc100:mfc100.dll
 0001:0000f042       ??1CStatic@@UAE@XZ         00410042 f   mfc100:mfc100.dll
 0001:0000f048       ?GetThisMessageMap@CFrameWnd@@KGPBUAFX_MSGMAP@@XZ 00410048 f   mfc100:mfc100.dll
 0001:0000f04e       ?GetThisClass@CFrameWnd@@SGPAUCRuntimeClass@@XZ 0041004e f   mfc100:mfc100.dll
 0001:0000f054       ??1CFrameWnd@@UAE@XZ       00410054 f   mfc100:mfc100.dll
 0001:0000f05a       ??0CFrameWnd@@QAE@XZ       0041005a f   mfc100:mfc100.dll
 0001:0000f060       ?GetMenu@CFrameWnd@@UBEPAVCMenu@@XZ 00410060 f   mfc100:mfc100.dll
 0001:0000f066       ?SetMenu@CFrameWnd@@UAEHPAVCMenu@@@Z 00410066 f   mfc100:mfc100.dll
 0001:0000f06c       ?OnCommand@CFrameWnd@@MAEHIJ@Z 0041006c f   mfc100:mfc100.dll
 0001:0000f072       ?BeginModalState@CFrameWnd@@UAEXXZ 00410072 f   mfc100:mfc100.dll
 0001:0000f078       ?EndModalState@CFrameWnd@@UAEXXZ 00410078 f   mfc100:mfc100.dll
 0001:0000f07e       ?PostNcDestroy@CFrameWnd@@MAEXXZ 0041007e f   mfc100:mfc100.dll
 0001:0000f084       ?IsFrameWnd@CFrameWnd@@UBEHXZ 00410084 f   mfc100:mfc100.dll
 0001:0000f08a       ?Create@CFrameWnd@@UAEHPBD0KABUtagRECT@@PAVCWnd@@0KPAUCCreateContext@@@Z 0041008a f   mfc100:mfc100.dll
 0001:0000f090       ?LoadFrame@CFrameWnd@@UAEHIKPAVCWnd@@PAUCCreateContext@@@Z 00410090 f   mfc100:mfc100.dll
 0001:0000f096       ?GetActiveDocument@CFrameWnd@@UAEPAVCDocument@@XZ 00410096 f   mfc100:mfc100.dll
 0001:0000f09c       ?GetActiveFrame@CFrameWnd@@UAEPAV1@XZ 0041009c f   mfc100:mfc100.dll
 0001:0000f0a2       ?GetMessageString@CFrameWnd@@UBEXIAAV?$CStringT@DV?$StrTraitMFC_DLL@DV?$ChTraitsCRT@D@ATL@@@@@ATL@@@Z 004100a2 f   mfc100:mfc100.dll
 0001:0000f0a8       ?RecalcLayout@CFrameWnd@@UAEXH@Z 004100a8 f   mfc100:mfc100.dll
 0001:0000f0ae       ?ActivateFrame@CFrameWnd@@UAEXH@Z 004100ae f   mfc100:mfc100.dll
 0001:0000f0b4       ?SetMenuBarVisibility@CFrameWnd@@UAEXK@Z 004100b4 f   mfc100:mfc100.dll
 0001:0000f0ba       ?GetMenuBarVisibility@CFrameWnd@@UBEKXZ 004100ba f   mfc100:mfc100.dll
 0001:0000f0c0       ?SetMenuBarState@CFrameWnd@@UAEHK@Z 004100c0 f   mfc100:mfc100.dll
 0001:0000f0c6       ?GetMenuBarState@CFrameWnd@@UBEKXZ 004100c6 f   mfc100:mfc100.dll
 0001:0000f0cc       ?OnSetPreviewMode@CFrameWnd@@UAEXHPAUCPrintPreviewState@@@Z 004100cc f   mfc100:mfc100.dll
 0001:0000f0d2       ?GetMessageBar@CFrameWnd@@UAEPAVCWnd@@XZ 004100d2 f   mfc100:mfc100.dll
 0001:0000f0d8       ?NegotiateBorderSpace@CFrameWnd@@UAEHIPAUtagRECT@@@Z 004100d8 f   mfc100:mfc100.dll
 0001:0000f0de       ?OnCreateClient@CFrameWnd@@MAEHPAUtagCREATESTRUCTA@@PAUCCreateContext@@@Z 004100de f   mfc100:mfc100.dll
 0001:0000f0e4       ?OnUpdateFrameTitle@CFrameWnd@@UAEXH@Z 004100e4 f   mfc100:mfc100.dll
 0001:0000f0ea       ?OnUpdateFrameMenu@CFrameWnd@@UAEXPAUHMENU__@@@Z 004100ea f   mfc100:mfc100.dll
 0001:0000f0f0       ?GetDefaultAccelerator@CFrameWnd@@UAEPAUHACCEL__@@XZ 004100f0 f   mfc100:mfc100.dll
 0001:0000f0f6       ?DelayUpdateFrameMenu@CFrameWnd@@UAEXPAUHMENU__@@@Z 004100f6 f   mfc100:mfc100.dll
 0001:0000f0fc       ?ExitHelpMode@CFrameWnd@@UAEXXZ 004100fc f   mfc100:mfc100.dll
 0001:0000f102       ?OnShowMenuBar@CFrameWnd@@MAEXXZ 00410102 f   mfc100:mfc100.dll
 0001:0000f108       ?OnHideMenuBar@CFrameWnd@@MAEXXZ 00410108 f   mfc100:mfc100.dll
 0001:0000f10e       ?SetWindowTextA@CWnd@@QAEXPBD@Z 0041010e f   mfc100:mfc100.dll
 0001:0000f114       ?GetWindowTextA@CWnd@@QBEXAAV?$CStringT@DV?$StrTraitMFC_DLL@DV?$ChTraitsCRT@D@ATL@@@@@ATL@@@Z 00410114 f   mfc100:mfc100.dll
 0001:0000f11a       ?CenterWindow@CWnd@@QAEXPAV1@@Z 0041011a f   mfc100:mfc100.dll
 0001:0000f120       ?OnCreate@CFrameWnd@@IAEHPAUtagCREATESTRUCTA@@@Z 00410120 f   mfc100:mfc100.dll
 0001:0000f126       ?PreTranslateMessage@CFrameWnd@@UAEHPAUtagMSG@@@Z 00410126 f   mfc100:mfc100.dll
 0001:0000f12c       ?PreCreateWindow@CFrameWnd@@MAEHAAUtagCREATESTRUCTA@@@Z 0041012c f   mfc100:mfc100.dll
 0001:0000f132       ?SetFocus@CWnd@@QAEPAV1@XZ 00410132 f   mfc100:mfc100.dll
 0001:0000f138       ?OnCmdMsg@CFrameWnd@@UAEHIHPAXPAUAFX_CMDHANDLERINFO@@@Z 00410138 f   mfc100:mfc100.dll
 0001:0000f13e       ?OnSize@CFrameWnd@@IAEXIHH@Z 0041013e f   mfc100:mfc100.dll
 0001:0000f144       ?AfxGetThread@@YGPAVCWinThread@@XZ 00410144 f   mfc100:mfc100.dll
 0001:0000f14a       ?GetRuntimeClass@CMenu@@UBEPAUCRuntimeClass@@XZ 0041014a f   mfc100:mfc100.dll
 0001:0000f150       ?DrawItem@CMenu@@UAEXPAUtagDRAWITEMSTRUCT@@@Z 00410150 f   mfc100:mfc100.dll
 0001:0000f156       ?MeasureItem@CMenu@@UAEXPAUtagMEASUREITEMSTRUCT@@@Z 00410156 f   mfc100:mfc100.dll
 0001:0000f15c       ?DestroyMenu@CMenu@@QAEHXZ 0041015c f   mfc100:mfc100.dll
 0001:0000f162       ?FromHandle@CMenu@@SGPAV1@PAUHMENU__@@@Z 00410162 f   mfc100:mfc100.dll
 0001:0000f168       ?Attach@CMenu@@QAEHPAUHMENU__@@@Z 00410168 f   mfc100:mfc100.dll
 0001:0000f16e       ?AfxFindResourceHandle@@YGPAUHINSTANCE__@@PBD0@Z 0041016e f   mfc100:mfc100.dll
 0001:0000f174       ??1CEdit@@UAE@XZ           00410174 f   mfc100:mfc100.dll
 0001:0000f17a       ?GetDlgItem@CWnd@@QBEPAV1@H@Z 0041017a f   mfc100:mfc100.dll
 0001:0000f180       ?MessageBoxA@CWnd@@QAEHPBD0I@Z 00410180 f   mfc100:mfc100.dll
 0001:0000f186       ?GetWindowTextA@CWnd@@QBEHPADH@Z 00410186 f   mfc100:mfc100.dll
 0001:0000f18c       ?GetRuntimeClass@CEdit@@UBEPAUCRuntimeClass@@XZ 0041018c f   mfc100:mfc100.dll
 0001:0000f192       ?GetRuntimeClass@CDialog@@UBEPAUCRuntimeClass@@XZ 00410192 f   mfc100:mfc100.dll
 0001:0000f198       ??1CListCtrl@@UAE@XZ       00410198 f   mfc100:mfc100.dll
 0001:0000f19e       ?InsertColumn@CListCtrl@@QAEHHPBDHHH@Z 0041019e f   mfc100:mfc100.dll
 0001:0000f1a4       ?SetItemText@CListCtrl@@QAEHHHPBD@Z 004101a4 f   mfc100:mfc100.dll
 0001:0000f1aa       ?GetItemData@CListCtrl@@QBEKH@Z 004101aa f   mfc100:mfc100.dll
 0001:0000f1b0       ?AfxThrowInvalidArgException@@YGXXZ 004101b0 f   mfc100:mfc100.dll
 0001:0000f1b6       ?GetRuntimeClass@CListCtrl@@UBEPAUCRuntimeClass@@XZ 004101b6 f   mfc100:mfc100.dll
 0001:0000f1bc       ?GetMessageMap@CListCtrl@@MBEPBUAFX_MSGMAP@@XZ 004101bc f   mfc100:mfc100.dll
 0001:0000f1c2       ?OnChildNotify@CListCtrl@@MAEHIIJPAJ@Z 004101c2 f   mfc100:mfc100.dll
 0001:0000f1c8       ?DrawItem@CListCtrl@@UAEXPAUtagDRAWITEMSTRUCT@@@Z 004101c8 f   mfc100:mfc100.dll
 0001:0000f1ce       ??1CPtrArray@@UAE@XZ       004101ce f   mfc100:mfc100.dll
 0001:0000f1d4       ??0CPtrArray@@QAE@XZ       004101d4 f   mfc100:mfc100.dll
 0001:0000f1da       ?AfxLoadLibrary@@YGPAUHINSTANCE__@@PBD@Z 004101da f   mfc100:mfc100.dll
 0001:0000f1e0       ?AfxFreeLibrary@@YGHPAUHINSTANCE__@@@Z 004101e0 f   mfc100:mfc100.dll
 0001:0000f1e6       ?SetItem@CListCtrl@@QAEHHHIPBDHIIJ@Z 004101e6 f   mfc100:mfc100.dll
 0001:0000f1ec       ?RemoveAt@CPtrArray@@QAEXHH@Z 004101ec f   mfc100:mfc100.dll
 0001:0000f1f2       ?SetSize@CPtrArray@@QAEXHH@Z 004101f2 f   mfc100:mfc100.dll
 0001:0000f1f8       ?SetAtGrow@CPtrArray@@QAEXHPAX@Z 004101f8 f   mfc100:mfc100.dll
 0001:0000f1fe       ?InsertItem@CListCtrl@@QAEHIHPBDIIHJ@Z 004101fe f   mfc100:mfc100.dll
 0001:0000f204       ?DDX_Text@@YGXPAVCDataExchange@@HAAI@Z 00410204 f   mfc100:mfc100.dll
 0001:0000f20a       ?AfxSocketInit@@YGHPAUWSAData@@@Z 0041020a f   mfcs100:sockexp.obj
 0001:0000f224       _WinMain@16                00410224 f   mfcs100:appmodul.obj
 0001:0000f22f       ?AfxInitialize@@YGHHK@Z    0041022f f   mfcs100:appmodul.obj
 0001:0000f25a       _MiniDumpWriteDump@28      0041025a f   dbghelp:dbghelp.dll
 0001:0000f260       ?_AfxSocketInit@@YGHPAUWSAData@@@Z 00410260 f   mfc100:mfc100.dll
 0001:0000f266       ?AfxWinMain@@YGHPAUHINSTANCE__@@0PADH@Z 00410266 f   mfc100:mfc100.dll
 0002:00000000       __imp_?SendData@CTCPClientSocket@@QAEHPAXIEEE@Z 00412000     AFCComDllEx:AFCComDllEx.dll
 0002:00000004       __imp_?CloseSocket@CTCPClientSocket@@QAE_N_N@Z 00412004     AFCComDllEx:AFCComDllEx.dll
 0002:00000008       __imp_?SendData@CTCPClientSocket@@QAEHEEE@Z 00412008     AFCComDllEx:AFCComDllEx.dll
 0002:0000000c       __imp_??1CBcfFile@@QAE@XZ  0041200c     AFCComDllEx:AFCComDllEx.dll
 0002:00000010       __imp_?GetKeyVal@CBcfFile@@QAEHV?$CStringT@DV?$StrTraitMFC_DLL@DV?$ChTraitsCRT@D@ATL@@@@@ATL@@0H@Z 00412010     AFCComDllEx:AFCComDllEx.dll
 0002:00000014       __imp_??0CBcfFile@@QAE@V?$CStringT@DV?$StrTraitMFC_DLL@DV?$ChTraitsCRT@D@ATL@@@@@ATL@@@Z 00412014     AFCComDllEx:AFCComDllEx.dll
 0002:00000018       __imp_?IsFileExist@CBcfFile@@SA_NV?$CStringT@DV?$StrTraitMFC_DLL@DV?$ChTraitsCRT@D@ATL@@@@@ATL@@@Z 00412018     AFCComDllEx:AFCComDllEx.dll
 0002:0000001c       __imp_?GetAppPath@CBcfFile@@SA?AV?$CStringT@DV?$StrTraitMFC_DLL@DV?$ChTraitsCRT@D@ATL@@@@@ATL@@_N@Z 0041201c     AFCComDllEx:AFCComDllEx.dll
 0002:00000020       \177AFCComDllEx_NULL_THUNK_DATA 00412020     AFCComDllEx:AFCComDllEx.dll
 0002:00000024       __imp__InitCommonControls@0 00412024     comctl32:COMCTL32.dll
 0002:00000028       \177COMCTL32_NULL_THUNK_DATA 00412028     comctl32:COMCTL32.dll
 0002:0000002c       __imp__dklSQLEngineCreate  0041202c     HNlibSqlEngine:HNlibSqlEngine.dll
 0002:00000030       __imp__dklSQLEngineDelete  00412030     HNlibSqlEngine:HNlibSqlEngine.dll
 0002:00000034       \177HNlibSqlEngine_NULL_THUNK_DATA 00412034     HNlibSqlEngine:HNlibSqlEngine.dll
 0002:00000038       __imp__GetCurrentProcess@0 00412038     kernel32:KERNEL32.dll
 0002:0000003c       __imp__GetCurrentProcessId@0 0041203c     kernel32:KERNEL32.dll
 0002:00000040       __imp__GetCurrentThreadId@0 00412040     kernel32:KERNEL32.dll
 0002:00000044       __imp__CreateFileA@28      00412044     kernel32:KERNEL32.dll
 0002:00000048       __imp__WriteProcessMemory@20 00412048     kernel32:KERNEL32.dll
 0002:0000004c       __imp__VirtualProtect@16   0041204c     kernel32:KERNEL32.dll
 0002:00000050       __imp__GetProcAddress@8    00412050     kernel32:KERNEL32.dll
 0002:00000054       __imp__LoadLibraryA@4      00412054     kernel32:KERNEL32.dll
 0002:00000058       __imp__CloseHandle@4       00412058     kernel32:KERNEL32.dll
 0002:0000005c       __imp__SetCurrentDirectoryA@4 0041205c     kernel32:KERNEL32.dll
 0002:00000060       __imp__lstrlenA@4          00412060     kernel32:KERNEL32.dll
 0002:00000064       __imp__GetModuleFileNameA@12 00412064     kernel32:KERNEL32.dll
 0002:00000068       __imp__lstrcpyA@8          00412068     kernel32:KERNEL32.dll
 0002:0000006c       __imp__GetCurrentDirectoryA@8 0041206c     kernel32:KERNEL32.dll
 0002:00000070       __imp__EncodePointer@4     00412070     kernel32:KERNEL32.dll
 0002:00000074       __imp__DecodePointer@4     00412074     kernel32:KERNEL32.dll
 0002:00000078       __imp__InterlockedExchange@8 00412078     kernel32:KERNEL32.dll
 0002:0000007c       __imp__Sleep@4             0041207c     kernel32:KERNEL32.dll
 0002:00000080       __imp__InterlockedCompareExchange@12 00412080     kernel32:KERNEL32.dll
 0002:00000084       __imp__HeapSetInformation@16 00412084     kernel32:KERNEL32.dll
 0002:00000088       __imp__GetStartupInfoW@4   00412088     kernel32:KERNEL32.dll
 0002:0000008c       __imp__TerminateProcess@8  0041208c     kernel32:KERNEL32.dll
 0002:00000090       __imp__UnhandledExceptionFilter@4 00412090     kernel32:KERNEL32.dll
 0002:00000094       __imp__IsDebuggerPresent@0 00412094     kernel32:KERNEL32.dll
 0002:00000098       __imp__QueryPerformanceCounter@4 00412098     kernel32:KERNEL32.dll
 0002:0000009c       __imp__GetTickCount@0      0041209c     kernel32:KERNEL32.dll
 0002:000000a0       __imp__GetSystemTimeAsFileTime@4 004120a0     kernel32:KERNEL32.dll
 0002:000000a4       __imp__GetLastError@0      004120a4     kernel32:KERNEL32.dll
 0002:000000a8       __imp__SetUnhandledExceptionFilter@4 004120a8     kernel32:KERNEL32.dll
 0002:000000ac       __imp__CreateDirectoryA@8  004120ac     kernel32:KERNEL32.dll
 0002:000000b0       \177KERNEL32_NULL_THUNK_DATA 004120b0     kernel32:KERNEL32.dll
 0002:000000b4       __imp___stat64i32          004120b4     MSVCRT:MSVCR100.dll
 0002:000000b8       __imp___CxxThrowException@8 004120b8     MSVCRT:MSVCR100.dll
 0002:000000bc       __imp__sscanf              004120bc     MSVCRT:MSVCR100.dll
 0002:000000c0       __imp__sprintf             004120c0     MSVCRT:MSVCR100.dll
 0002:000000c4       __imp__ltoa                004120c4     MSVCRT:MSVCR100.dll
 0002:000000c4       __imp___ltoa               004120c4     MSVCRT:MSVCR100.dll
 0002:000000c8       __imp__strcpy_s            004120c8     MSVCRT:MSVCR100.dll
 0002:000000cc       __imp__strftime            004120cc     MSVCRT:MSVCR100.dll
 0002:000000d0       __imp___unlock             004120d0     MSVCRT:MSVCR100.dll
 0002:000000d4       __imp____dllonexit         004120d4     MSVCRT:MSVCR100.dll
 0002:000000d8       __imp___lock               004120d8     MSVCRT:MSVCR100.dll
 0002:000000dc       __imp___onexit             004120dc     MSVCRT:MSVCR100.dll
 0002:000000e0       __imp__strcmp              004120e0     MSVCRT:MSVCR100.dll
 0002:000000e4       __imp___amsg_exit          004120e4     MSVCRT:MSVCR100.dll
 0002:000000e8       __imp____getmainargs       004120e8     MSVCRT:MSVCR100.dll
 0002:000000ec       __imp___cexit              004120ec     MSVCRT:MSVCR100.dll
 0002:000000f0       __imp___exit               004120f0     MSVCRT:MSVCR100.dll
 0002:000000f4       __imp___XcptFilter         004120f4     MSVCRT:MSVCR100.dll
 0002:000000f8       __imp___ismbblead          004120f8     MSVCRT:MSVCR100.dll
 0002:000000fc       __imp__exit                004120fc     MSVCRT:MSVCR100.dll
 0002:00000100       __imp___acmdln             00412100     MSVCRT:MSVCR100.dll
 0002:00000104       __imp___initterm           00412104     MSVCRT:MSVCR100.dll
 0002:00000108       __imp___initterm_e         00412108     MSVCRT:MSVCR100.dll
 0002:0000010c       __imp___configthreadlocale 0041210c     MSVCRT:MSVCR100.dll
 0002:00000110       __imp____setusermatherr    00412110     MSVCRT:MSVCR100.dll
 0002:00000114       __imp___commode            00412114     MSVCRT:MSVCR100.dll
 0002:00000118       __imp___fmode              00412118     MSVCRT:MSVCR100.dll
 0002:0000011c       __imp____set_app_type      0041211c     MSVCRT:MSVCR100.dll
 0002:00000120       __imp___crt_debugger_hook  00412120     MSVCRT:MSVCR100.dll
 0002:00000124       __imp_?_type_info_dtor_internal_method@type_info@@QAEXXZ 00412124     MSVCRT:MSVCR100.dll
 0002:00000128       __imp___except_handler4_common 00412128     MSVCRT:MSVCR100.dll
 0002:0000012c       __imp___invoke_watson      0041212c     MSVCRT:MSVCR100.dll
 0002:00000130       __imp___controlfp_s        00412130     MSVCRT:MSVCR100.dll
 0002:00000134       __imp__itoa                00412134     MSVCRT:MSVCR100.dll
 0002:00000134       __imp___itoa               00412134     MSVCRT:MSVCR100.dll
 0002:00000138       __imp___wcsicmp            00412138     MSVCRT:MSVCR100.dll
 0002:00000138       __imp__wcsicmp             00412138     MSVCRT:MSVCR100.dll
 0002:0000013c       __imp__strcpy              0041213c     MSVCRT:MSVCR100.dll
 0002:00000140       __imp___localtime64_s      00412140     MSVCRT:MSVCR100.dll
 0002:00000144       __imp___mktime64           00412144     MSVCRT:MSVCR100.dll
 0002:00000148       __imp___time64             00412148     MSVCRT:MSVCR100.dll
 0002:0000014c       __imp__atol                0041214c     MSVCRT:MSVCR100.dll
 0002:00000150       __imp__atoi                00412150     MSVCRT:MSVCR100.dll
 0002:00000154       __imp___wsplitpath         00412154     MSVCRT:MSVCR100.dll
 0002:00000158       __imp__memset              00412158     MSVCRT:MSVCR100.dll
 0002:0000015c       __imp_??2@YAPAXI@Z         0041215c     MSVCRT:MSVCR100.dll
 0002:00000160       __imp__fseek               00412160     MSVCRT:MSVCR100.dll
 0002:00000164       __imp__fgetc               00412164     MSVCRT:MSVCR100.dll
 0002:00000168       __imp__ferror              00412168     MSVCRT:MSVCR100.dll
 0002:0000016c       __imp__ftell               0041216c     MSVCRT:MSVCR100.dll
 0002:00000170       __imp__fread               00412170     MSVCRT:MSVCR100.dll
 0002:00000174       __imp__fopen_s             00412174     MSVCRT:MSVCR100.dll
 0002:00000178       __imp__fclose              00412178     MSVCRT:MSVCR100.dll
 0002:0000017c       __imp___purecall           0041217c     MSVCRT:MSVCR100.dll
 0002:00000180       __imp_??3@YAXPAX@Z         00412180     MSVCRT:MSVCR100.dll
 0002:00000184       __imp____CxxFrameHandler3  00412184     MSVCRT:MSVCR100.dll
 0002:00000188       __imp__strchr              00412188     MSVCRT:MSVCR100.dll
 0002:0000018c       __imp__isspace             0041218c     MSVCRT:MSVCR100.dll
 0002:00000190       __imp__isdigit             00412190     MSVCRT:MSVCR100.dll
 0002:00000194       __imp__isalpha             00412194     MSVCRT:MSVCR100.dll
 0002:00000198       __imp__strncmp             00412198     MSVCRT:MSVCR100.dll
 0002:0000019c       __imp__strlen              0041219c     MSVCRT:MSVCR100.dll
 0002:000001a0       __imp__memcpy              004121a0     MSVCRT:MSVCR100.dll
 0002:000001a4       __imp_??_V@YAXPAX@Z        004121a4     MSVCRT:MSVCR100.dll
 0002:000001a8       __imp_?terminate@@YAXXZ    004121a8     MSVCRT:MSVCR100.dll
 0002:000001ac       __imp___setmbcp            004121ac     MSVCRT:MSVCR100.dll
 0002:000001b0       \177MSVCR100_NULL_THUNK_DATA 004121b0     MSVCRT:MSVCR100.dll
 0002:000001b4       __imp__Shell_NotifyIconA@8 004121b4     shell32:SHELL32.dll
 0002:000001b8       \177SHELL32_NULL_THUNK_DATA 004121b8     shell32:SHELL32.dll
 0002:000001bc       __imp__LoadCursorA@8       004121bc     user32:USER32.dll
 0002:000001c0       __imp__RegisterWindowMessageA@4 004121c0     user32:USER32.dll
 0002:000001c4       __imp__SendMessageA@16     004121c4     user32:USER32.dll
 0002:000001c8       __imp__IsWindow@4          004121c8     user32:USER32.dll
 0002:000001cc       __imp__wsprintfA           004121cc     user32:USER32.dll
 0002:000001d0       __imp__LoadIconW@8         004121d0     user32:USER32.dll
 0002:000001d4       __imp__EnableWindow@8      004121d4     user32:USER32.dll
 0002:000001d8       __imp__SetForegroundWindow@4 004121d8     user32:USER32.dll
 0002:000001dc       __imp__PostMessageA@16     004121dc     user32:USER32.dll
 0002:000001e0       __imp__LoadMenuW@8         004121e0     user32:USER32.dll
 0002:000001e4       __imp__GetSubMenu@8        004121e4     user32:USER32.dll
 0002:000001e8       __imp__EnableMenuItem@12   004121e8     user32:USER32.dll
 0002:000001ec       __imp__TrackMouseEvent@4   004121ec     user32:USER32.dll
 0002:000001f0       __imp__GetCursorPos@4      004121f0     user32:USER32.dll
 0002:000001f4       __imp__TrackPopupMenu@28   004121f4     user32:USER32.dll
 0002:000001f8       __imp__GetAsyncKeyState@4  004121f8     user32:USER32.dll
 0002:000001fc       __imp__DestroyIcon@4       004121fc     user32:USER32.dll
 0002:00000200       \177USER32_NULL_THUNK_DATA 00412200     user32:USER32.dll
 0002:00000204       __imp__WSAStartup@8        00412204     wsock32:WSOCK32.dll
 0002:00000208       \177WSOCK32_NULL_THUNK_DATA 00412208     wsock32:WSOCK32.dll
 0002:0000020c       __imp__MiniDumpWriteDump@28 0041220c     dbghelp:dbghelp.dll
 0002:00000210       \177dbghelp_NULL_THUNK_DATA 00412210     dbghelp:dbghelp.dll
 0002:00000214       __imp_?OnCommand@CWnd@@MAEHIJ@Z 00412214     mfc100:mfc100.dll
 0002:00000218       __imp_?OnNotify@CWnd@@MAEHIJPAJ@Z 00412218     mfc100:mfc100.dll
 0002:0000021c       __imp_?GetSuperWndProcAddr@CWnd@@MAEPAP6GJPAUHWND__@@IIJ@ZXZ 0041221c     mfc100:mfc100.dll
 0002:00000220       __imp_?PreTranslateMessage@CDialog@@UAEHPAUtagMSG@@@Z 00412220     mfc100:mfc100.dll
 0002:00000224       __imp_?OnAmbientProperty@CWnd@@UAEHPAVCOleControlSite@@JPAUtagVARIANT@@@Z 00412224     mfc100:mfc100.dll
 0002:00000228       __imp_?WindowProc@CWnd@@MAEJIIJ@Z 00412228     mfc100:mfc100.dll
 0002:0000022c       __imp_?OnWndMsg@CWnd@@MAEHIIJPAJ@Z 0041222c     mfc100:mfc100.dll
 0002:00000230       __imp_?DefWindowProcA@CWnd@@MAEJIIJ@Z 00412230     mfc100:mfc100.dll
 0002:00000234       __imp_?PostNcDestroy@CWnd@@MAEXXZ 00412234     mfc100:mfc100.dll
 0002:00000238       __imp_?OnChildNotify@CWnd@@MAEHIIJPAJ@Z 00412238     mfc100:mfc100.dll
 0002:0000023c       __imp_?OnTouchInputs@CWnd@@MAEHIPAUtagTOUCHINPUT@@@Z 0041223c     mfc100:mfc100.dll
 0002:00000240       __imp_?OnTouchInput@CWnd@@MAEHVCPoint@@HHPAUtagTOUCHINPUT@@@Z 00412240     mfc100:mfc100.dll
 0002:00000244       __imp_?GetGestureStatus@CWnd@@MAEKVCPoint@@@Z 00412244     mfc100:mfc100.dll
 0002:00000248       __imp_?OnGestureZoom@CWnd@@MAEHVCPoint@@J@Z 00412248     mfc100:mfc100.dll
 0002:0000024c       __imp_?OnGesturePan@CWnd@@MAEHVCPoint@@0@Z 0041224c     mfc100:mfc100.dll
 0002:00000250       __imp_?OnGestureRotate@CWnd@@MAEHVCPoint@@N@Z 00412250     mfc100:mfc100.dll
 0002:00000254       __imp_?OnGestureTwoFingerTap@CWnd@@MAEHVCPoint@@@Z 00412254     mfc100:mfc100.dll
 0002:00000258       __imp_?OnGesturePressAndTap@CWnd@@MAEHVCPoint@@J@Z 00412258     mfc100:mfc100.dll
 0002:0000025c       __imp_?CheckAutoCenter@CDialog@@UAEHXZ 0041225c     mfc100:mfc100.dll
 0002:00000260       __imp_?IsFrameWnd@CWnd@@UBEHXZ 00412260     mfc100:mfc100.dll
 0002:00000264       __imp_?CreateControlContainer@CWnd@@MAEHPAPAVCOleControlContainer@@@Z 00412264     mfc100:mfc100.dll
 0002:00000268       __imp_?CreateControlSite@CWnd@@MAEHPAVCOleControlContainer@@PAPAVCOleControlSite@@IABU_GUID@@@Z 00412268     mfc100:mfc100.dll
 0002:0000026c       __imp_?SetOccDialogInfo@CDialog@@MAEHPAU_AFX_OCC_DIALOG_INFO@@@Z 0041226c     mfc100:mfc100.dll
 0002:00000270       __imp_?GetOccDialogInfo@CDialog@@MAEPAU_AFX_OCC_DIALOG_INFO@@XZ 00412270     mfc100:mfc100.dll
 0002:00000274       __imp_?Create@CDialog@@UAEHPBDPAVCWnd@@@Z 00412274     mfc100:mfc100.dll
 0002:00000278       __imp_?CreateIndirect@CDialog@@UAEHPAXPAVCWnd@@@Z 00412278     mfc100:mfc100.dll
 0002:0000027c       __imp_?CreateIndirect@CDialog@@UAEHPBUDLGTEMPLATE@@PAVCWnd@@PAX@Z 0041227c     mfc100:mfc100.dll
 0002:00000280       __imp_?DoModal@CDialog@@UAEHXZ 00412280     mfc100:mfc100.dll
 0002:00000284       __imp_?OnInitDialog@CDialog@@UAEHXZ 00412284     mfc100:mfc100.dll
 0002:00000288       __imp_?OnSetFont@CDialog@@UAEXPAVCFont@@@Z 00412288     mfc100:mfc100.dll
 0002:0000028c       __imp_?OnOK@CDialog@@MAEXXZ 0041228c     mfc100:mfc100.dll
 0002:00000290       __imp_?OnCancel@CDialog@@MAEXXZ 00412290     mfc100:mfc100.dll
 0002:00000294       __imp_?PreInitDialog@CDialog@@MAEXXZ 00412294     mfc100:mfc100.dll
 0002:00000298       __imp_?OnFinalRelease@CWnd@@UAEXXZ 00412298     mfc100:mfc100.dll
 0002:0000029c       __imp_?DDV_MinMaxInt@@YGXPAVCDataExchange@@HHH@Z 0041229c     mfc100:mfc100.dll
 0002:000002a0       __imp_?DDX_Control@@YGXPAVCDataExchange@@HAAVCWnd@@@Z 004122a0     mfc100:mfc100.dll
 0002:000002a4       __imp_?DDX_Text@@YGXPAVCDataExchange@@HAAV?$CStringT@DV?$StrTraitMFC_DLL@DV?$ChTraitsCRT@D@ATL@@@@@ATL@@@Z 004122a4     mfc100:mfc100.dll
 0002:000002a8       __imp_??0CWnd@@QAE@XZ      004122a8     mfc100:mfc100.dll
 0002:000002ac       __imp_?OnCmdMsg@CCmdTarget@@UAEHIHPAXPAUAFX_CMDHANDLERINFO@@@Z 004122ac     mfc100:mfc100.dll
 0002:000002b0       __imp_?GetMessageMap@CWnd@@MBEPBUAFX_MSGMAP@@XZ 004122b0     mfc100:mfc100.dll
 0002:000002b4       __imp_?GetDispatchMap@CCmdTarget@@MBEPBUAFX_DISPMAP@@XZ 004122b4     mfc100:mfc100.dll
 0002:000002b8       __imp_?GetInterfaceMap@CWnd@@MBEPBUAFX_INTERFACEMAP@@XZ 004122b8     mfc100:mfc100.dll
 0002:000002bc       __imp_?PreTranslateMessage@CWnd@@UAEHPAUtagMSG@@@Z 004122bc     mfc100:mfc100.dll
 0002:000002c0       __imp_?CheckAutoCenter@CWnd@@UAEHXZ 004122c0     mfc100:mfc100.dll
 0002:000002c4       __imp_?SetOccDialogInfo@CWnd@@MAEHPAU_AFX_OCC_DIALOG_INFO@@@Z 004122c4     mfc100:mfc100.dll
 0002:000002c8       __imp_?GetOccDialogInfo@CWnd@@MAEPAU_AFX_OCC_DIALOG_INFO@@XZ 004122c8     mfc100:mfc100.dll
 0002:000002cc       __imp_?GetThisMessageMap@CWinApp@@KGPBUAFX_MSGMAP@@XZ 004122cc     mfc100:mfc100.dll
 0002:000002d0       __imp_?AfxMessageBox@@YGHPBDII@Z 004122d0     mfc100:mfc100.dll
 0002:000002d4       __imp_??B?$CSimpleStringT@D$00@ATL@@QBEPBDXZ 004122d4     mfc100:mfc100.dll
 0002:000002d8       __imp_?Format@?$CStringT@DV?$StrTraitMFC_DLL@DV?$ChTraitsCRT@D@ATL@@@@@ATL@@QAAXPBDZZ 004122d8     mfc100:mfc100.dll
 0002:000002dc       __imp_?ReleaseBuffer@?$CSimpleStringT@D$00@ATL@@QAEXH@Z 004122dc     mfc100:mfc100.dll
 0002:000002e0       __imp_??0?$CStringT@DV?$StrTraitMFC_DLL@DV?$ChTraitsCRT@D@ATL@@@@@ATL@@QAE@XZ 004122e0     mfc100:mfc100.dll
 0002:000002e4       __imp_??0CWinApp@@QAE@PBD@Z 004122e4     mfc100:mfc100.dll
 0002:000002e8       __imp_?GetRuntimeClass@CWinApp@@UBEPAUCRuntimeClass@@XZ 004122e8     mfc100:mfc100.dll
 0002:000002ec       __imp_?OnFinalRelease@CCmdTarget@@UAEXXZ 004122ec     mfc100:mfc100.dll
 0002:000002f0       __imp_?GetInterfaceMap@CCmdTarget@@MBEPBUAFX_INTERFACEMAP@@XZ 004122f0     mfc100:mfc100.dll
 0002:000002f4       __imp_?Run@CWinApp@@UAEHXZ 004122f4     mfc100:mfc100.dll
 0002:000002f8       __imp_?PreTranslateMessage@CWinThread@@UAEHPAUtagMSG@@@Z 004122f8     mfc100:mfc100.dll
 0002:000002fc       __imp_?PumpMessage@CWinThread@@UAEHXZ 004122fc     mfc100:mfc100.dll
 0002:00000300       __imp_?OnIdle@CWinApp@@UAEHJ@Z 00412300     mfc100:mfc100.dll
 0002:00000304       __imp_?IsIdleMessage@CWinThread@@UAEHPAUtagMSG@@@Z 00412304     mfc100:mfc100.dll
 0002:00000308       __imp_?HtmlHelpA@CWnd@@UAEXKI@Z 00412308     mfc100:mfc100.dll
 0002:0000030c       __imp_?ProcessWndProcException@CWinApp@@UAEJPAVCException@@PBUtagMSG@@@Z 0041230c     mfc100:mfc100.dll
 0002:00000310       __imp_?ProcessMessageFilter@CWinThread@@UAEHHPAUtagMSG@@@Z 00412310     mfc100:mfc100.dll
 0002:00000314       __imp_?GetMainWnd@CWinThread@@UAEPAVCWnd@@XZ 00412314     mfc100:mfc100.dll
 0002:00000318       __imp_?Delete@CWinThread@@UAEXXZ 00412318     mfc100:mfc100.dll
 0002:0000031c       __imp_?GetProfileIntA@CWinApp@@UAEIPBD0H@Z 0041231c     mfc100:mfc100.dll
 0002:00000320       __imp_?WriteProfileInt@CWinApp@@UAEHPBD0H@Z 00412320     mfc100:mfc100.dll
 0002:00000324       __imp_?GetProfileStringA@CWinApp@@UAE?AV?$CStringT@DV?$StrTraitMFC_DLL@DV?$ChTraitsCRT@D@ATL@@@@@ATL@@PBD00@Z 00412324     mfc100:mfc100.dll
 0002:00000328       __imp_?WriteProfileStringA@CWinApp@@UAEHPBD00@Z 00412328     mfc100:mfc100.dll
 0002:0000032c       __imp_?GetProfileBinary@CWinApp@@UAEHPBD0PAPAEPAI@Z 0041232c     mfc100:mfc100.dll
 0002:00000330       __imp_?WriteProfileBinary@CWinApp@@UAEHPBD0PAEI@Z 00412330     mfc100:mfc100.dll
 0002:00000334       __imp_?InitLibId@CWinApp@@UAEXXZ 00412334     mfc100:mfc100.dll
 0002:00000338       __imp_?Register@CWinApp@@UAEHXZ 00412338     mfc100:mfc100.dll
 0002:0000033c       __imp_?Unregister@CWinApp@@UAEHXZ 0041233c     mfc100:mfc100.dll
 0002:00000340       __imp_?OpenDocumentFile@CWinApp@@UAEPAVCDocument@@PBDH@Z 00412340     mfc100:mfc100.dll
 0002:00000344       __imp_?OpenDocumentFile@CWinApp@@UAEPAVCDocument@@PBD@Z 00412344     mfc100:mfc100.dll
 0002:00000348       __imp_?AddToRecentFileList@CWinApp@@UAEXPBD@Z 00412348     mfc100:mfc100.dll
 0002:0000034c       __imp_?InitApplication@CWinApp@@UAEHXZ 0041234c     mfc100:mfc100.dll
 0002:00000350       __imp_?SaveAllModified@CWinApp@@UAEHXZ 00412350     mfc100:mfc100.dll
 0002:00000354       __imp_?DoMessageBox@CWinApp@@UAEHPBDII@Z 00412354     mfc100:mfc100.dll
 0002:00000358       __imp_?DoWaitCursor@CWinApp@@UAEXH@Z 00412358     mfc100:mfc100.dll
 0002:0000035c       __imp_?OnDDECommand@CWinApp@@UAEHPAD@Z 0041235c     mfc100:mfc100.dll
 0002:00000360       __imp_?WinHelpA@CWinApp@@UAEXKI@Z 00412360     mfc100:mfc100.dll
 0002:00000364       __imp_?HtmlHelpA@CWinApp@@UAEXKI@Z 00412364     mfc100:mfc100.dll
 0002:00000368       __imp_?WinHelpInternal@CWinApp@@UAEXKI@Z 00412368     mfc100:mfc100.dll
 0002:0000036c       __imp_?RegisterWithRestartManager@CWinApp@@UAEJPB_WKP6GKPAX@Z1KK@Z 0041236c     mfc100:mfc100.dll
 0002:00000370       __imp_?RegisterWithRestartManager@CWinApp@@UAEJHABV?$CStringT@DV?$StrTraitMFC_DLL@DV?$ChTraitsCRT@D@ATL@@@@@ATL@@@Z 00412370     mfc100:mfc100.dll
 0002:00000374       __imp_?ApplicationRecoveryCallback@CWinApp@@UAEKPAX@Z 00412374     mfc100:mfc100.dll
 0002:00000378       __imp_?GetDataRecoveryHandler@CWinApp@@UAEPAVCDataRecoveryHandler@@XZ 00412378     mfc100:mfc100.dll
 0002:0000037c       __imp_?IsTaskbarInteractionEnabled@CWinApp@@UAEHXZ 0041237c     mfc100:mfc100.dll
 0002:00000380       __imp_?RestartInstance@CWinApp@@UAEHXZ 00412380     mfc100:mfc100.dll
 0002:00000384       __imp_?LoadAppLangResourceDLL@CWinApp@@UAEPAUHINSTANCE__@@XZ 00412384     mfc100:mfc100.dll
 0002:00000388       __imp_?LoadSysPolicies@CWinApp@@UAEHXZ 00412388     mfc100:mfc100.dll
 0002:0000038c       __imp_??1CWinApp@@UAE@XZ   0041238c     mfc100:mfc100.dll
 0002:00000390       __imp_?Mid@?$CStringT@DV?$StrTraitMFC_DLL@DV?$ChTraitsCRT@D@ATL@@@@@ATL@@QBE?AV12@HH@Z 00412390     mfc100:mfc100.dll
 0002:00000394       __imp_?GetBuffer@?$CSimpleStringT@D$00@ATL@@QAEPADH@Z 00412394     mfc100:mfc100.dll
 0002:00000398       __imp_?GetLength@?$CSimpleStringT@D$00@ATL@@QBEHXZ 00412398     mfc100:mfc100.dll
 0002:0000039c       __imp_?SetRegistryKey@CWinApp@@IAEXPBD@Z 0041239c     mfc100:mfc100.dll
 0002:000003a0       __imp_?AfxEnableControlContainer@@YAXPAVCOccManager@@@Z 004123a0     mfc100:mfc100.dll
 0002:000003a4       __imp_?AfxOleInit@@YGHXZ   004123a4     mfc100:mfc100.dll
 0002:000003a8       __imp_?InitInstance@CWinApp@@UAEHXZ 004123a8     mfc100:mfc100.dll
 0002:000003ac       __imp_?AfxThrowOleException@@YGXJ@Z 004123ac     mfc100:mfc100.dll
 0002:000003b0       __imp_?AfxThrowMemoryException@@YGXXZ 004123b0     mfc100:mfc100.dll
 0002:000003b4       __imp_?AfxGetModuleState@@YGPAVAFX_MODULE_STATE@@XZ 004123b4     mfc100:mfc100.dll
 0002:000003b8       __imp_?GetThisMessageMap@CWnd@@KGPBUAFX_MSGMAP@@XZ 004123b8     mfc100:mfc100.dll
 0002:000003bc       __imp_??1CWnd@@UAE@XZ      004123bc     mfc100:mfc100.dll
 0002:000003c0       __imp_?GetRuntimeClass@CWnd@@UBEPAUCRuntimeClass@@XZ 004123c0     mfc100:mfc100.dll
 0002:000003c4       __imp_?AfxRegisterWndClass@@YGPBDIPAUHICON__@@PAUHBRUSH__@@0@Z 004123c4     mfc100:mfc100.dll
 0002:000003c8       __imp_??1CPaintDC@@UAE@XZ  004123c8     mfc100:mfc100.dll
 0002:000003cc       __imp_??0CPaintDC@@QAE@PAVCWnd@@@Z 004123cc     mfc100:mfc100.dll
 0002:000003d0       __imp_?ShowWindow@CWnd@@QAEHH@Z 004123d0     mfc100:mfc100.dll
 0002:000003d4       __imp_?MoveWindow@CWnd@@QAEXHHHHH@Z 004123d4     mfc100:mfc100.dll
 0002:000003d8       __imp_?Default@CWnd@@IAEJXZ 004123d8     mfc100:mfc100.dll
 0002:000003dc       __imp_?GetRuntimeClass@CStatic@@UBEPAUCRuntimeClass@@XZ 004123dc     mfc100:mfc100.dll
 0002:000003e0       __imp_?OnChildNotify@CStatic@@MAEHIIJPAJ@Z 004123e0     mfc100:mfc100.dll
 0002:000003e4       __imp_?Create@CStatic@@UAEHPBDKABUtagRECT@@PAVCWnd@@I@Z 004123e4     mfc100:mfc100.dll
 0002:000003e8       __imp_?CreateAccessibleProxy@CWnd@@UAEJIJPAJ@Z 004123e8     mfc100:mfc100.dll
 0002:000003ec       __imp_??1CStatic@@UAE@XZ   004123ec     mfc100:mfc100.dll
 0002:000003f0       __imp_?GetBuffer@?$CSimpleStringT@D$00@ATL@@QAEPADXZ 004123f0     mfc100:mfc100.dll
 0002:000003f4       __imp_??Y?$CStringT@DV?$StrTraitMFC_DLL@DV?$ChTraitsCRT@D@ATL@@@@@ATL@@QAEAAV01@PBD@Z 004123f4     mfc100:mfc100.dll
 0002:000003f8       __imp_?GetThisMessageMap@CFrameWnd@@KGPBUAFX_MSGMAP@@XZ 004123f8     mfc100:mfc100.dll
 0002:000003fc       __imp_?GetThisClass@CFrameWnd@@SGPAUCRuntimeClass@@XZ 004123fc     mfc100:mfc100.dll
 0002:00000400       __imp_??1CFrameWnd@@UAE@XZ 00412400     mfc100:mfc100.dll
 0002:00000404       __imp_??0CFrameWnd@@QAE@XZ 00412404     mfc100:mfc100.dll
 0002:00000408       __imp_?GetMenu@CFrameWnd@@UBEPAVCMenu@@XZ 00412408     mfc100:mfc100.dll
 0002:0000040c       __imp_?SetMenu@CFrameWnd@@UAEHPAVCMenu@@@Z 0041240c     mfc100:mfc100.dll
 0002:00000410       __imp_?OnCommand@CFrameWnd@@MAEHIJ@Z 00412410     mfc100:mfc100.dll
 0002:00000414       __imp_?BeginModalState@CFrameWnd@@UAEXXZ 00412414     mfc100:mfc100.dll
 0002:00000418       __imp_?EndModalState@CFrameWnd@@UAEXXZ 00412418     mfc100:mfc100.dll
 0002:0000041c       __imp_?PostNcDestroy@CFrameWnd@@MAEXXZ 0041241c     mfc100:mfc100.dll
 0002:00000420       __imp_?IsFrameWnd@CFrameWnd@@UBEHXZ 00412420     mfc100:mfc100.dll
 0002:00000424       __imp_?Create@CFrameWnd@@UAEHPBD0KABUtagRECT@@PAVCWnd@@0KPAUCCreateContext@@@Z 00412424     mfc100:mfc100.dll
 0002:00000428       __imp_?LoadFrame@CFrameWnd@@UAEHIKPAVCWnd@@PAUCCreateContext@@@Z 00412428     mfc100:mfc100.dll
 0002:0000042c       __imp_?GetActiveDocument@CFrameWnd@@UAEPAVCDocument@@XZ 0041242c     mfc100:mfc100.dll
 0002:00000430       __imp_?GetActiveFrame@CFrameWnd@@UAEPAV1@XZ 00412430     mfc100:mfc100.dll
 0002:00000434       __imp_?GetMessageString@CFrameWnd@@UBEXIAAV?$CStringT@DV?$StrTraitMFC_DLL@DV?$ChTraitsCRT@D@ATL@@@@@ATL@@@Z 00412434     mfc100:mfc100.dll
 0002:00000438       __imp_?RecalcLayout@CFrameWnd@@UAEXH@Z 00412438     mfc100:mfc100.dll
 0002:0000043c       __imp_?ActivateFrame@CFrameWnd@@UAEXH@Z 0041243c     mfc100:mfc100.dll
 0002:00000440       __imp_?SetMenuBarVisibility@CFrameWnd@@UAEXK@Z 00412440     mfc100:mfc100.dll
 0002:00000444       __imp_?GetMenuBarVisibility@CFrameWnd@@UBEKXZ 00412444     mfc100:mfc100.dll
 0002:00000448       __imp_?SetMenuBarState@CFrameWnd@@UAEHK@Z 00412448     mfc100:mfc100.dll
 0002:0000044c       __imp_?GetMenuBarState@CFrameWnd@@UBEKXZ 0041244c     mfc100:mfc100.dll
 0002:00000450       __imp_?OnSetPreviewMode@CFrameWnd@@UAEXHPAUCPrintPreviewState@@@Z 00412450     mfc100:mfc100.dll
 0002:00000454       __imp_?GetMessageBar@CFrameWnd@@UAEPAVCWnd@@XZ 00412454     mfc100:mfc100.dll
 0002:00000458       __imp_?NegotiateBorderSpace@CFrameWnd@@UAEHIPAUtagRECT@@@Z 00412458     mfc100:mfc100.dll
 0002:0000045c       __imp_?OnCreateClient@CFrameWnd@@MAEHPAUtagCREATESTRUCTA@@PAUCCreateContext@@@Z 0041245c     mfc100:mfc100.dll
 0002:00000460       __imp_?OnUpdateFrameTitle@CFrameWnd@@UAEXH@Z 00412460     mfc100:mfc100.dll
 0002:00000464       __imp_?OnUpdateFrameMenu@CFrameWnd@@UAEXPAUHMENU__@@@Z 00412464     mfc100:mfc100.dll
 0002:00000468       __imp_?GetDefaultAccelerator@CFrameWnd@@UAEPAUHACCEL__@@XZ 00412468     mfc100:mfc100.dll
 0002:0000046c       __imp_?DelayUpdateFrameMenu@CFrameWnd@@UAEXPAUHMENU__@@@Z 0041246c     mfc100:mfc100.dll
 0002:00000470       __imp_?ExitHelpMode@CFrameWnd@@UAEXXZ 00412470     mfc100:mfc100.dll
 0002:00000474       __imp_?OnShowMenuBar@CFrameWnd@@MAEXXZ 00412474     mfc100:mfc100.dll
 0002:00000478       __imp_?OnHideMenuBar@CFrameWnd@@MAEXXZ 00412478     mfc100:mfc100.dll
 0002:0000047c       __imp_?SetWindowTextA@CWnd@@QAEXPBD@Z 0041247c     mfc100:mfc100.dll
 0002:00000480       __imp_?GetWindowTextA@CWnd@@QBEXAAV?$CStringT@DV?$StrTraitMFC_DLL@DV?$ChTraitsCRT@D@ATL@@@@@ATL@@@Z 00412480     mfc100:mfc100.dll
 0002:00000484       __imp_?CenterWindow@CWnd@@QAEXPAV1@@Z 00412484     mfc100:mfc100.dll
 0002:00000488       __imp_?OnCreate@CFrameWnd@@IAEHPAUtagCREATESTRUCTA@@@Z 00412488     mfc100:mfc100.dll
 0002:0000048c       __imp_?PreTranslateMessage@CFrameWnd@@UAEHPAUtagMSG@@@Z 0041248c     mfc100:mfc100.dll
 0002:00000490       __imp_?PreCreateWindow@CFrameWnd@@MAEHAAUtagCREATESTRUCTA@@@Z 00412490     mfc100:mfc100.dll
 0002:00000494       __imp_?SetFocus@CWnd@@QAEPAV1@XZ 00412494     mfc100:mfc100.dll
 0002:00000498       __imp_?OnCmdMsg@CFrameWnd@@UAEHIHPAXPAUAFX_CMDHANDLERINFO@@@Z 00412498     mfc100:mfc100.dll
 0002:0000049c       __imp_?OnSize@CFrameWnd@@IAEXIHH@Z 0041249c     mfc100:mfc100.dll
 0002:000004a0       __imp_?AfxGetThread@@YGPAVCWinThread@@XZ 004124a0     mfc100:mfc100.dll
 0002:000004a4       __imp_?GetRuntimeClass@CMenu@@UBEPAUCRuntimeClass@@XZ 004124a4     mfc100:mfc100.dll
 0002:000004a8       __imp_?DrawItem@CMenu@@UAEXPAUtagDRAWITEMSTRUCT@@@Z 004124a8     mfc100:mfc100.dll
 0002:000004ac       __imp_?MeasureItem@CMenu@@UAEXPAUtagMEASUREITEMSTRUCT@@@Z 004124ac     mfc100:mfc100.dll
 0002:000004b0       __imp_?DestroyMenu@CMenu@@QAEHXZ 004124b0     mfc100:mfc100.dll
 0002:000004b4       __imp_?FromHandle@CMenu@@SGPAV1@PAUHMENU__@@@Z 004124b4     mfc100:mfc100.dll
 0002:000004b8       __imp_?Attach@CMenu@@QAEHPAUHMENU__@@@Z 004124b8     mfc100:mfc100.dll
 0002:000004bc       __imp_?AfxFindResourceHandle@@YGPAUHINSTANCE__@@PBD0@Z 004124bc     mfc100:mfc100.dll
 0002:000004c0       __imp_??1CEdit@@UAE@XZ     004124c0     mfc100:mfc100.dll
 0002:000004c4       __imp_?GetDlgItem@CWnd@@QBEPAV1@H@Z 004124c4     mfc100:mfc100.dll
 0002:000004c8       __imp_?MessageBoxA@CWnd@@QAEHPBD0I@Z 004124c8     mfc100:mfc100.dll
 0002:000004cc       __imp_?GetWindowTextA@CWnd@@QBEHPADH@Z 004124cc     mfc100:mfc100.dll
 0002:000004d0       __imp_?GetRuntimeClass@CEdit@@UBEPAUCRuntimeClass@@XZ 004124d0     mfc100:mfc100.dll
 0002:000004d4       __imp_?GetRuntimeClass@CDialog@@UBEPAUCRuntimeClass@@XZ 004124d4     mfc100:mfc100.dll
 0002:000004d8       __imp_??1CListCtrl@@UAE@XZ 004124d8     mfc100:mfc100.dll
 0002:000004dc       __imp_?InsertColumn@CListCtrl@@QAEHHPBDHHH@Z 004124dc     mfc100:mfc100.dll
 0002:000004e0       __imp_?SetItemText@CListCtrl@@QAEHHHPBD@Z 004124e0     mfc100:mfc100.dll
 0002:000004e4       __imp_?GetItemData@CListCtrl@@QBEKH@Z 004124e4     mfc100:mfc100.dll
 0002:000004e8       __imp_??4?$CStringT@DV?$StrTraitMFC_DLL@DV?$ChTraitsCRT@D@ATL@@@@@ATL@@QAEAAV01@ABV01@@Z 004124e8     mfc100:mfc100.dll
 0002:000004ec       __imp_?Left@?$CStringT@DV?$StrTraitMFC_DLL@DV?$ChTraitsCRT@D@ATL@@@@@ATL@@QBE?AV12@H@Z 004124ec     mfc100:mfc100.dll
 0002:000004f0       __imp_??4?$CStringT@DV?$StrTraitMFC_DLL@DV?$ChTraitsCRT@D@ATL@@@@@ATL@@QAEAAV01@PBD@Z 004124f0     mfc100:mfc100.dll
 0002:000004f4       __imp_??0?$CStringT@DV?$StrTraitMFC_DLL@DV?$ChTraitsCRT@D@ATL@@@@@ATL@@QAE@ABV01@@Z 004124f4     mfc100:mfc100.dll
 0002:000004f8       __imp_?Concatenate@?$CSimpleStringT@D$00@ATL@@KAXAAV12@PBDH1H@Z 004124f8     mfc100:mfc100.dll
 0002:000004fc       __imp_?StringLength@?$CSimpleStringT@D$00@ATL@@SAHPBD@Z 004124fc     mfc100:mfc100.dll
 0002:00000500       __imp_??0?$CStringT@DV?$StrTraitMFC_DLL@DV?$ChTraitsCRT@D@ATL@@@@@ATL@@QAE@PAUIAtlStringMgr@1@@Z 00412500     mfc100:mfc100.dll
 0002:00000504       __imp_?GetManager@?$CStringT@DV?$StrTraitMFC_DLL@DV?$ChTraitsCRT@D@ATL@@@@@ATL@@QBEPAUIAtlStringMgr@2@XZ 00412504     mfc100:mfc100.dll
 0002:00000508       __imp_?Compare@?$CStringT@DV?$StrTraitMFC_DLL@DV?$ChTraitsCRT@D@ATL@@@@@ATL@@QBEHPBD@Z 00412508     mfc100:mfc100.dll
 0002:0000050c       __imp_?AfxThrowInvalidArgException@@YGXXZ 0041250c     mfc100:mfc100.dll
 0002:00000510       __imp_?GetRuntimeClass@CListCtrl@@UBEPAUCRuntimeClass@@XZ 00412510     mfc100:mfc100.dll
 0002:00000514       __imp_?GetMessageMap@CListCtrl@@MBEPBUAFX_MSGMAP@@XZ 00412514     mfc100:mfc100.dll
 0002:00000518       __imp_?OnChildNotify@CListCtrl@@MAEHIIJPAJ@Z 00412518     mfc100:mfc100.dll
 0002:0000051c       __imp_?DrawItem@CListCtrl@@UAEXPAUtagDRAWITEMSTRUCT@@@Z 0041251c     mfc100:mfc100.dll
 0002:00000520       __imp_??1CPtrArray@@UAE@XZ 00412520     mfc100:mfc100.dll
 0002:00000524       __imp_??0CPtrArray@@QAE@XZ 00412524     mfc100:mfc100.dll
 0002:00000528       __imp_?AfxLoadLibrary@@YGPAUHINSTANCE__@@PBD@Z 00412528     mfc100:mfc100.dll
 0002:0000052c       __imp_?AfxFreeLibrary@@YGHPAUHINSTANCE__@@@Z 0041252c     mfc100:mfc100.dll
 0002:00000530       __imp_?GetBufferSetLength@?$CSimpleStringT@D$00@ATL@@QAEPADH@Z 00412530     mfc100:mfc100.dll
 0002:00000534       __imp_?SetItem@CListCtrl@@QAEHHHIPBDHIIJ@Z 00412534     mfc100:mfc100.dll
 0002:00000538       __imp_?RemoveAt@CPtrArray@@QAEXHH@Z 00412538     mfc100:mfc100.dll
 0002:0000053c       __imp_?SetSize@CPtrArray@@QAEXHH@Z 0041253c     mfc100:mfc100.dll
 0002:00000540       __imp_?SetAtGrow@CPtrArray@@QAEXHPAX@Z 00412540     mfc100:mfc100.dll
 0002:00000544       __imp_?InsertItem@CListCtrl@@QAEHIHPBDIIHJ@Z 00412544     mfc100:mfc100.dll
 0002:00000548       __imp_?DDX_Text@@YGXPAVCDataExchange@@HAAI@Z 00412548     mfc100:mfc100.dll
 0002:0000054c       __imp_?WinHelpA@CWnd@@UAEXKI@Z 0041254c     mfc100:mfc100.dll
 0002:00000550       __imp_?GetScrollBarCtrl@CWnd@@UBEPAVCScrollBar@@H@Z 00412550     mfc100:mfc100.dll
 0002:00000554       __imp_?OnToolHitTest@CWnd@@UBEHVCPoint@@PAUtagTOOLINFOA@@@Z 00412554     mfc100:mfc100.dll
 0002:00000558       __imp_?SetMenu@CWnd@@UAEHPAVCMenu@@@Z 00412558     mfc100:mfc100.dll
 0002:0000055c       __imp_?GetMenu@CWnd@@UBEPAVCMenu@@XZ 0041255c     mfc100:mfc100.dll
 0002:00000560       __imp_?CalcWindowRect@CWnd@@UAEXPAUtagRECT@@I@Z 00412560     mfc100:mfc100.dll
 0002:00000564       __imp_?PreCreateWindow@CWnd@@UAEHAAUtagCREATESTRUCTA@@@Z 00412564     mfc100:mfc100.dll
 0002:00000568       __imp_?DestroyWindow@CWnd@@UAEHXZ 00412568     mfc100:mfc100.dll
 0002:0000056c       __imp_?CreateEx@CWnd@@UAEHKPBD0KHHHHPAUHWND__@@PAUHMENU__@@PAX@Z 0041256c     mfc100:mfc100.dll
 0002:00000570       __imp_?CreateEx@CWnd@@UAEHKPBD0KABUtagRECT@@PAV1@IPAX@Z 00412570     mfc100:mfc100.dll
 0002:00000574       __imp_?Create@CWnd@@UAEHPBD0KABUtagRECT@@PAV1@IPAUCCreateContext@@@Z 00412574     mfc100:mfc100.dll
 0002:00000578       __imp_?PreSubclassWindow@CWnd@@UAEXXZ 00412578     mfc100:mfc100.dll
 0002:0000057c       __imp_?GetConnectionHook@CCmdTarget@@MAEPAUIConnectionPoint@@ABU_GUID@@@Z 0041257c     mfc100:mfc100.dll
 0002:00000580       __imp_?GetExtraConnectionPoints@CCmdTarget@@MAEHPAVCPtrArray@@@Z 00412580     mfc100:mfc100.dll
 0002:00000584       __imp_?GetInterfaceHook@CCmdTarget@@UAEPAUIUnknown@@PBX@Z 00412584     mfc100:mfc100.dll
 0002:00000588       __imp_?OnCreateAggregates@CCmdTarget@@UAEHXZ 00412588     mfc100:mfc100.dll
 0002:0000058c       __imp_?GetEventSinkMap@CCmdTarget@@MBEPBUAFX_EVENTSINKMAP@@XZ 0041258c     mfc100:mfc100.dll
 0002:00000590       __imp_?GetConnectionMap@CCmdTarget@@MBEPBUAFX_CONNECTIONMAP@@XZ 00412590     mfc100:mfc100.dll
 0002:00000594       __imp_?GetCommandMap@CCmdTarget@@MBEPBUAFX_OLECMDMAP@@XZ 00412594     mfc100:mfc100.dll
 0002:00000598       __imp_?GetTypeLib@CCmdTarget@@UAEJKPAPAUITypeLib@@@Z 00412598     mfc100:mfc100.dll
 0002:0000059c       __imp_?GetTypeLibCache@CCmdTarget@@UAEPAVCTypeLibCache@@XZ 0041259c     mfc100:mfc100.dll
 0002:000005a0       __imp_?GetTypeInfoCount@CCmdTarget@@UAEIXZ 004125a0     mfc100:mfc100.dll
 0002:000005a4       __imp_?GetDispatchIID@CCmdTarget@@UAEHPAU_GUID@@@Z 004125a4     mfc100:mfc100.dll
 0002:000005a8       __imp_?IsInvokeAllowed@CCmdTarget@@UAEHJ@Z 004125a8     mfc100:mfc100.dll
 0002:000005ac       __imp_?OnCmdMsg@CDialog@@UAEHIHPAXPAUAFX_CMDHANDLERINFO@@@Z 004125ac     mfc100:mfc100.dll
 0002:000005b0       __imp_??0CDialog@@QAE@IPAVCWnd@@@Z 004125b0     mfc100:mfc100.dll
 0002:000005b4       __imp_??0?$CStringT@DV?$StrTraitMFC_DLL@DV?$ChTraitsCRT@D@ATL@@@@@ATL@@QAE@PBD@Z 004125b4     mfc100:mfc100.dll
 0002:000005b8       __imp_??1CDialog@@UAE@XZ   004125b8     mfc100:mfc100.dll
 0002:000005bc       __imp_??1?$CStringT@DV?$StrTraitMFC_DLL@DV?$ChTraitsCRT@D@ATL@@@@@ATL@@QAE@XZ 004125bc     mfc100:mfc100.dll
 0002:000005c0       __imp_?SetProxy@CWnd@@UAEJPAUIAccessibleProxy@@@Z 004125c0     mfc100:mfc100.dll
 0002:000005c4       __imp_?put_accValue@CWnd@@UAEJUtagVARIANT@@PA_W@Z 004125c4     mfc100:mfc100.dll
 0002:000005c8       __imp_?put_accName@CWnd@@UAEJUtagVARIANT@@PA_W@Z 004125c8     mfc100:mfc100.dll
 0002:000005cc       __imp_?accDoDefaultAction@CWnd@@UAEJUtagVARIANT@@@Z 004125cc     mfc100:mfc100.dll
 0002:000005d0       __imp_?accHitTest@CWnd@@UAEJJJPAUtagVARIANT@@@Z 004125d0     mfc100:mfc100.dll
 0002:000005d4       __imp_?accNavigate@CWnd@@UAEJJUtagVARIANT@@PAU2@@Z 004125d4     mfc100:mfc100.dll
 0002:000005d8       __imp_?accLocation@CWnd@@UAEJPAJ000UtagVARIANT@@@Z 004125d8     mfc100:mfc100.dll
 0002:000005dc       __imp_?accSelect@CWnd@@UAEJJUtagVARIANT@@@Z 004125dc     mfc100:mfc100.dll
 0002:000005e0       __imp_?get_accDefaultAction@CWnd@@UAEJUtagVARIANT@@PAPA_W@Z 004125e0     mfc100:mfc100.dll
 0002:000005e4       __imp_?get_accSelection@CWnd@@UAEJPAUtagVARIANT@@@Z 004125e4     mfc100:mfc100.dll
 0002:000005e8       __imp_?get_accFocus@CWnd@@UAEJPAUtagVARIANT@@@Z 004125e8     mfc100:mfc100.dll
 0002:000005ec       __imp_?get_accKeyboardShortcut@CWnd@@UAEJUtagVARIANT@@PAPA_W@Z 004125ec     mfc100:mfc100.dll
 0002:000005f0       __imp_?get_accHelpTopic@CWnd@@UAEJPAPA_WUtagVARIANT@@PAJ@Z 004125f0     mfc100:mfc100.dll
 0002:000005f4       __imp_?get_accHelp@CWnd@@UAEJUtagVARIANT@@PAPA_W@Z 004125f4     mfc100:mfc100.dll
 0002:000005f8       __imp_?get_accState@CWnd@@UAEJUtagVARIANT@@PAU2@@Z 004125f8     mfc100:mfc100.dll
 0002:000005fc       __imp_?get_accRole@CWnd@@UAEJUtagVARIANT@@PAU2@@Z 004125fc     mfc100:mfc100.dll
 0002:00000600       __imp_?get_accDescription@CWnd@@UAEJUtagVARIANT@@PAPA_W@Z 00412600     mfc100:mfc100.dll
 0002:00000604       __imp_?get_accValue@CWnd@@UAEJUtagVARIANT@@PAPA_W@Z 00412604     mfc100:mfc100.dll
 0002:00000608       __imp_?get_accName@CWnd@@UAEJUtagVARIANT@@PAPA_W@Z 00412608     mfc100:mfc100.dll
 0002:0000060c       __imp_?get_accChild@CWnd@@UAEJUtagVARIANT@@PAPAUIDispatch@@@Z 0041260c     mfc100:mfc100.dll
 0002:00000610       __imp_?get_accChildCount@CWnd@@UAEJPAJ@Z 00412610     mfc100:mfc100.dll
 0002:00000614       __imp_?get_accParent@CWnd@@UAEJPAPAUIDispatch@@@Z 00412614     mfc100:mfc100.dll
 0002:00000618       __imp_?GetThisClass@CDialog@@SGPAUCRuntimeClass@@XZ 00412618     mfc100:mfc100.dll
 0002:0000061c       __imp_?GetThisMessageMap@CDialog@@KGPBUAFX_MSGMAP@@XZ 0041261c     mfc100:mfc100.dll
 0002:00000620       __imp_?EnsureStdObj@CWnd@@UAEJXZ 00412620     mfc100:mfc100.dll
 0002:00000624       __imp_?OnDrawIconicThumbnailOrLivePreview@CWnd@@UAEXAAVCDC@@VCRect@@VCSize@@HAAH@Z 00412624     mfc100:mfc100.dll
 0002:00000628       __imp_?EndModalLoop@CWnd@@UAEXH@Z 00412628     mfc100:mfc100.dll
 0002:0000062c       __imp_?ContinueModal@CWnd@@UAEHXZ 0041262c     mfc100:mfc100.dll
 0002:00000630       __imp_?DrawItem@CStatic@@UAEXPAUtagDRAWITEMSTRUCT@@@Z 00412630     mfc100:mfc100.dll
 0002:00000634       __imp_?WinHelpInternal@CWnd@@UAEXKI@Z 00412634     mfc100:mfc100.dll
 0002:00000638       __imp_?ExitInstance@CWinApp@@UAEHXZ 00412638     mfc100:mfc100.dll
 0002:0000063c       __imp_?_AfxSocketInit@@YGHPAUWSAData@@@Z 0041263c     mfc100:mfc100.dll
 0002:00000640       __imp_?AfxWinMain@@YGHPAUHINSTANCE__@@0PADH@Z 00412640     mfc100:mfc100.dll
 0002:00000644       \177mfc100_NULL_THUNK_DATA 00412644     mfc100:mfc100.dll
 0002:00000648       ___xc_a                    00412648     MSVCRT:cinitexe.obj
 0002:00000674       ___xc_z                    00412674     MSVCRT:cinitexe.obj
 0002:00000678       ___xi_a                    00412678     MSVCRT:cinitexe.obj
 0002:00000684       ___xi_z                    00412684     MSVCRT:cinitexe.obj
 0002:000006ac       ??_C@_01MNNFJEPP@?$DM?$AA@ 004126ac     tinyxml2.obj
 0002:000006b0       ??_C@_09BLLNCBLF@?$DM?$CB?$FLCDATA?$FL?$AA@ 004126b0     tinyxml2.obj
 0002:000006bc       ??_C@_02KBFACPPK@?$DM?$CB?$AA@ 004126bc     tinyxml2.obj
 0002:000006c0       ??_C@_04FFDNBKGC@?$DM?$CB?9?9?$AA@ 004126c0     tinyxml2.obj
 0002:000006c8       ??_C@_02HFBBBACF@?$DM?$DP?$AA@ 004126c8     tinyxml2.obj
 0002:000006cc       ??_C@_02GHFEHLK@gt?$AA@    004126cc     tinyxml2.obj
 0002:000006d0       ??_C@_02KCAKIFL@lt?$AA@    004126d0     tinyxml2.obj
 0002:000006d4       ??_C@_04LBCJFAKL@apos?$AA@ 004126d4     tinyxml2.obj
 0002:000006dc       ??_C@_03DCBBJBAA@amp?$AA@  004126dc     tinyxml2.obj
 0002:000006e0       ??_C@_04KJFGKBNM@quot?$AA@ 004126e0     tinyxml2.obj
 0002:00000740       ??_C@_02DPKJAMEF@?$CFd?$AA@ 00412740     tinyxml2.obj
 0002:0000074c       ??_7XMLText@tinyxml2@@6B@  0041274c     tinyxml2.obj
 0002:00000794       ??_7XMLNode@tinyxml2@@6B@  00412794     tinyxml2.obj
 0002:000007d8       ??_C@_03MCHNFBAC@?$FN?$FN?$DO?$AA@ 004127d8     tinyxml2.obj
 0002:000007e4       ??_7XMLComment@tinyxml2@@6B@ 004127e4     tinyxml2.obj
 0002:00000828       ??_C@_03PNLDJJMO@?9?9?$DO?$AA@ 00412828     tinyxml2.obj
 0002:00000834       ??_7XMLDeclaration@tinyxml2@@6B@ 00412834     tinyxml2.obj
 0002:00000878       ??_C@_02GOEMJPDN@?$DP?$DO?$AA@ 00412878     tinyxml2.obj
 0002:00000884       ??_7XMLUnknown@tinyxml2@@6B@ 00412884     tinyxml2.obj
 0002:000008c8       ??_C@_01PPODPGHN@?$DO?$AA@ 004128c8     tinyxml2.obj
 0002:000008d4       ??_7XMLElement@tinyxml2@@6B@ 004128d4     tinyxml2.obj
 0002:0000091c       ??_7XMLAttribute@tinyxml2@@6B@ 0041291c     tinyxml2.obj
 0002:00000924       ??_7XMLDocument@tinyxml2@@6B@ 00412924     tinyxml2.obj
 0002:00000968       ??_C@_0CD@MCGGMGEP@xml?5version?$DN?$CC1?40?$CC?5encoding?$DN?$CCUTF?9@ 00412968     tinyxml2.obj
 0002:0000098c       ??_C@_02JDPG@rb?$AA@       0041298c     tinyxml2.obj
 0002:00000994       ??_7?$MemPoolT@$0DE@@tinyxml2@@6B@ 00412994     tinyxml2.obj
 0002:000009ac       ??_7MemPool@tinyxml2@@6B@  004129ac     tinyxml2.obj
 0002:000009c4       ??_7?$MemPoolT@$0CE@@tinyxml2@@6B@ 004129c4     tinyxml2.obj
 0002:000009dc       ??_7?$MemPoolT@$0DA@@tinyxml2@@6B@ 004129dc     tinyxml2.obj
 0002:000009f4       ??_7?$MemPoolT@$0CM@@tinyxml2@@6B@ 004129f4     tinyxml2.obj
 0002:00000a38       ??_C@_00CNPNBAHC@?$AA@     00412a38     AddRoomDialog.obj
 0002:00000a5c       ??_C@_0BN@PBMFDOGC@?$CFsError?$CFd?9?$CFd?9?$CFd?$CG?$CFd?9?$CFd?9?$CFd?4dmp?$AA@ 00412a5c     AFCLoader.obj
 0002:00000a7c       ??_C@_0M@NAKIOOEI@?$CFs?2D?9Error?2?$AA@ 00412a7c     AFCLoader.obj
 0002:00000a88       ??_C@_1M@OAIMIKLP@?$AAn?$AAt?$AAd?$AAl?$AAl?$AA?$AA@ 00412a88     AFCLoader.obj
 0002:00000a94       ??_C@_11LOCGONAA@?$AA?$AA@ 00412a94     AFCLoader.obj
 0002:00000a98       ??_C@_0N@MDJJJHMB@kernel32?4dll?$AA@ 00412a98     AFCLoader.obj
 0002:00000aa8       ??_C@_0BM@EBDAABIF@SetUnhandledExceptionFilter?$AA@ 00412aa8     AFCLoader.obj
 0002:00000acc       ??_7CAFCLoaderApp@@6B@     00412acc     AFCLoader.obj
 0002:00000be8       ??_C@_0HJ@IJCAKKNH@?$LB?$LO?H?m?$LM?$PO?I?z?C?$PM?V?$NM?F?Z?$LF?$LN?F?Z?$KD?$KM?G?k?V?X?P?B?A?$KK?O?$LF?$LP?$KK@ 00412be8     AFCLoader.obj
 0002:00000c64       ??_C@_08LIOBMGJC@20071030?$AA@ 00412c64     AFCLoader.obj
 0002:00000c70       ??_C@_04EEHPFMA@?4EXE?$AA@ 00412c70     AFCLoader.obj
 0002:00000c78       ??_C@_0BF@KFGLDHED@?W?S?$LH?V?$LC?$LM?$LH?$PO?N?q?F?w?$LP?X?V?F?O?$LF?M?$LD?$AA@ 00412c78     AFCLoader.obj
 0002:00000c90       ??_C@_0P@HDDEAF@TaskbarCreated?$AA@ 00412c90     AFCLoader.obj
 0002:00000d0c       ??_7CChildView@@6B@        00412d0c     ChildView.obj
 0002:00000e74       ??_C@_0CM@LDKNBICM@?$LP?$KK?$LH?$KC?3?I?n?$NL?Z?J?P?$LK?l?D?q?M?x?B?g?$LP?F?$LM?$LM?S?P?O?$NO?$LJ?$KL?K?$LOw@ 00412e74     ChildView.obj
 0002:00000ea4       ??_7CStatic@@6B@           00412ea4     ChildView.obj
 0002:00001014       ??_C@_0L@GOKPKJAL@CMainFrame?$AA@ 00413014     MainFrm.obj
 0002:00001020       ?classCMainFrame@CMainFrame@@2UCRuntimeClass@@B 00413020     MainFrm.obj
 0002:0000113c       ??_7CMainFrame@@6BIMessageShow@@@ 0041313c     MainFrm.obj
 0002:00001144       ??_7CMainFrame@@6BCFrameWnd@@@ 00413144     MainFrm.obj
 0002:00001308       ??_7IMessageShow@@6B@      00413308     MainFrm.obj
 0002:0000130c       ??_C@_0BA@CNENGMMA@?$CFs?5v?$CFd?4?$CFd?4?$CFd?5?$CFs?$AA@ 0041330c     MainFrm.obj
 0002:0000131c       ??_C@_04MDNFPBDC@2013?$AA@ 0041331c     MainFrm.obj
 0002:00001324       ??_C@_0BC@ENKJPHDC@GServer?W?S?$LH?V?$LC?$LM?O?$LF?M?$LD?$AA@ 00413324     MainFrm.obj
 0002:00001338       ??_C@_0BL@GLLBFBAF@?I?n?$NL?Z?J?P?$LK?l?D?q?M?x?B?g?$LP?F?$LM?$LM?S?P?O?$NO?$LJ?$KL?K?$LO?$AA@ 00413338     MainFrm.obj
 0002:00001354       ??_C@_03KCEANBCJ@pmb?$AA@  00413354     MainFrm.obj
 0002:00001358       ??_C@_03EFKIOLOJ@123?$AA@  00413358     MainFrm.obj
 0002:00001360       ??_7CMenu@@6B@             00413360     MainFrm.obj
 0002:000013d0       ??_C@_0BP@JKJLJLEN@?W?$KC?$LC?a?B?k?$LI?q?J?$LN?$LC?$LL?U?$PN?H?$LH?$KD?$KM?G?k?V?X?P?B?J?d?H?k?$KD?$KB?$AA@ 004133d0     RegKeyDlg.obj
 0002:000013f0       ??_C@_0P@MDPBLLOA@?G?k?J?d?H?k?W?$KC?$LC?a?B?k?$KD?$KB?$AA@ 004133f0     RegKeyDlg.obj
 0002:00001404       ??_7CEdit@@6B@             00413404     RegKeyDlg.obj
 0002:0000174c       ??_7CBaseDialog@@6B@       0041374c     ServiceControl.obj
 0002:000018e4       ??_7CServiceControl@@6B@   004138e4     ServiceControl.obj
 0002:00001a74       ??_C@_04NDJHOAAB@?$LH?$KD?$LH?V?$AA@ 00413a74     ServiceControl.obj
 0002:00001a7c       ??_C@_0N@OHBDDCBN@?K?$LA?J?U?$LB?H?$MA?$PN?1100?$AA@ 00413a7c     ServiceControl.obj
 0002:00001a8c       ??_C@_0N@EEBEOEAD@?M?$KD?V?$LJ?$LH?$PO?N?q?J?$LB?$LM?d?$AA@ 00413a8c     ServiceControl.obj
 0002:00001a9c       ??_C@_08HBJHFIOD@?M?$KD?V?$LJ?$LF?G?B?$LN?$AA@ 00413a9c     ServiceControl.obj
 0002:00001aa8       ??_C@_08LHOOBBMI@?$LB?$LI?W?$KC?P?E?O?$KC?$AA@ 00413aa8     ServiceControl.obj
 0002:00001ab4       ??_C@_07COJDPINB@?E?E?A?P?5ID?$AA@ 00413ab4     ServiceControl.obj
 0002:00001abc       ??_C@_0BB@JNPJKCJC@?O?$NO?V?F?S?C?$LL?$KH?$LF?G?B?$LN?$LB?m?C?$PL?$AA@ 00413abc     ServiceControl.obj
 0002:00001ad0       ??_C@_0N@JIBODHPP@?O?$NO?V?F?$LF?X?V?$LH?$LB?m?C?$PL?$AA@ 00413ad0     ServiceControl.obj
 0002:00001ae0       ??_C@_0N@GGLGIALA@?M?$KM?$LC?$LN?K?x?$LG?$KI?$LB?m?C?$PL?$AA@ 00413ae0     ServiceControl.obj
 0002:00001af0       ??_C@_0L@JGHDNGNM@?S?N?O?$LH?P?E?O?$KC?$LB?m?$AA@ 00413af0     ServiceControl.obj
 0002:00001afc       ??_C@_07EEGAJFLG@?$LB?H?H?$PM?5ID?$AA@ 00413afc     ServiceControl.obj
 0002:00001b04       ??_C@_07EKGPDLHP@?C?$PL?W?V?5ID?$AA@ 00413b04     ServiceControl.obj
 0002:00001b0c       ??_C@_07KLAMGCID@?$MA?$OA?P?M?5ID?$AA@ 00413b0c     ServiceControl.obj
 0002:00001b14       ??_C@_0O@ECMMECBF@?$LB?$LO?$LF?X?J?$PN?$LO?$NN?$LP?b?5IP?$AA@ 00413b14     ServiceControl.obj
 0002:00001b24       ??_C@_0O@BHFAOJGD@?$LF?G?B?$LN?J?$PN?$LO?$NN?$LP?b?5IP?$AA@ 00413b24     ServiceControl.obj
 0002:00001b34       ??_C@_0O@ELNEPMAG@?V?P?P?D?J?$PN?$LO?$NN?$LP?b?5IP?$AA@ 00413b34     ServiceControl.obj
 0002:00001b44       ??_C@_08DEKKOL@?$LI?$LN?$LM?S?H?$KI?O?$NO?$AA@ 00413b44     ServiceControl.obj
 0002:00001b50       ??_C@_08BCOMJEBM@?$LH?$LP?$LM?d?$LJ?f?T?r?$AA@ 00413b50     ServiceControl.obj
 0002:00001b5c       ??_C@_08CEAEEONB@?W?n?$LE?s?$LH?V?J?$PN?$AA@ 00413b5c     ServiceControl.obj
 0002:00001b68       ??_C@_08KJGLKNKP@?$LL?y?$LE?$KB?$LH?V?J?$PN?$AA@ 00413b68     ServiceControl.obj
 0002:00001b74       ??_C@_08PIMNJGK@?W?n?I?Y?$LH?V?J?$PN?$AA@ 00413b74     ServiceControl.obj
 0002:00001b80       ??_C@_08PNPFLGIN@?W?n?$LE?s?H?K?J?$PN?$AA@ 00413b80     ServiceControl.obj
 0002:00001b8c       ??_C@_08FLPOJGFD@?T?Z?O?$NP?H?K?J?$PN?$AA@ 00413b8c     ServiceControl.obj
 0002:00001b98       ??_C@_0BB@GNHCLBOE@?J?$LF?$MA?$PN?V?P?W?S?R?$LF?N?q?J?$PN?D?$LP?$AA@ 00413b98     ServiceControl.obj
 0002:00001bac       ??_C@_08BNNJACIK@?$LM?$OA?L?$PN?$LG?K?$LP?Z?$AA@ 00413bac     ServiceControl.obj
 0002:00001bb8       ??_C@_08IELJAJPI@?$LH?$PO?N?q?$LF?X?V?$LH?$AA@ 00413bb8     ServiceControl.obj
 0002:00001bc4       ??_C@_08HPCJAEFE@?J?G?$LH?q?F?t?S?C?$AA@ 00413bc4     ServiceControl.obj
 0002:00001bd0       ??_C@_08PBPFJBIG@?W?i?$LM?$PO?$MA?$OA?P?M?$AA@ 00413bd0     ServiceControl.obj
 0002:00001bdc       ??_C@_08PNOOFJCK@?T?K?P?P?W?$LE?L?$KM?$AA@ 00413bdc     ServiceControl.obj
 0002:00001be8       ??_C@_0BB@DGMIANIC@?W?i?$LM?$PO?$LF?D?W?S?J?$LF?$MA?$PN?C?$PL?W?V?$AA@ 00413be8     ServiceControl.obj
 0002:00001bfc       ??_C@_0P@LBIPENDA@?W?i?$LM?$PO?$LF?D?W?S?J?$LF?$MA?$PNID?$AA@ 00413bfc     ServiceControl.obj
 0002:00001c0c       ??_C@_08JPBPGOPI@?D?$KD?$LP?i?C?$PL?W?V?$AA@ 00413c0c     ServiceControl.obj
 0002:00001c18       ??_C@_0L@NPHIDEDF@?D?$KM?H?O?P?E?O?$KC?$LB?m?$AA@ 00413c18     ServiceControl.obj
 0002:00001c24       ??_C@_08CDMJEJHM@?S?N?O?$LH?H?K?J?$PN?$AA@ 00413c24     ServiceControl.obj
 0002:00001c30       ??_C@_08IGKKFHLD@?$LA?f?$LB?$LO?$LK?E?B?k?$AA@ 00413c30     ServiceControl.obj
 0002:00001c3c       ??_C@_08OIAECBD@?W?i?$LM?$PO?W?$LE?L?$KM?$AA@ 00413c3c     ServiceControl.obj
 0002:00001c48       ??_C@_08JNDEOGNH@?W?i?$LM?$PO?C?$PL?W?V?$AA@ 00413c48     ServiceControl.obj
 0002:00001c54       ??_C@_07NBFNBCBF@?W?i?$LM?$PO?5ID?$AA@ 00413c54     ServiceControl.obj
 0002:00001c5c       ??_C@_04MLIFMOBA@?M?$KD?V?$LJ?$AA@ 00413c5c     ServiceControl.obj
 0002:00001c64       ??_C@_0N@IHBFJIGN@?M?$KD?V?$LJ?J?$KH?$LA?$NM?$KD?$LK?$CFs?$AA@ 00413c64     ServiceControl.obj
 0002:00001c74       ??_C@_0DB@CANMAKJG@?W?i?$LM?$PO?$LF?D?W?S?J?$LF?$MA?$PN?P?E?O?$KC?$LG?A?H?$KB?$LE?m?N?s?$KD?$KM?W?i?$LM?$PO?$LF?D@ 00413c74     ServiceControl.obj
 0002:00001ca8       ??_C@_0DP@MAKEJCGM@?G?k?O?H?T?Z?S?R?$LB?$NP?$LF?D?W?i?$LM?$PO?$LF?D?W?S?J?$LF?$MA?$PN?A?P?$LB?m?V?P?Q?$KB@ 00413ca8     ServiceControl.obj
 0002:00001ce8       ??_C@_06GCKBNECN@?N?$NO?H?O?V?$KE?$AA@ 00413ce8     ServiceControl.obj
 0002:00001cf0       ??_C@_07FHFIKPJB@?N?$LE?H?O?V?$KE_?$AA@ 00413cf0     ServiceControl.obj
 0002:00001cf8       ??_C@_04LOMALGON@?F?t?$LG?$KP?$AA@ 00413cf8     ServiceControl.obj
 0002:00001d00       ??_C@_0BH@FLNCBKPJ@?F?t?$LG?$KP?P?B?W?i?$LM?$PO?$LH?$LP?$LM?d?J?$KH?$LA?$NM?$KD?$LK?$CFs?$AA@ 00413d00     ServiceControl.obj
 0002:00001d18       ??_C@_0BJ@DPHJMGHE@?$LH?$LP?$LM?d?$LG?T?S?$KG?$LF?D?$LP?b?$CFs?$LC?$LL?$LE?f?T?Z?$KD?$LK?$CFs?$AA@ 00413d18     ServiceControl.obj
 0002:00001d34       ??_C@_0DB@LOICKJOL@?W?i?$LM?$PO?$LF?D?W?S?J?$LF?$MA?$PN?P?E?O?$KC?$LG?A?H?$KB?$LE?m?N?s?$KD?$KM?W?i?$LM?$PO?$LF?D@ 00413d34     ServiceControl.obj
 0002:00001d68       ??_C@_0DP@MDKMNGBA@?G?k?O?H?T?Z?S?R?$LB?$NP?$LF?D?W?i?$LM?$PO?$LF?D?W?S?J?$LF?$MA?$PN?A?P?$LB?m?V?P?Q?$KB@ 00413d68     ServiceControl.obj
 0002:00001da8       ??_C@_0CD@CHPMCCBI@?P?$LE?J?$PN?$LO?$NN?$LP?b?J?$KH?$LA?$NM?$KD?$KM?G?k?$LM?l?$LC?i?D?c?L?n?P?$LE?$LF?D?D?Z?H?$NN@ 00413da8     ServiceControl.obj
 0002:00001dcc       ??_C@_0BD@NLEENFBG@?G?k?F?t?$LG?$KP?$LG?T?S?$KG?$LF?D?$LH?$LP?$LM?d?$KD?$KB?$AA@ 00413dcc     ServiceControl.obj
 0002:00001de0       ??_C@_0BB@MFMPONNB@?M?$KD?V?$LJ?$LH?$LP?$LM?d?J?$KH?$LA?$NM?$KD?$LK?$CFs?$AA@ 00413de0     ServiceControl.obj
 0002:00001df8       ??_C@_0HI@FELAIMIL@?$LI?$PM?P?B?S?N?O?$LH?W?i?$LM?$PO?$LN?$KL?W?T?$LG?$KP?M?$KD?V?$LJ?$LE?K?S?N?O?$LH?$LF?D?K?y@ 00413df8     ServiceControl.obj
 0002:00001e70       ??_C@_0CP@PCHJEOLI@?G?k?O?H?T?Z?S?R?$LB?$NP?$LF?D?W?i?$LM?$PO?A?P?$LB?m?V?P?Q?$KB?T?q?R?$KK?$LI?$PM?P?B@ 00413e70     ServiceControl.obj
 0002:00001ea0       ??_C@_0N@NIKBCKPN@?$LA?$LC?W?$LA?W?i?$LM?$PO?J?$KH?$LA?$NM?$AA@ 00413ea0     ServiceControl.obj
 0002:00001eb0       ??_C@_0CB@HPCPODCE@?V?$LL?D?$NM?$LA?$LC?W?$LA?N?$LE?$LA?$LC?W?$LA?$LF?D?W?i?$LM?$PO?$KD?$KM?V?X?P?B?Q?$KB?T?q?$KD?$KB@ 00413eb0     ServiceControl.obj
 0002:00001ed4       ??_C@_0BA@FIBOKABD@?$LN?$KL?H?$LH?$LG?$KI?R?$KK?P?$NO?$LI?D?B?p?$DP?$AA@ 00413ed4     ServiceControl.obj
 0002:00001ee8       ??_C@_0EA@MMNCPAHM@?$LF?c?$LL?w?H?$LH?$LG?$KI?$LN?$KL?$LF?$KP?$LD?v?P?$NO?$LI?D?$LG?T?$LL?$LA?$LP?r?0?0?W?$KC?R?bse@ 00413ee8     ServiceControl.obj
 0002:00001f28       ??_C@_04DOJHAOLE@szhn?$AA@ 00413f28     ServiceControl.obj
 0002:00001f30       ??_C@_0IJ@CICNCMBJ@?H?$LH?$LG?$KI?R?$KK?G?e?$LD?$PN?$LF?$LB?G?$LA?$LM?G?B?$LM?B?p?$DP?$LN?$KL?M?$KM?J?$LB?I?$LO?$LD?$PN?F@ 00413f30     ServiceControl.obj
 0002:00001fbc       ??_C@_0BF@FODJPHIM@?F?t?$LG?$KP?W?i?$LM?$PO?$LH?$LP?$LM?d?J?$KH?$LA?$NM?$KD?$LK?$CFs?$AA@ 00413fbc     ServiceControl.obj
 0002:00001fd4       ??_C@_0BF@HPPMKLBI@?M?$KD?V?$LJ?W?i?$LM?$PO?$LH?$LP?$LM?d?J?$KH?$LA?$NM?$KD?$LK?$CFs?$AA@ 00413fd4     ServiceControl.obj
 0002:00001fec       ??_C@_0BD@PJGGIKFI@?J?G?$LH?q?M?$KD?V?$LJ?K?y?S?P?S?N?O?$LH?$KD?$LP?$AA@ 00413fec     ServiceControl.obj
 0002:00002000       ??_C@_0N@GHGNLFKJ@?H?$LH?$LG?$KI?R?$KK?I?$LO?$LD?$PN?B?p?$AA@ 00414000     ServiceControl.obj
 0002:00002010       ??_C@_0L@EEHNBDBG@?O?H?M?$KD?V?$LJ?$LH?$LP?$LM?d?$AA@ 00414010     ServiceControl.obj
 0002:00002024       ??_7CListCtrl@@6B@         00414024     ServiceControl.obj
 0002:00002190       ??_C@_0M@IOFGKGDC@ServiceName?$AA@ 00414190     ServiceManage.obj
 0002:0000219c       ??_C@_0BP@BDGDLKK@Load?5HNGameLocal?4xml?5Error?92?92?$AA@ 0041419c     ServiceManage.obj
 0002:000021bc       ??_C@_09OBCNLEPP@SERVERSET?$AA@ 004141bc     ServiceManage.obj
 0002:000021c8       ??_C@_0L@NFINNCPK@DBPASSWORD?$AA@ 004141c8     ServiceManage.obj
 0002:000021d4       ??_C@_09OAPLMGBF@DBACCOUNT?$AA@ 004141d4     ServiceManage.obj
 0002:000021e0       ??_C@_08IOEOHAJM@DATABASE?$AA@ 004141e0     ServiceManage.obj
 0002:000021ec       ??_C@_06NKMMDPKC@DBPORT?$AA@ 004141ec     ServiceManage.obj
 0002:000021f4       ??_C@_03ICHNJLJF@key?$AA@  004141f4     ServiceManage.obj
 0002:000021f8       ??_C@_08OOPBKIBH@DBSERVER?$AA@ 004141f8     ServiceManage.obj
 0002:00002204       ??_C@_0BP@CKBLGIGJ@Load?5HNGameLocal?4xml?5Error?92?91?$AA@ 00414204     ServiceManage.obj
 0002:00002224       ??_C@_09EKIMPMII@SQLSERVER?$AA@ 00414224     ServiceManage.obj
 0002:00002230       ??_C@_05DLCPHHHE@hn2?40?$AA@ 00414230     ServiceManage.obj
 0002:00002238       ??_C@_02CKOPKKAC@sa?$AA@   00414238     ServiceManage.obj
 0002:0000223c       ??_C@_09PFCHIMEP@127?40?40?41?$AA@ 0041423c     ServiceManage.obj
 0002:00002248       ??_C@_06BBOJKDCN@HNGame?$AA@ 00414248     ServiceManage.obj
 0002:00002250       ??_C@_0BN@LHPADNMH@Load?5HNGameLocal?4xml?5Error?92?$AA@ 00414250     ServiceManage.obj
 0002:00002270       ??_C@_0BA@FLDMFENM@HNGameLocal?4xml?$AA@ 00414270     ServiceManage.obj
 0002:00002284       ??_7CServiceManage@@6B@    00414284     ServiceManage.obj
 0002:00002298       ??_7IClientSocketService@@6B@ 00414298     ServiceManage.obj
 0002:000022a4       ??_C@_0BO@HAHCHLIN@?F?t?$LG?$KP?K?y?S?P?W?i?$LM?$PO?$LF?D?W?S?J?$LF?$MA?$PN?$LH?$PO?N?q?M?j?$LD?I?$CB?$AA@ 004142a4     ServiceManage.obj
 0002:000022c4       ??_C@_0P@BNGACLKG@GetServiceInfo?$AA@ 004142c4     ServiceManage.obj
 0002:000022d4       ??_C@_0BH@JKLAAGIP@CreateServiceInterface?$AA@ 004142d4     ServiceManage.obj
 0002:000022ec       ??_C@_0BB@NMKLIIIH@?$LH?$KC?I?z?N?$LE?V?$KK?R?l?$LD?$KD?$LE?m?N?s?$AA@ 004142ec     ServiceManage.obj
 0002:00002300       ??_C@_0N@NENBEDIC@?W?i?$LM?$PO?F?t?$LG?$KP?$LE?m?N?s?$AA@ 00414300     ServiceManage.obj
 0002:00002310       ??_C@_0P@HBKIKHMM@?W?i?$LM?$PO?$LD?u?J?$LM?$LL?$KP?$LE?m?N?s?$AA@ 00414310     ServiceManage.obj
 0002:00002320       ??_C@_04MEIDEPGF@GUID?$AA@ 00414320     ServiceManage.obj
 0002:00002328       ??_C@_09NAHKMHD@LogonAddr?$AA@ 00414328     ServiceManage.obj
 0002:00002334       ??_C@_0L@EJMBPMDM@ServerInfo?$AA@ 00414334     ServiceManage.obj
 0002:00002340       ??_C@_04FABLJDN@Name?$AA@  00414340     ServiceManage.obj
 0002:00002348       ??_C@_0O@PMKNNGMO@Administrator?$AA@ 00414348     ServiceManage.obj
 0002:00002358       ??_C@_03LEIBKMN@?0?$CFd?$AA@ 00414358     ServiceManage.obj
 0002:0000235c       ??_C@_0N@EHHKLHHE@?$EAServiceName?$AA@ 0041435c     ServiceManage.obj
 0002:0000236c       ??_C@_0BG@NKGFANJ@SP_ClearTWLoginRecord?$AA@ 0041436c     ServiceManage.obj
 0002:00002384       ??_C@_06LEFFJGDM@?N?$LE?$LA?$LC?W?$LA?$AA@ 00414384     ServiceManage.obj
 0002:0000238c       ??_C@_06EMBCPOGP@?R?Q?$LA?$LC?W?$LA?$AA@ 0041438c     ServiceManage.obj
 0002:00002394       ??_C@_0M@KFEEBBKD@DLLFileName?$AA@ 00414394     ServiceManage.obj
 0002:000023a0       ??_C@_09ECEOEOKN@GameTable?$AA@ 004143a0     ServiceManage.obj
 0002:000023ac       ??_C@_08DBMACHKJ@GameName?$AA@ 004143ac     ServiceManage.obj
 0002:000023b8       ??_C@_0L@IKGPIHHI@ServiceVer?$AA@ 004143b8     ServiceManage.obj
 0002:000023c4       ??_C@_0M@DDAAEEPN@SupportType?$AA@ 004143c4     ServiceManage.obj
 0002:000023d0       ??_C@_0L@NDHODCEP@DeskPeople?$AA@ 004143d0     ServiceManage.obj
 0002:000023dc       ??_C@_06DDALHKNJ@NameID?$AA@ 004143dc     ServiceManage.obj
 0002:000023e4       ??_C@_0N@CMKGLCEH@ServerInfoID?$AA@ 004143e4     ServiceManage.obj
 0002:000023f4       ??_C@_0BF@OHOHIHKK@SP_GetGameServerList?$AA@ 004143f4     ServiceManage.obj
 0002:0000240c       ??_C@_0N@LOJDCIAC@?W?i?$LM?$PO?G?e?$MA?m?$LE?m?N?s?$AA@ 0041440c     ServiceManage.obj
 0002:0000241c       ??_C@_0N@GKLNNNFM@?W?i?$LM?$PO?P?$LG?T?X?$LE?m?N?s?$AA@ 0041441c     ServiceManage.obj
 0002:0000242c       ??_C@_0N@FHFOIKOD@?W?i?$LM?$PO?M?$KD?V?$LJ?$LE?m?N?s?$AA@ 0041442c     ServiceManage.obj
 0002:0000243c       ??_C@_0BK@IACDHJKA@?$LF?G?B?$LN?C?$NM?B?k?$LE?m?N?s?$KD?$KM?$LF?G?B?$LN?J?$KH?$LA?$NM?4?4?4?$AA@ 0041443c     ServiceManage.obj
 0002:00002458       ??_C@_0BO@EMPPNMLK@?$LF?G?B?$LN?C?$PL?R?Q?$LO?$KN?$LB?$LL?$LN?$PL?S?C?$KD?$KM?$LF?G?B?$LN?J?$KH?$LA?$NM?4?4?4?$AA@ 00414458     ServiceManage.obj
 0002:00002478       ??_C@_0BK@LHKNHMDL@?$LF?G?B?$LN?C?$PL?W?V?$LE?m?N?s?$KD?$KM?$LF?G?B?$LN?J?$KH?$LA?$NM?4?4?4?$AA@ 00414478     ServiceManage.obj
 0002:00002494       ??_C@_0CK@EBLPLJGD@?$LE?K?J?Z?H?$KI?$LK?E?$LC?$LL?D?$NM?T?Z?$LE?K?$LH?$PO?N?q?F?w?I?O?$LF?G?B?$LN?$KD?$KM?$LF?G@ 00414494     ServiceManage.obj
 0002:000024c0       ??_C@_0BM@IHFHAPPI@?O?$LF?M?$LD?J?Z?H?$KI?$LK?E?$LE?m?N?s?$KD?$KM?$LF?G?B?$LN?J?$KH?$LA?$NM?4?4?4?$AA@ 004144c0     ServiceManage.obj
 0002:000024dc       ??_C@_0CE@FPHKADFM@?$LF?G?B?$LN?$LH?$KC?I?z?N?$LE?V?$KK?$LE?m?N?s?$KD?$KM?G?k?$LM?l?$LC?i?O?$LF?M?$LD?E?d?V?C@ 004144dc     ServiceManage.obj
 0002:00002500       ??_C@_0CG@MOPJOHBK@?S?C?$LL?$KH?P?E?O?$KC?P?$KH?Q?i?$LD?I?$LJ?$KG?$KD?$KM?U?$PN?T?Z?$LG?A?H?$KB?$LE?s?L?$PM?P?E@ 00414500     ServiceManage.obj
 0002:00002528       ??_C@_0CG@GABIMCEE@?S?N?O?$LH?$LP?X?V?F?F?w?$LA?f?$LB?$LO?L?$KL?$LF?M?A?K?$KD?$KM?N?$NO?$LH?$KI?$LM?L?P?x?J?$LJ@ 00414528     ServiceManage.obj
 0002:00002550       ??_C@_0CM@JJMNOIEN@?$LF?G?B?$LN?$LH?$PO?N?q?F?w?C?$LL?S?P?F?t?$LG?$KP?$KD?$KM?G?k?$LD?$KC?J?T?F?d?K?$PL?$LF?G@ 00414550     ServiceManage.obj
 0002:0000257c       ??_C@_0CG@BBHGCHMK@?S?I?S?Z?$LF?G?B?$LN?$LH?$PO?N?q?F?w?$LH?$LB?C?$KG?$KD?$KM?G?k?I?T?$LK?s?T?Y?$LE?N?$LF?G@ 0041457c     ServiceManage.obj
 0002:000025a4       ??_C@_0DK@NJLBKPIE@?$LC?$LL?D?$NM?P?B?$LN?$KI?$LK?M?O?V?S?P?W?i?$LM?$POServerInfoID?O?$OA@ 004145a4     ServiceManage.obj
 0002:000025e0       ??_C@_0N@KFKJIMOC@?$EADllFileName?$AA@ 004145e0     ServiceManage.obj
 0002:000025f0       ??_C@_0L@BMALIONI@?$EAGameTable?$AA@ 004145f0     ServiceManage.obj
 0002:000025fc       ??_C@_09KKPJFMNB@?$EAGameName?$AA@ 004145fc     ServiceManage.obj
 0002:00002608       ??_C@_0L@BHCLCCH@?$EAServerVer?$AA@ 00414608     ServiceManage.obj
 0002:00002614       ??_C@_0N@IOAMBEOG@?$EASuppoerType?$AA@ 00414614     ServiceManage.obj
 0002:00002624       ??_C@_0M@PDEPPCDM@?$EADeskPeople?$AA@ 00414624     ServiceManage.obj
 0002:00002630       ??_C@_07OCNILICD@?$EANameID?$AA@ 00414630     ServiceManage.obj
 0002:00002638       ??_C@_0O@LDNAHKPD@?$EAServerInfoID?$AA@ 00414638     ServiceManage.obj
 0002:00002648       ??_C@_0BB@CEFLCPCB@SP_AddGameServer?$AA@ 00414648     ServiceManage.obj
 0002:0000265c       ??_C@_0DK@FKMLBMOA@ServerDllInfo?5?$LB?m?V?P?N?$NO?$LE?KServerInfo@ 0041465c     ServiceManage.obj
 0002:00002698       ??_C@_0BC@IOJKFBL@SP_EditGameServer?$AA@ 00414698     ServiceManage.obj
 0002:000026b0       ??_C@_0FA@EJHDJLHO@?$LP?$LN?$LB?$LE?P?B?$LF?D?$LG?$KP?L?$KM?$LP?b?N?D?$LM?$PO?$LF?$LNWLocalServic@ 004146b0     ServiceManage.obj
 0002:00002700       ??_C@_0BF@PEKFGKPN@?A?P?$LB?m?V?P?R?Q?N?$NO?$LE?K?W?i?$LM?$PO?$LM?G?B?$LM?$AA@ 00414700     ServiceManage.obj
 0002:00002718       ??_C@_0DE@ODDLGLFF@DELETE?5FROM?5TGameServerInfo?5WHER@ 00414718     ServiceManage.obj
 0002:0000274c       ??_C@_0BN@HLHBKHMO@?W?i?$LM?$PO?A?P?$LB?m?$LM?G?B?$LM?$MA?o?R?Q?C?$LL?S?P?H?N?$LK?N?W?i?$LM?$PO?$AA@ 0041474c     ServiceManage.obj
 0002:0000276c       ??_C@_0CO@IKGGIJJP@?I?$LO?$LD?$PN?W?i?$LM?$PO?$LF?D?W?S?J?$LF?$MA?$PN?P?E?O?$KC?$LH?$KC?I?z?$LE?m?N?s?$KD?$KM?I?T@ 0041476c     ServiceManage.obj
 0002:0000279c       ??_C@_0BL@CJDCAOBA@?I?$LO?$LD?$PN?W?i?$LM?$PO?$LF?D?W?S?J?$LF?$MA?$PN?P?E?O?$KC?M?j?$LD?I?$KD?$KB?$AA@ 0041479c     ServiceManage.obj
 0002:000027b8       ??_C@_07MHNIFEGG@?$EARoomID?$AA@ 004147b8     ServiceManage.obj
 0002:000027c0       ??_C@_0BB@HNEAEMOL@SP_EraseRoomInfo?$AA@ 004147c0     ServiceManage.obj
 0002:000027d4       ??_C@_0CO@JEABDNDB@?W?i?$LM?$PO?$LF?D?W?S?J?$LF?$MA?$PN?P?E?O?$KC?$LG?A?H?$KB?$LH?$KC?I?z?$LE?m?N?s?$KD?$KM?I?T@ 004147d4     ServiceManage.obj
 0002:00002804       ??_C@_0L@IGGIFDML@AppleyDays?$AA@ 00414804     ServiceManage.obj
 0002:00002810       ??_C@_0N@FJPBLIEA@OpenRoomDate?$AA@ 00414810     ServiceManage.obj
 0002:00002820       ??_C@_09MIGDDLH@tenancyID?$AA@ 00414820     ServiceManage.obj
 0002:0000282c       ??_C@_08NPJFOEAA@UpPeople?$AA@ 0041482c     ServiceManage.obj
 0002:00002838       ??_C@_09BAGGAEBH@MinPeople?$AA@ 00414838     ServiceManage.obj
 0002:00002844       ??_C@_0M@BNCHGMFH@LeastPeople?$AA@ 00414844     ServiceManage.obj
 0002:00002850       ??_C@_0M@GEJKKFNJ@ContestTime?$AA@ 00414850     ServiceManage.obj
 0002:0000285c       ??_C@_07MKALMBDJ@Timeout?$AA@ 0041485c     ServiceManage.obj
 0002:00002864       ??_C@_09NOCMCMJN@ContestID?$AA@ 00414864     ServiceManage.obj
 0002:00002870       ??_C@_08MGABNFNI@LowCount?$AA@ 00414870     ServiceManage.obj
 0002:0000287c       ??_C@_07GMOICGN@LowChip?$AA@ 0041487c     ServiceManage.obj
 0002:00002884       ??_C@_04LACFHMMO@Chip?$AA@ 00414884     ServiceManage.obj
 0002:0000288c       ??_C@_0BF@CFIMEBLJ@?$CFd?9?$CFd?9?$CFd?5?$CFd?3?$CFd?3?$CFd?4?$CFd?$AA@ 0041488c     ServiceManage.obj
 0002:000028a4       ??_C@_07POFLHEIJ@BJLType?$AA@ 004148a4     ServiceManage.obj
 0002:000028ac       ??_C@_0BA@JKGHOHBC@SpecialRule?4bcf?$AA@ 004148ac     ServiceManage.obj
 0002:000028bc       ??_C@_0N@GENILIJN@RoomPassword?$AA@ 004148bc     ServiceManage.obj
 0002:000028cc       ??_C@_0BC@CJAHOAEA@TableUserNameRule?$AA@ 004148cc     ServiceManage.obj
 0002:000028e0       ??_C@_0M@EHCLEAMH@TableIPRule?$AA@ 004148e0     ServiceManage.obj
 0002:000028ec       ??_C@_0L@FKBJBEDN@TableMatch?$AA@ 004148ec     ServiceManage.obj
 0002:000028f8       ??_C@_0O@EJLPEGHJ@DeskMinPeople?$AA@ 004148f8     ServiceManage.obj
 0002:00002908       ??_C@_09FDKNKOOK@TableLock?$AA@ 00414908     ServiceManage.obj
 0002:00002914       ??_C@_08DJLKGMNC@ServerIP?$AA@ 00414914     ServiceManage.obj
 0002:00002920       ??_C@_08LJNBKBOB@RoomName?$AA@ 00414920     ServiceManage.obj
 0002:0000292c       ??_C@_09HLEGHFCC@StopLogon?$AA@ 0041492c     ServiceManage.obj
 0002:00002938       ??_C@_06BGALJGJM@RoomID?$AA@ 00414938     ServiceManage.obj
 0002:00002940       ??_C@_09PBOLOIPM@DeskCount?$AA@ 00414940     ServiceManage.obj
 0002:0000294c       ??_C@_07GGMHAAID@VIPRoom?$AA@ 0041494c     ServiceManage.obj
 0002:00002954       ??_C@_0BB@OALGJGNM@BattleMatchTable?$AA@ 00414954     ServiceManage.obj
 0002:00002968       ??_C@_0N@HJDANDBL@BattleRoomID?$AA@ 00414968     ServiceManage.obj
 0002:00002978       ??_C@_0M@DPHLMJDO@CanPalyback?$AA@ 00414978     ServiceManage.obj
 0002:00002984       ??_C@_0P@KNOGNGCI@LocationNotice?$AA@ 00414984     ServiceManage.obj
 0002:00002994       ??_C@_0N@IJFEDHIC@SameIPNotice?$AA@ 00414994     ServiceManage.obj
 0002:000029a4       ??_C@_0O@FGJMDDJF@LocationLimit?$AA@ 004149a4     ServiceManage.obj
 0002:000029b4       ??_C@_0N@HPOKEBIH@LockUserType?$AA@ 004149b4     ServiceManage.obj
 0002:000029c4       ??_C@_0BA@OMDGBGIK@VirtualGameTime?$AA@ 004149c4     ServiceManage.obj
 0002:000029d4       ??_C@_0M@EPCNODEP@VirtualUser?$AA@ 004149d4     ServiceManage.obj
 0002:000029e0       ??_C@_0L@NGIKEIEP@VipResever?$AA@ 004149e0     ServiceManage.obj
 0002:000029ec       ??_C@_09BBGKJOKD@MaxPeople?$AA@ 004149ec     ServiceManage.obj
 0002:000029f8       ??_C@_03DECHOKPP@Tax?$AA@  004149f8     ServiceManage.obj
 0002:000029fc       ??_C@_0L@HPFOIJGE@RunPublish?$AA@ 004149fc     ServiceManage.obj
 0002:00002a08       ??_C@_09IDDCBBNP@MaxLimite?$AA@ 00414a08     ServiceManage.obj
 0002:00002a14       ??_C@_08KNDFDLFC@MaxPoint?$AA@ 00414a14     ServiceManage.obj
 0002:00002a20       ??_C@_09CJIAOCLD@LessPoint?$AA@ 00414a20     ServiceManage.obj
 0002:00002a2c       ??_C@_09GOKLCKPI@BasePoint?$AA@ 00414a2c     ServiceManage.obj
 0002:00002a38       ??_C@_0L@IFMKKPAA@GameTypeID?$AA@ 00414a38     ServiceManage.obj
 0002:00002a44       ??_C@_09NLILCILJ@UserPower?$AA@ 00414a44     ServiceManage.obj
 0002:00002a50       ??_C@_08MCHIHBJN@RoomRule?$AA@ 00414a50     ServiceManage.obj
 0002:00002a5c       ??_C@_0L@IDPOKHCN@EnableRoom?$AA@ 00414a5c     ServiceManage.obj
 0002:00002a68       ??_C@_06HCHMMKKG@KindID?$AA@ 00414a68     ServiceManage.obj
 0002:00002a70       ??_C@_06CHBJAKND@IDSort?$AA@ 00414a70     ServiceManage.obj
 0002:00002a78       ??_C@_0L@LDOKKPIA@SocketPort?$AA@ 00414a78     ServiceManage.obj
 0002:00002a84       ??_C@_0P@HONBIGDI@SP_GetRoomList?$AA@ 00414a84     ServiceManage.obj
 0002:00002a94       ??_C@_02IEDEHFDG@?N?$NO?$AA@ 00414a94     ServiceManage.obj
 0002:00002a98       ??_C@_02JINPPBEP@No?$AA@   00414a98     ServiceManage.obj
 0002:00002a9c       ??_C@_03CCLAEDDF@Yes?$AA@  00414a9c     ServiceManage.obj
 0002:00002aa0       ??_C@_0M@GLIDDPBN@OnLineCount?$AA@ 00414aa0     ServiceManage.obj
 0002:00002aac       ??_C@_0BI@DKIMMMMN@SP_GetOnlinePeopleCount?$AA@ 00414aac     ServiceManage.obj
 0002:00002ac4       ??_C@_02LIIHNNHG@?6?$AN?$AA@ 00414ac4     ServiceManage.obj
 0002:00002ac8       ??_C@_0BK@HJJMBCCO@SP_ClearRoomTWLoginRecord?$AA@ 00414ac8     ServiceManage.obj
 0002:00002ae4       ??_C@_0N@FAEGKMLF@CSetupDialog?$AA@ 00414ae4     SetupDialog.obj
 0002:00002af4       ?classCSetupDialog@CSetupDialog@@2UCRuntimeClass@@B 00414af4     SetupDialog.obj
 0002:00002b30       ??_C@_0BD@HKKNPHED@?$CFY?D?j?$CFm?T?B?$CFd?H?U?$CFH?$LF?c?$CFM?$AA@ 00414b30     SetupDialog.obj
 0002:00002b44       ??_C@_07KFMIBMLD@Srv?4dll?$AA@ 00414b44     SetupDialog.obj
 0002:00002b4c       ??_C@_0O@MAAELPDF@dll?4gametable?$AA@ 00414b4c     SetupDialog.obj
 0002:00002b5c       ??_C@_04IBAKLFIK@?B?i?$LN?$KL?$AA@ 00414b5c     SetupDialog.obj
 0002:00002b6c       ??_7CSetupDialog@@6B@      00414b6c     SetupDialog.obj
 0002:00002cfc       ??_C@_06JBKGCNBB@Delete?$AA@ 00414cfc     stdafx.obj
 0002:00002d04       ??_C@_08KAAPDIAN@NoRemove?$AA@ 00414d04     stdafx.obj
 0002:00002d10       ??_C@_0M@DBGDLGLL@ForceRemove?$AA@ 00414d10     stdafx.obj
 0002:00002d1c       ??_C@_03LAIAPFCB@Val?$AA@  00414d1c     stdafx.obj
 0002:00002d20       ??_C@_01HMGJMAIH@B?$AA@    00414d20     stdafx.obj
 0002:00002d24       ??_C@_01CKDDGHAB@D?$AA@    00414d24     stdafx.obj
 0002:00002d28       ??_C@_01PLPBNMEI@M?$AA@    00414d28     stdafx.obj
 0002:00002d2c       ??_C@_01CPLAODJH@S?$AA@    00414d2c     stdafx.obj
 0002:00002d50       ??_C@_06DAIGMDCJ@?S?N?O?$LH?V?P?$AA@ 00414d50     stdafx.obj
 0002:00002d58       ??_C@_04BECHADKL@?$LG?O?O?$NP?$AA@ 00414d58     stdafx.obj
 0002:00002d60       ??_C@_08OAAKLPBD@?$LE?s?L?$PM?M?$KM?R?b?$AA@ 00414d60     stdafx.obj
 0002:00002d6c       ??_C@_04BJFNJIMM@?E?T?$LJ?$NL?$AA@ 00414d6c     stdafx.obj
 0002:00002d74       ??_C@_04MNKAPCAF@?M?$KM?R?b?$AA@ 00414d74     stdafx.obj
 0002:00002d7c       ??_C@_04CCOFPBFC@?W?x?O?B?$AA@ 00414d7c     stdafx.obj
 0002:00002d84       ??_C@_06LDHANIFK@?$LP?U?O?P?V?P?$AA@ 00414d84     stdafx.obj
 0002:00002d90       ??_7type_info@@6B@         00414d90     MSVCRT:ti_inst.obj
 0002:00002e20       __load_config_used         00414e20     MSVCRT:loadcfg.obj
 0002:00002ec4       ??_R4XMLText@tinyxml2@@6B@ 00414ec4     tinyxml2.obj
 0002:00002ed8       ??_R3XMLText@tinyxml2@@8   00414ed8     tinyxml2.obj
 0002:00002ee8       ??_R2XMLText@tinyxml2@@8   00414ee8     tinyxml2.obj
 0002:00002ef4       ??_R1A@?0A@EA@XMLText@tinyxml2@@8 00414ef4     tinyxml2.obj
 0002:00002f10       ??_R1A@?0A@EA@XMLNode@tinyxml2@@8 00414f10     tinyxml2.obj
 0002:00002f2c       ??_R3XMLNode@tinyxml2@@8   00414f2c     tinyxml2.obj
 0002:00002f3c       ??_R2XMLNode@tinyxml2@@8   00414f3c     tinyxml2.obj
 0002:00002f44       ??_R4XMLNode@tinyxml2@@6B@ 00414f44     tinyxml2.obj
 0002:00002f58       ??_R4XMLComment@tinyxml2@@6B@ 00414f58     tinyxml2.obj
 0002:00002f6c       ??_R3XMLComment@tinyxml2@@8 00414f6c     tinyxml2.obj
 0002:00002f7c       ??_R2XMLComment@tinyxml2@@8 00414f7c     tinyxml2.obj
 0002:00002f88       ??_R1A@?0A@EA@XMLComment@tinyxml2@@8 00414f88     tinyxml2.obj
 0002:00002fa4       ??_R4XMLDeclaration@tinyxml2@@6B@ 00414fa4     tinyxml2.obj
 0002:00002fb8       ??_R3XMLDeclaration@tinyxml2@@8 00414fb8     tinyxml2.obj
 0002:00002fc8       ??_R2XMLDeclaration@tinyxml2@@8 00414fc8     tinyxml2.obj
 0002:00002fd4       ??_R1A@?0A@EA@XMLDeclaration@tinyxml2@@8 00414fd4     tinyxml2.obj
 0002:00002ff0       ??_R4XMLUnknown@tinyxml2@@6B@ 00414ff0     tinyxml2.obj
 0002:00003004       ??_R3XMLUnknown@tinyxml2@@8 00415004     tinyxml2.obj
 0002:00003014       ??_R2XMLUnknown@tinyxml2@@8 00415014     tinyxml2.obj
 0002:00003020       ??_R1A@?0A@EA@XMLUnknown@tinyxml2@@8 00415020     tinyxml2.obj
 0002:0000303c       ??_R4XMLElement@tinyxml2@@6B@ 0041503c     tinyxml2.obj
 0002:00003050       ??_R3XMLElement@tinyxml2@@8 00415050     tinyxml2.obj
 0002:00003060       ??_R2XMLElement@tinyxml2@@8 00415060     tinyxml2.obj
 0002:0000306c       ??_R1A@?0A@EA@XMLElement@tinyxml2@@8 0041506c     tinyxml2.obj
 0002:00003088       ??_R4XMLAttribute@tinyxml2@@6B@ 00415088     tinyxml2.obj
 0002:0000309c       ??_R3XMLAttribute@tinyxml2@@8 0041509c     tinyxml2.obj
 0002:000030ac       ??_R2XMLAttribute@tinyxml2@@8 004150ac     tinyxml2.obj
 0002:000030b4       ??_R1A@?0A@EA@XMLAttribute@tinyxml2@@8 004150b4     tinyxml2.obj
 0002:000030d0       ??_R4XMLDocument@tinyxml2@@6B@ 004150d0     tinyxml2.obj
 0002:000030e4       ??_R3XMLDocument@tinyxml2@@8 004150e4     tinyxml2.obj
 0002:000030f4       ??_R2XMLDocument@tinyxml2@@8 004150f4     tinyxml2.obj
 0002:00003100       ??_R1A@?0A@EA@XMLDocument@tinyxml2@@8 00415100     tinyxml2.obj
 0002:0000311c       ??_R4?$MemPoolT@$0DE@@tinyxml2@@6B@ 0041511c     tinyxml2.obj
 0002:00003130       ??_R3?$MemPoolT@$0DE@@tinyxml2@@8 00415130     tinyxml2.obj
 0002:00003140       ??_R2?$MemPoolT@$0DE@@tinyxml2@@8 00415140     tinyxml2.obj
 0002:0000314c       ??_R1A@?0A@EA@?$MemPoolT@$0DE@@tinyxml2@@8 0041514c     tinyxml2.obj
 0002:00003168       ??_R1A@?0A@EA@MemPool@tinyxml2@@8 00415168     tinyxml2.obj
 0002:00003184       ??_R3MemPool@tinyxml2@@8   00415184     tinyxml2.obj
 0002:00003194       ??_R2MemPool@tinyxml2@@8   00415194     tinyxml2.obj
 0002:0000319c       ??_R4MemPool@tinyxml2@@6B@ 0041519c     tinyxml2.obj
 0002:000031b0       ??_R4?$MemPoolT@$0CE@@tinyxml2@@6B@ 004151b0     tinyxml2.obj
 0002:000031c4       ??_R3?$MemPoolT@$0CE@@tinyxml2@@8 004151c4     tinyxml2.obj
 0002:000031d4       ??_R2?$MemPoolT@$0CE@@tinyxml2@@8 004151d4     tinyxml2.obj
 0002:000031e0       ??_R1A@?0A@EA@?$MemPoolT@$0CE@@tinyxml2@@8 004151e0     tinyxml2.obj
 0002:000031fc       ??_R4?$MemPoolT@$0DA@@tinyxml2@@6B@ 004151fc     tinyxml2.obj
 0002:00003210       ??_R3?$MemPoolT@$0DA@@tinyxml2@@8 00415210     tinyxml2.obj
 0002:00003220       ??_R2?$MemPoolT@$0DA@@tinyxml2@@8 00415220     tinyxml2.obj
 0002:0000322c       ??_R1A@?0A@EA@?$MemPoolT@$0DA@@tinyxml2@@8 0041522c     tinyxml2.obj
 0002:00003248       ??_R4?$MemPoolT@$0CM@@tinyxml2@@6B@ 00415248     tinyxml2.obj
 0002:0000325c       ??_R3?$MemPoolT@$0CM@@tinyxml2@@8 0041525c     tinyxml2.obj
 0002:0000326c       ??_R2?$MemPoolT@$0CM@@tinyxml2@@8 0041526c     tinyxml2.obj
 0002:00003278       ??_R1A@?0A@EA@?$MemPoolT@$0CM@@tinyxml2@@8 00415278     tinyxml2.obj
 0002:00003294       ??_R1A@?0A@EA@CDialog@@8   00415294     AddRoomDialog.obj
 0002:000032b0       ??_R3CDialog@@8            004152b0     AddRoomDialog.obj
 0002:000032c0       ??_R2CDialog@@8            004152c0     AddRoomDialog.obj
 0002:000032d4       ??_R1A@?0A@EA@CWnd@@8      004152d4     AddRoomDialog.obj
 0002:000032f0       ??_R3CWnd@@8               004152f0     AddRoomDialog.obj
 0002:00003300       ??_R2CWnd@@8               00415300     AddRoomDialog.obj
 0002:00003310       ??_R1A@?0A@EA@CCmdTarget@@8 00415310     AddRoomDialog.obj
 0002:0000332c       ??_R3CCmdTarget@@8         0041532c     AddRoomDialog.obj
 0002:0000333c       ??_R2CCmdTarget@@8         0041533c     AddRoomDialog.obj
 0002:00003348       ??_R1A@?0A@EA@CObject@@8   00415348     AddRoomDialog.obj
 0002:00003364       ??_R3CObject@@8            00415364     AddRoomDialog.obj
 0002:00003374       ??_R2CObject@@8            00415374     AddRoomDialog.obj
 0002:0000337c       ??_R4CAFCLoaderApp@@6B@    0041537c     AFCLoader.obj
 0002:00003390       ??_R3CAFCLoaderApp@@8      00415390     AFCLoader.obj
 0002:000033a0       ??_R2CAFCLoaderApp@@8      004153a0     AFCLoader.obj
 0002:000033b8       ??_R1A@?0A@EA@CAFCLoaderApp@@8 004153b8     AFCLoader.obj
 0002:000033d4       ??_R1A@?0A@EA@CWinApp@@8   004153d4     AFCLoader.obj
 0002:000033f0       ??_R3CWinApp@@8            004153f0     AFCLoader.obj
 0002:00003400       ??_R2CWinApp@@8            00415400     AFCLoader.obj
 0002:00003414       ??_R1A@?0A@EA@CWinThread@@8 00415414     AFCLoader.obj
 0002:00003430       ??_R3CWinThread@@8         00415430     AFCLoader.obj
 0002:00003440       ??_R2CWinThread@@8         00415440     AFCLoader.obj
 0002:00003450       ??_R4CChildView@@6B@       00415450     ChildView.obj
 0002:00003464       ??_R3CChildView@@8         00415464     ChildView.obj
 0002:00003474       ??_R2CChildView@@8         00415474     ChildView.obj
 0002:00003488       ??_R1A@?0A@EA@CChildView@@8 00415488     ChildView.obj
 0002:000034a4       ??_R4CStatic@@6B@          004154a4     ChildView.obj
 0002:000034b8       ??_R3CStatic@@8            004154b8     ChildView.obj
 0002:000034c8       ??_R2CStatic@@8            004154c8     ChildView.obj
 0002:000034dc       ??_R1A@?0A@EA@CStatic@@8   004154dc     ChildView.obj
 0002:000034f8       ??_R4CMainFrame@@6BCFrameWnd@@@ 004154f8     MainFrm.obj
 0002:0000350c       ??_R3CMainFrame@@8         0041550c     MainFrm.obj
 0002:0000351c       ??_R2CMainFrame@@8         0041551c     MainFrm.obj
 0002:00003538       ??_R1A@?0A@EA@CMainFrame@@8 00415538     MainFrm.obj
 0002:00003554       ??_R1A@?0A@EA@CFrameWnd@@8 00415554     MainFrm.obj
 0002:00003570       ??_R3CFrameWnd@@8          00415570     MainFrm.obj
 0002:00003580       ??_R2CFrameWnd@@8          00415580     MainFrm.obj
 0002:00003594       ??_R1BBA@?0A@EA@IMessageShow@@8 00415594     MainFrm.obj
 0002:000035b0       ??_R3IMessageShow@@8       004155b0     MainFrm.obj
 0002:000035c0       ??_R2IMessageShow@@8       004155c0     MainFrm.obj
 0002:000035c8       ??_R1A@?0A@EA@IMessageShow@@8 004155c8     MainFrm.obj
 0002:000035e4       ??_R4CMainFrame@@6BIMessageShow@@@ 004155e4     MainFrm.obj
 0002:000035f8       ??_R4IMessageShow@@6B@     004155f8     MainFrm.obj
 0002:0000360c       ??_R4CMenu@@6B@            0041560c     MainFrm.obj
 0002:00003620       ??_R3CMenu@@8              00415620     MainFrm.obj
 0002:00003630       ??_R2CMenu@@8              00415630     MainFrm.obj
 0002:0000363c       ??_R1A@?0A@EA@CMenu@@8     0041563c     MainFrm.obj
 0002:00003658       ??_R4CEdit@@6B@            00415658     RegKeyDlg.obj
 0002:0000366c       ??_R3CEdit@@8              0041566c     RegKeyDlg.obj
 0002:0000367c       ??_R2CEdit@@8              0041567c     RegKeyDlg.obj
 0002:00003690       ??_R1A@?0A@EA@CEdit@@8     00415690     RegKeyDlg.obj
 0002:000036ac       ??_R4CBaseDialog@@6B@      004156ac     ServiceControl.obj
 0002:000036c0       ??_R3CBaseDialog@@8        004156c0     ServiceControl.obj
 0002:000036d0       ??_R2CBaseDialog@@8        004156d0     ServiceControl.obj
 0002:000036e8       ??_R1A@?0A@EA@CBaseDialog@@8 004156e8     ServiceControl.obj
 0002:00003704       ??_R4CServiceControl@@6B@  00415704     ServiceControl.obj
 0002:00003718       ??_R3CServiceControl@@8    00415718     ServiceControl.obj
 0002:00003728       ??_R2CServiceControl@@8    00415728     ServiceControl.obj
 0002:00003744       ??_R1A@?0A@EA@CServiceControl@@8 00415744     ServiceControl.obj
 0002:00003760       ??_R4CListCtrl@@6B@        00415760     ServiceControl.obj
 0002:00003774       ??_R3CListCtrl@@8          00415774     ServiceControl.obj
 0002:00003784       ??_R2CListCtrl@@8          00415784     ServiceControl.obj
 0002:00003798       ??_R1A@?0A@EA@CListCtrl@@8 00415798     ServiceControl.obj
 0002:000037b4       ??_R4CServiceManage@@6B@   004157b4     ServiceManage.obj
 0002:000037c8       ??_R3CServiceManage@@8     004157c8     ServiceManage.obj
 0002:000037d8       ??_R2CServiceManage@@8     004157d8     ServiceManage.obj
 0002:000037e4       ??_R1A@?0A@EA@CServiceManage@@8 004157e4     ServiceManage.obj
 0002:00003800       ??_R1A@?0A@EA@IClientSocketService@@8 00415800     ServiceManage.obj
 0002:0000381c       ??_R3IClientSocketService@@8 0041581c     ServiceManage.obj
 0002:0000382c       ??_R2IClientSocketService@@8 0041582c     ServiceManage.obj
 0002:00003834       ??_R4IClientSocketService@@6B@ 00415834     ServiceManage.obj
 0002:00003848       ??_R4CSetupDialog@@6B@     00415848     SetupDialog.obj
 0002:0000385c       ??_R3CSetupDialog@@8       0041585c     SetupDialog.obj
 0002:0000386c       ??_R2CSetupDialog@@8       0041586c     SetupDialog.obj
 0002:00003884       ??_R1A@?0A@EA@CSetupDialog@@8 00415884     SetupDialog.obj
 0002:000038a0       ??_R4type_info@@6B@        004158a0     MSVCRT:ti_inst.obj
 0002:000038b4       ??_R3type_info@@8          004158b4     MSVCRT:ti_inst.obj
 0002:000038c4       ??_R2type_info@@8          004158c4     MSVCRT:ti_inst.obj
 0002:000038cc       ??_R1A@?0A@EA@type_info@@8 004158cc     MSVCRT:ti_inst.obj
 0002:000038f0       ___safe_se_handler_table   004158f0     <linker-defined>
 0002:000039b8       ___rtc_iaa                 004159b8     MSVCRT:_initsect_.obj
 0002:000039bc       ___rtc_izz                 004159bc     MSVCRT:_initsect_.obj
 0002:000039c0       ___rtc_taa                 004159c0     MSVCRT:_initsect_.obj
 0002:000039c4       ___rtc_tzz                 004159c4     MSVCRT:_initsect_.obj
 0002:00004174       __TI2PAD                   00416174     ServiceManage.obj
 0002:000041fc       __CTA2PAD                  004161fc     ServiceManage.obj
 0002:00004208       __CT??_R0PAD@84            00416208     ServiceManage.obj
 0002:00004224       __CT??_R0PAX@84            00416224     ServiceManage.obj
 0002:000046e4       __IMPORT_DESCRIPTOR_AFCComDllEx 004166e4     AFCComDllEx:AFCComDllEx.dll
 0002:000046f8       __IMPORT_DESCRIPTOR_HNlibSqlEngine 004166f8     HNlibSqlEngine:HNlibSqlEngine.dll
 0002:0000470c       __IMPORT_DESCRIPTOR_MSVCR100 0041670c     MSVCRT:MSVCR100.dll
 0002:00004720       __IMPORT_DESCRIPTOR_mfc100 00416720     mfc100:mfc100.dll
 0002:00004734       __IMPORT_DESCRIPTOR_KERNEL32 00416734     kernel32:KERNEL32.dll
 0002:00004748       __IMPORT_DESCRIPTOR_USER32 00416748     user32:USER32.dll
 0002:0000475c       __IMPORT_DESCRIPTOR_SHELL32 0041675c     shell32:SHELL32.dll
 0002:00004770       __IMPORT_DESCRIPTOR_COMCTL32 00416770     comctl32:COMCTL32.dll
 0002:00004784       __IMPORT_DESCRIPTOR_WSOCK32 00416784     wsock32:WSOCK32.dll
 0002:00004798       __IMPORT_DESCRIPTOR_dbghelp 00416798     dbghelp:dbghelp.dll
 0002:000047ac       __NULL_IMPORT_DESCRIPTOR   004167ac     AFCComDllEx:AFCComDllEx.dll
 0003:00000014       ??_R0?AVXMLText@tinyxml2@@@8 00418014     tinyxml2.obj
 0003:00000034       ??_R0?AVXMLNode@tinyxml2@@@8 00418034     tinyxml2.obj
 0003:00000054       ??_R0?AVXMLComment@tinyxml2@@@8 00418054     tinyxml2.obj
 0003:00000078       ??_R0?AVXMLDeclaration@tinyxml2@@@8 00418078     tinyxml2.obj
 0003:000000a0       ??_R0?AVXMLUnknown@tinyxml2@@@8 004180a0     tinyxml2.obj
 0003:000000c4       ??_R0?AVXMLElement@tinyxml2@@@8 004180c4     tinyxml2.obj
 0003:000000e8       ??_R0?AVXMLAttribute@tinyxml2@@@8 004180e8     tinyxml2.obj
 0003:0000010c       ??_R0?AVXMLDocument@tinyxml2@@@8 0041810c     tinyxml2.obj
 0003:00000130       ??_R0?AV?$MemPoolT@$0DE@@tinyxml2@@@8 00418130     tinyxml2.obj
 0003:00000158       ??_R0?AVMemPool@tinyxml2@@@8 00418158     tinyxml2.obj
 0003:00000178       ??_R0?AV?$MemPoolT@$0CE@@tinyxml2@@@8 00418178     tinyxml2.obj
 0003:000001a0       ??_R0?AV?$MemPoolT@$0DA@@tinyxml2@@@8 004181a0     tinyxml2.obj
 0003:000001c8       ??_R0?AV?$MemPoolT@$0CM@@tinyxml2@@@8 004181c8     tinyxml2.obj
 0003:000001f0       ??_R0?AVCDialog@@@8        004181f0     AddRoomDialog.obj
 0003:00000208       ??_R0?AVCWnd@@@8           00418208     AddRoomDialog.obj
 0003:0000021c       ??_R0?AVCCmdTarget@@@8     0041821c     AddRoomDialog.obj
 0003:00000238       ??_R0?AVCObject@@@8        00418238     AddRoomDialog.obj
 0003:00000250       ??_R0?AVCAFCLoaderApp@@@8  00418250     AFCLoader.obj
 0003:0000026c       ??_R0?AVCWinApp@@@8        0041826c     AFCLoader.obj
 0003:00000284       ??_R0?AVCWinThread@@@8     00418284     AFCLoader.obj
 0003:000002a0       ??_R0?AVCChildView@@@8     004182a0     ChildView.obj
 0003:000002bc       ??_R0?AVCStatic@@@8        004182bc     ChildView.obj
 0003:000002d8       ?g_FreeGameSet@@3PAEA      004182d8     GameSelectData.obj
 0003:000002e0       ?g_PayGameSet@@3PAEA       004182e0     GameSelectData.obj
 0003:00000370       ??_R0?AVCMainFrame@@@8     00418370     MainFrm.obj
 0003:0000038c       ??_R0?AVCFrameWnd@@@8      0041838c     MainFrm.obj
 0003:000003a4       ??_R0?AUIMessageShow@@@8   004183a4     MainFrm.obj
 0003:000003c0       ??_R0?AVCMenu@@@8          004183c0     MainFrm.obj
 0003:000003d4       ??_R0?AVCEdit@@@8          004183d4     RegKeyDlg.obj
 0003:000003e8       ??_R0?AVCBaseDialog@@@8    004183e8     ServiceControl.obj
 0003:00000404       ??_R0?AVCServiceControl@@@8 00418404     ServiceControl.obj
 0003:00000424       ??_R0?AVCListCtrl@@@8      00418424     ServiceControl.obj
 0003:0000043c       ??_R0?AVCServiceManage@@@8 0041843c     ServiceManage.obj
 0003:0000045c       ??_R0?AUIClientSocketService@@@8 0041845c     ServiceManage.obj
 0003:00000480       ??_R0PAD@8                 00418480     ServiceManage.obj
 0003:00000490       ??_R0PAVCAFCException@@@8  00418490     ServiceManage.obj
 0003:000004ac       ??_R0PAX@8                 004184ac     ServiceManage.obj
 0003:000004bc       ??_R0?AVCSetupDialog@@@8   004184bc     SetupDialog.obj
 0003:000004d8       ___security_cookie         004184d8     MSVCRT:gs_cookie.obj
 0003:000004dc       ___security_cookie_complement 004184dc     MSVCRT:gs_cookie.obj
 0003:000004e0       ??_R0?AVtype_info@@@8      004184e0     MSVCRT:ti_inst.obj
 0003:00000500       ___native_dllmain_reason   00418500     MSVCRT:natstart.obj
 0003:00000504       ___native_vcclrit_reason   00418504     MSVCRT:natstart.obj
 0003:00000508       ___globallocalestatus      00418508     MSVCRT:xthdloc.obj
 0003:0000050c       ___defaultmatherr          0041850c     MSVCRT:merr.obj
 0003:00000518       ?theApp@@3VCAFCLoaderApp@@A 00418518     AFCLoader.obj
 0003:000005d8       ?g_Service@@3VCServiceManage@@A 004185d8     MainFrm.obj
 0003:00000c1c       __dowildcard               00418c1c     MSVCRT:wildcard.obj
 0003:00000c20       __newmode                  00418c20     MSVCRT:_newmode.obj
 0003:00000c24       __commode                  00418c24     MSVCRT:xncommod.obj
 0003:00000c28       __fmode                    00418c28     MSVCRT:xtxtmode.obj
 0003:00000c2c       __afxForceEXCLUDE          00418c2c     mfcs100:nolib.obj
 0003:00000c30       __afxForceSTDAFX           00418c30     mfcs100:stdafx.obj
 0003:00000c34       ?_afxInitAppState@@3DA     00418c34     mfcs100:appmodul.obj
 0003:00000c38       ___native_startup_state    00418c38     <common>
 0003:00000c3c       ___native_startup_lock     00418c3c     <common>
 0003:00000c40       __NoHeapEnableTerminationOnCorruption 00418c40     <common>
 0003:00000c44       ___dyn_tls_init_callback   00418c44     <common>
 0003:00000c48       ___onexitend               00418c48     <common>
 0003:00000c4c       ___onexitbegin             00418c4c     <common>

 entry point at        0001:0000e7b3

 Static symbols

 0001:00004f50       _time                      00405f50 f   AFCLoader.obj
 0001:00009606       __catch$?bGetServiceInfo@CServiceManage@@QAE_NPAUSC_GameRoomInitStruct@@@Z$0 0040a606 f   ServiceManage.obj
 0001:00009660       _stat                      0040a660 f   ServiceManage.obj
 0001:00009744       __catch$?StartGameRoom@CServiceManage@@QAE_NPAUSC_GameRoomInitStruct@@@Z$0 0040a744 f   ServiceManage.obj
 0001:00009762       __catch$?StartGameRoom@CServiceManage@@QAE_NPAUSC_GameRoomInitStruct@@@Z$1 0040a762 f   ServiceManage.obj
 0001:00009795       __catch$?StartGameRoom@CServiceManage@@QAE_NPAUSC_GameRoomInitStruct@@@Z$2 0040a795 f   ServiceManage.obj
 0001:0000a8a1       __catch$?StopGameRoom@CServiceManage@@QAE_NPAUSC_GameRoomInitStruct@@@Z$0 0040b8a1 f   ServiceManage.obj
 0001:0000a8bf       __catch$?StopGameRoom@CServiceManage@@QAE_NPAUSC_GameRoomInitStruct@@@Z$1 0040b8bf f   ServiceManage.obj
 0001:0000b72c       __catch$?DeleteGameRoomInfo@CServiceManage@@QAE_NPAUSC_GameRoomInitStruct@@@Z$0 0040c72c f   ServiceManage.obj
 0001:0000c9f6       __catch$?GetRoomListInfo@CServiceManage@@QAE_NXZ$0 0040d9f6 f   ServiceManage.obj
 0001:0000d3a4       __catch$?CountOnLinePeople@CServiceManage@@QAEXPAVCListCtrl@@0@Z$0 0040e3a4 f   ServiceManage.obj
 0001:0000e4d5       _pre_cpp_init              0040f4d5 f   MSVCRT:crtexew.obj
 0001:0000e520       ___tmainCRTStartup         0040f520 f   MSVCRT:crtexew.obj
 0001:0000e6f9       _pre_c_init                0040f6f9 f   MSVCRT:crtexew.obj
 0001:0000f270       __unwindfunclet$?Identify@XMLDocument@tinyxml2@@QAEPADPADPAPAVXMLNode@2@@Z$0 00410270 f   tinyxml2.obj
 0001:0000f287       __unwindfunclet$?Identify@XMLDocument@tinyxml2@@QAEPADPADPAPAVXMLNode@2@@Z$1 00410287 f   tinyxml2.obj
 0001:0000f29e       __unwindfunclet$?Identify@XMLDocument@tinyxml2@@QAEPADPADPAPAVXMLNode@2@@Z$2 0041029e f   tinyxml2.obj
 0001:0000f2b5       __unwindfunclet$?Identify@XMLDocument@tinyxml2@@QAEPADPADPAPAVXMLNode@2@@Z$3 004102b5 f   tinyxml2.obj
 0001:0000f2c6       __unwindfunclet$?Identify@XMLDocument@tinyxml2@@QAEPADPADPAPAVXMLNode@2@@Z$4 004102c6 f   tinyxml2.obj
 0001:0000f2d7       __unwindfunclet$?Identify@XMLDocument@tinyxml2@@QAEPADPADPAPAVXMLNode@2@@Z$5 004102d7 f   tinyxml2.obj
 0001:0000f2e8       __ehhandler$?Identify@XMLDocument@tinyxml2@@QAEPADPADPAPAVXMLNode@2@@Z 004102e8 f   tinyxml2.obj
 0001:0000f310       __unwindfunclet$??1XMLNode@tinyxml2@@MAE@XZ$0 00410310 f   tinyxml2.obj
 0001:0000f31b       __ehhandler$??1XMLNode@tinyxml2@@MAE@XZ 0041031b f   tinyxml2.obj
 0001:0000f340       __unwindfunclet$?ParseDeep@XMLNode@tinyxml2@@UAEPADPADPAVStrPair@2@@Z$0 00410340 f   tinyxml2.obj
 0001:0000f348       __ehhandler$?ParseDeep@XMLNode@tinyxml2@@UAEPADPADPAVStrPair@2@@Z 00410348 f   tinyxml2.obj
 0001:0000f370       __unwindfunclet$??1XMLElement@tinyxml2@@EAE@XZ$0 00410370 f   tinyxml2.obj
 0001:0000f378       __ehhandler$??1XMLElement@tinyxml2@@EAE@XZ 00410378 f   tinyxml2.obj
 0001:0000f3a0       __unwindfunclet$?FindOrCreateAttribute@XMLElement@tinyxml2@@AAEPAVXMLAttribute@2@PBD@Z$0 004103a0 f   tinyxml2.obj
 0001:0000f3b1       __ehhandler$?FindOrCreateAttribute@XMLElement@tinyxml2@@AAEPAVXMLAttribute@2@PBD@Z 004103b1 f   tinyxml2.obj
 0001:0000f3d0       __unwindfunclet$??0XMLAttribute@tinyxml2@@AAE@XZ$0 004103d0 f   tinyxml2.obj
 0001:0000f3d0       __unwindfunclet$??1XMLAttribute@tinyxml2@@EAE@XZ$0 004103d0 f   tinyxml2.obj
 0001:0000f3db       __ehhandler$??1XMLAttribute@tinyxml2@@EAE@XZ 004103db f   tinyxml2.obj
 0001:0000f3db       __ehhandler$??0XMLAttribute@tinyxml2@@AAE@XZ 004103db f   tinyxml2.obj
 0001:0000f400       __unwindfunclet$?ParseAttributes@XMLElement@tinyxml2@@AAEPADPAD@Z$0 00410400 f   tinyxml2.obj
 0001:0000f411       __ehhandler$?ParseAttributes@XMLElement@tinyxml2@@AAEPADPAD@Z 00410411 f   tinyxml2.obj
 0001:0000f430       __unwindfunclet$??0XMLDocument@tinyxml2@@QAE@_NW4Whitespace@1@@Z$0 00410430 f   tinyxml2.obj
 0001:0000f438       __unwindfunclet$??0XMLDocument@tinyxml2@@QAE@_NW4Whitespace@1@@Z$1 00410438 f   tinyxml2.obj
 0001:0000f443       __unwindfunclet$??0XMLDocument@tinyxml2@@QAE@_NW4Whitespace@1@@Z$2 00410443 f   tinyxml2.obj
 0001:0000f451       __unwindfunclet$??0XMLDocument@tinyxml2@@QAE@_NW4Whitespace@1@@Z$3 00410451 f   tinyxml2.obj
 0001:0000f45f       __ehhandler$??0XMLDocument@tinyxml2@@QAE@_NW4Whitespace@1@@Z 0041045f f   tinyxml2.obj
 0001:0000f480       __unwindfunclet$??1XMLDocument@tinyxml2@@UAE@XZ$0 00410480 f   tinyxml2.obj
 0001:0000f488       __unwindfunclet$??1XMLDocument@tinyxml2@@UAE@XZ$1 00410488 f   tinyxml2.obj
 0001:0000f493       __unwindfunclet$??1XMLDocument@tinyxml2@@UAE@XZ$2 00410493 f   tinyxml2.obj
 0001:0000f4a1       __unwindfunclet$??1XMLDocument@tinyxml2@@UAE@XZ$3 004104a1 f   tinyxml2.obj
 0001:0000f4af       __unwindfunclet$??1XMLDocument@tinyxml2@@UAE@XZ$4 004104af f   tinyxml2.obj
 0001:0000f4bd       __ehhandler$??1XMLDocument@tinyxml2@@UAE@XZ 004104bd f   tinyxml2.obj
 0001:0000f4e0       __unwindfunclet$?NewDeclaration@XMLDocument@tinyxml2@@QAEPAVXMLDeclaration@2@PBD@Z$0 004104e0 f   tinyxml2.obj
 0001:0000f4e0       __unwindfunclet$?NewUnknown@XMLDocument@tinyxml2@@QAEPAVXMLUnknown@2@PBD@Z$0 004104e0 f   tinyxml2.obj
 0001:0000f4e0       __unwindfunclet$?NewText@XMLDocument@tinyxml2@@QAEPAVXMLText@2@PBD@Z$0 004104e0 f   tinyxml2.obj
 0001:0000f4e0       __unwindfunclet$?NewComment@XMLDocument@tinyxml2@@QAEPAVXMLComment@2@PBD@Z$0 004104e0 f   tinyxml2.obj
 0001:0000f4e0       __unwindfunclet$?NewElement@XMLDocument@tinyxml2@@QAEPAVXMLElement@2@PBD@Z$0 004104e0 f   tinyxml2.obj
 0001:0000f4f1       __ehhandler$?NewUnknown@XMLDocument@tinyxml2@@QAEPAVXMLUnknown@2@PBD@Z 004104f1 f   tinyxml2.obj
 0001:0000f4f1       __ehhandler$?NewElement@XMLDocument@tinyxml2@@QAEPAVXMLElement@2@PBD@Z 004104f1 f   tinyxml2.obj
 0001:0000f4f1       __ehhandler$?NewText@XMLDocument@tinyxml2@@QAEPAVXMLText@2@PBD@Z 004104f1 f   tinyxml2.obj
 0001:0000f4f1       __ehhandler$?NewComment@XMLDocument@tinyxml2@@QAEPAVXMLComment@2@PBD@Z 004104f1 f   tinyxml2.obj
 0001:0000f4f1       __ehhandler$?NewDeclaration@XMLDocument@tinyxml2@@QAEPAVXMLDeclaration@2@PBD@Z 004104f1 f   tinyxml2.obj
 0001:0000f510       __unwindfunclet$??0?$MemPoolT@$0CE@@tinyxml2@@QAE@XZ$0 00410510 f   tinyxml2.obj
 0001:0000f510       __unwindfunclet$??0?$MemPoolT@$0CM@@tinyxml2@@QAE@XZ$0 00410510 f   tinyxml2.obj
 0001:0000f510       __unwindfunclet$??0?$MemPoolT@$0DE@@tinyxml2@@QAE@XZ$0 00410510 f   tinyxml2.obj
 0001:0000f510       __unwindfunclet$??0?$MemPoolT@$0DA@@tinyxml2@@QAE@XZ$0 00410510 f   tinyxml2.obj
 0001:0000f518       __ehhandler$??0?$MemPoolT@$0CM@@tinyxml2@@QAE@XZ 00410518 f   tinyxml2.obj
 0001:0000f518       __ehhandler$??0?$MemPoolT@$0CE@@tinyxml2@@QAE@XZ 00410518 f   tinyxml2.obj
 0001:0000f518       __ehhandler$??0?$MemPoolT@$0DA@@tinyxml2@@QAE@XZ 00410518 f   tinyxml2.obj
 0001:0000f518       __ehhandler$??0?$MemPoolT@$0DE@@tinyxml2@@QAE@XZ 00410518 f   tinyxml2.obj
 0001:0000f540       __unwindfunclet$??1?$MemPoolT@$0DA@@tinyxml2@@UAE@XZ$0 00410540 f   tinyxml2.obj
 0001:0000f540       __unwindfunclet$??1?$MemPoolT@$0CM@@tinyxml2@@UAE@XZ$0 00410540 f   tinyxml2.obj
 0001:0000f540       __unwindfunclet$??1?$MemPoolT@$0CE@@tinyxml2@@UAE@XZ$0 00410540 f   tinyxml2.obj
 0001:0000f540       __unwindfunclet$??1?$MemPoolT@$0DE@@tinyxml2@@UAE@XZ$0 00410540 f   tinyxml2.obj
 0001:0000f548       __unwindfunclet$??1?$MemPoolT@$0DE@@tinyxml2@@UAE@XZ$1 00410548 f   tinyxml2.obj
 0001:0000f548       __unwindfunclet$??1?$MemPoolT@$0CE@@tinyxml2@@UAE@XZ$1 00410548 f   tinyxml2.obj
 0001:0000f548       __unwindfunclet$??1?$MemPoolT@$0CM@@tinyxml2@@UAE@XZ$1 00410548 f   tinyxml2.obj
 0001:0000f548       __unwindfunclet$??1?$MemPoolT@$0DA@@tinyxml2@@UAE@XZ$1 00410548 f   tinyxml2.obj
 0001:0000f553       __ehhandler$??1?$MemPoolT@$0DE@@tinyxml2@@UAE@XZ 00410553 f   tinyxml2.obj
 0001:0000f553       __ehhandler$??1?$MemPoolT@$0CE@@tinyxml2@@UAE@XZ 00410553 f   tinyxml2.obj
 0001:0000f553       __ehhandler$??1?$MemPoolT@$0DA@@tinyxml2@@UAE@XZ 00410553 f   tinyxml2.obj
 0001:0000f553       __ehhandler$??1?$MemPoolT@$0CM@@tinyxml2@@UAE@XZ 00410553 f   tinyxml2.obj
 0001:0000f570       __unwindfunclet$?MyUnhandledExceptionFilter@@YGJPAU_EXCEPTION_POINTERS@@@Z$0 00410570 f   AFCLoader.obj
 0001:0000f579       __unwindfunclet$?MyUnhandledExceptionFilter@@YGJPAU_EXCEPTION_POINTERS@@@Z$1 00410579 f   AFCLoader.obj
 0001:0000f585       __ehhandler$?MyUnhandledExceptionFilter@@YGJPAU_EXCEPTION_POINTERS@@@Z 00410585 f   AFCLoader.obj
 0001:0000f5b0       __unwindfunclet$?CheckBanBen@CAFCLoaderApp@@QAE_NXZ$0 004105b0 f   AFCLoader.obj
 0001:0000f5b9       __ehhandler$?CheckBanBen@CAFCLoaderApp@@QAE_NXZ 004105b9 f   AFCLoader.obj
 0001:0000f5e0       __unwindfunclet$?InitInstance@CAFCLoaderApp@@UAEHXZ$0 004105e0 f   AFCLoader.obj
 0001:0000f5ed       __ehhandler$?InitInstance@CAFCLoaderApp@@UAEHXZ 004105ed f   AFCLoader.obj
 0001:0000f620       __unwindfunclet$??0CChildView@@QAE@XZ$0 00410620 f   ChildView.obj
 0001:0000f620       __unwindfunclet$??1CChildView@@UAE@XZ$0 00410620 f   ChildView.obj
 0001:0000f628       __ehhandler$??1CChildView@@UAE@XZ 00410628 f   ChildView.obj
 0001:0000f628       __ehhandler$??0CChildView@@QAE@XZ 00410628 f   ChildView.obj
 0001:0000f650       __unwindfunclet$?OnCreate@CChildView@@IAEHPAUtagCREATESTRUCTA@@@Z$0 00410650 f   ChildView.obj
 0001:0000f65a       __ehhandler$?OnCreate@CChildView@@IAEHPAUtagCREATESTRUCTA@@@Z 0041065a f   ChildView.obj
 0001:0000f680       __unwindfunclet$?GetNameIDFromFreeTable@CGameSelecter@@AAEII@Z$0 00410680 f   GameSelect.obj
 0001:0000f680       __unwindfunclet$?GetNameIDFromPayTable@CGameSelecter@@AAEII@Z$0 00410680 f   GameSelect.obj
 0001:0000f689       __ehhandler$?GetNameIDFromFreeTable@CGameSelecter@@AAEII@Z 00410689 f   GameSelect.obj
 0001:0000f689       __ehhandler$?GetNameIDFromPayTable@CGameSelecter@@AAEII@Z 00410689 f   GameSelect.obj
 0001:0000f6c0       __unwindfunclet$??1CMainFrame@@UAE@XZ$0 004106c0 f   MainFrm.obj
 0001:0000f6c0       __unwindfunclet$??0CMainFrame@@QAE@XZ$0 004106c0 f   MainFrm.obj
 0001:0000f6c8       __unwindfunclet$??1CMainFrame@@UAE@XZ$1 004106c8 f   MainFrm.obj
 0001:0000f6c8       __unwindfunclet$??0CMainFrame@@QAE@XZ$1 004106c8 f   MainFrm.obj
 0001:0000f6d6       __ehhandler$??1CMainFrame@@UAE@XZ 004106d6 f   MainFrm.obj
 0001:0000f6d6       __ehhandler$??0CMainFrame@@QAE@XZ 004106d6 f   MainFrm.obj
 0001:0000f700       __unwindfunclet$?OnCreate@CMainFrame@@QAEHPAUtagCREATESTRUCTA@@@Z$0 00410700 f   MainFrm.obj
 0001:0000f709       __unwindfunclet$?OnCreate@CMainFrame@@QAEHPAUtagCREATESTRUCTA@@@Z$1 00410709 f   MainFrm.obj
 0001:0000f712       __ehhandler$?OnCreate@CMainFrame@@QAEHPAUtagCREATESTRUCTA@@@Z 00410712 f   MainFrm.obj
 0001:0000f740       __unwindfunclet$?PreTranslateMessage@CMainFrame@@UAEHPAUtagMSG@@@Z$0 00410740 f   MainFrm.obj
 0001:0000f749       __ehhandler$?PreTranslateMessage@CMainFrame@@UAEHPAUtagMSG@@@Z 00410749 f   MainFrm.obj
 0001:0000f770       __unwindfunclet$?OnMouseLeave@CMainFrame@@QAEJIJ@Z$0 00410770 f   MainFrm.obj
 0001:0000f779       __ehhandler$?OnMouseLeave@CMainFrame@@QAEJIJ@Z 00410779 f   MainFrm.obj
 0001:0000f7a0       __unwindfunclet$?OnTrayIconNotify@CMainFrame@@QAEJIJ@Z$0 004107a0 f   MainFrm.obj
 0001:0000f7a8       __ehhandler$?OnTrayIconNotify@CMainFrame@@QAEJIJ@Z 004107a8 f   MainFrm.obj
 0001:0000f7d0       __unwindfunclet$??1CMenu@@UAE@XZ$0 004107d0 f   MainFrm.obj
 0001:0000f7d8       __ehhandler$??1CMenu@@UAE@XZ 004107d8 f   MainFrm.obj
 0001:0000f800       __unwindfunclet$??1CServiceControl@@UAE@XZ$0 00410800 f   ServiceControl.obj
 0001:0000f800       __unwindfunclet$??0CServiceControl@@QAE@XZ$0 00410800 f   ServiceControl.obj
 0001:0000f808       __unwindfunclet$??0CServiceControl@@QAE@XZ$1 00410808 f   ServiceControl.obj
 0001:0000f808       __unwindfunclet$??1CServiceControl@@UAE@XZ$1 00410808 f   ServiceControl.obj
 0001:0000f816       __ehhandler$??0CServiceControl@@QAE@XZ 00410816 f   ServiceControl.obj
 0001:0000f816       __ehhandler$??1CServiceControl@@UAE@XZ 00410816 f   ServiceControl.obj
 0001:0000f840       __unwindfunclet$?OnBnClickedStop@CServiceControl@@QAEXXZ$0 00410840 f   ServiceControl.obj
 0001:0000f849       __ehhandler$?OnBnClickedStop@CServiceControl@@QAEXXZ 00410849 f   ServiceControl.obj
 0001:0000f870       __unwindfunclet$?OnBnClickedStart@CServiceControl@@QAEXXZ$0 00410870 f   ServiceControl.obj
 0001:0000f879       __unwindfunclet$?OnBnClickedStart@CServiceControl@@QAEXXZ$1 00410879 f   ServiceControl.obj
 0001:0000f882       __unwindfunclet$?OnBnClickedStart@CServiceControl@@QAEXXZ$2 00410882 f   ServiceControl.obj
 0001:0000f88b       __unwindfunclet$?OnBnClickedStart@CServiceControl@@QAEXXZ$4 0041088b f   ServiceControl.obj
 0001:0000f894       __unwindfunclet$?OnBnClickedStart@CServiceControl@@QAEXXZ$5 00410894 f   ServiceControl.obj
 0001:0000f89d       __ehhandler$?OnBnClickedStart@CServiceControl@@QAEXXZ 0041089d f   ServiceControl.obj
 0001:0000f8c0       __unwindfunclet$?OnBnClickedSetCom@CServiceControl@@QAEXXZ$0 004108c0 f   ServiceControl.obj
 0001:0000f8cb       __ehhandler$?OnBnClickedSetCom@CServiceControl@@QAEXXZ 004108cb f   ServiceControl.obj
 0001:0000f900       __unwindfunclet$?OnBnClickedUpdateCom@CServiceControl@@QAEXXZ$0 00410900 f   ServiceControl.obj
 0001:0000f909       __unwindfunclet$?OnBnClickedUpdateCom@CServiceControl@@QAEXXZ$1 00410909 f   ServiceControl.obj
 0001:0000f912       __unwindfunclet$?OnBnClickedUpdateCom@CServiceControl@@QAEXXZ$2 00410912 f   ServiceControl.obj
 0001:0000f91b       __ehhandler$?OnBnClickedUpdateCom@CServiceControl@@QAEXXZ 0041091b f   ServiceControl.obj
 0001:0000f940       __unwindfunclet$?OnBnClickedMotif@CServiceControl@@QAEXXZ$0 00410940 f   ServiceControl.obj
 0001:0000f94b       __ehhandler$?OnBnClickedMotif@CServiceControl@@QAEXXZ 0041094b f   ServiceControl.obj
 0001:0000f980       __unwindfunclet$?OnBnClickedStartAll@CServiceControl@@QAEXXZ$0 00410980 f   ServiceControl.obj
 0001:0000f989       __unwindfunclet$?OnBnClickedStartAll@CServiceControl@@QAEXXZ$1 00410989 f   ServiceControl.obj
 0001:0000f992       __unwindfunclet$?OnBnClickedStartAll@CServiceControl@@QAEXXZ$2 00410992 f   ServiceControl.obj
 0001:0000f99b       __unwindfunclet$?OnBnClickedStartAll@CServiceControl@@QAEXXZ$4 0041099b f   ServiceControl.obj
 0001:0000f9a4       __unwindfunclet$?OnBnClickedStartAll@CServiceControl@@QAEXXZ$5 004109a4 f   ServiceControl.obj
 0001:0000f9ad       __ehhandler$?OnBnClickedStartAll@CServiceControl@@QAEXXZ 004109ad f   ServiceControl.obj
 0001:0000f9d0       __unwindfunclet$?OnBnClickedStopAll@CServiceControl@@QAEXXZ$0 004109d0 f   ServiceControl.obj
 0001:0000f9d9       __ehhandler$?OnBnClickedStopAll@CServiceControl@@QAEXXZ 004109d9 f   ServiceControl.obj
 0001:0000fa00       __unwindfunclet$??HATL@@YA?AV?$CStringT@DV?$StrTraitMFC_DLL@DV?$ChTraitsCRT@D@ATL@@@@@0@PBDABV10@@Z$0 00410a00 f   ServiceControl.obj
 0001:0000fa00       __unwindfunclet$??HATL@@YA?AV?$CStringT@DV?$StrTraitMFC_DLL@DV?$ChTraitsCRT@D@ATL@@@@@0@ABV10@PBD@Z$0 00410a00 f   ServiceControl.obj
 0001:0000fa00       __unwindfunclet$??HATL@@YA?AV?$CStringT@DV?$StrTraitMFC_DLL@DV?$ChTraitsCRT@D@ATL@@@@@0@ABV10@0@Z$0 00410a00 f   ServiceControl.obj
 0001:0000fa09       __ehhandler$??HATL@@YA?AV?$CStringT@DV?$StrTraitMFC_DLL@DV?$ChTraitsCRT@D@ATL@@@@@0@ABV10@PBD@Z 00410a09 f   ServiceControl.obj
 0001:0000fa09       __ehhandler$??HATL@@YA?AV?$CStringT@DV?$StrTraitMFC_DLL@DV?$ChTraitsCRT@D@ATL@@@@@0@ABV10@0@Z 00410a09 f   ServiceControl.obj
 0001:0000fa09       __ehhandler$??HATL@@YA?AV?$CStringT@DV?$StrTraitMFC_DLL@DV?$ChTraitsCRT@D@ATL@@@@@0@PBDABV10@@Z 00410a09 f   ServiceControl.obj
 0001:0000fa30       __unwindfunclet$??0CServiceManage@@QAE@XZ$0 00410a30 f   ServiceManage.obj
 0001:0000fa3c       __unwindfunclet$??0CServiceManage@@QAE@XZ$1 00410a3c f   ServiceManage.obj
 0001:0000fa48       __unwindfunclet$??0CServiceManage@@QAE@XZ$2 00410a48 f   ServiceManage.obj
 0001:0000fa54       __unwindfunclet$??0CServiceManage@@QAE@XZ$3 00410a54 f   ServiceManage.obj
 0001:0000fa60       __unwindfunclet$??0CServiceManage@@QAE@XZ$4 00410a60 f   ServiceManage.obj
 0001:0000fa6c       __unwindfunclet$??0CServiceManage@@QAE@XZ$5 00410a6c f   ServiceManage.obj
 0001:0000fa78       __unwindfunclet$??0CServiceManage@@QAE@XZ$6 00410a78 f   ServiceManage.obj
 0001:0000fa84       __unwindfunclet$??0CServiceManage@@QAE@XZ$7 00410a84 f   ServiceManage.obj
 0001:0000fa92       __unwindfunclet$??0CServiceManage@@QAE@XZ$8 00410a92 f   ServiceManage.obj
 0001:0000faa0       __unwindfunclet$??0CServiceManage@@QAE@XZ$9 00410aa0 f   ServiceManage.obj
 0001:0000faae       __unwindfunclet$??0CServiceManage@@QAE@XZ$10 00410aae f   ServiceManage.obj
 0001:0000fabd       __unwindfunclet$??0CServiceManage@@QAE@XZ$11 00410abd f   ServiceManage.obj
 0001:0000facb       __unwindfunclet$??0CServiceManage@@QAE@XZ$12 00410acb f   ServiceManage.obj
 0001:0000fad6       __ehhandler$??0CServiceManage@@QAE@XZ 00410ad6 f   ServiceManage.obj
 0001:0000fb00       __unwindfunclet$?StartAllGames@CServiceManage@@QAEXPAVCListCtrl@@@Z$0 00410b00 f   ServiceManage.obj
 0001:0000fb09       __unwindfunclet$?StartAllGames@CServiceManage@@QAEXPAVCListCtrl@@@Z$1 00410b09 f   ServiceManage.obj
 0001:0000fb12       __unwindfunclet$?StartAllGames@CServiceManage@@QAEXPAVCListCtrl@@@Z$3 00410b12 f   ServiceManage.obj
 0001:0000fb1b       __unwindfunclet$?StartAllGames@CServiceManage@@QAEXPAVCListCtrl@@@Z$4 00410b1b f   ServiceManage.obj
 0001:0000fb24       __ehhandler$?StartAllGames@CServiceManage@@QAEXPAVCListCtrl@@@Z 00410b24 f   ServiceManage.obj
 0001:0000fb40       __ehhandler$?bGetServiceInfo@CServiceManage@@QAE_NPAUSC_GameRoomInitStruct@@@Z 00410b40 f   ServiceManage.obj
 0001:0000fb70       __ehhandler$?StartGameRoom@CServiceManage@@QAE_NPAUSC_GameRoomInitStruct@@@Z 00410b70 f   ServiceManage.obj
 0001:0000fb90       __unwindfunclet$?LoadData@CServiceInfo@@QAE_NXZ$0 00410b90 f   ServiceManage.obj
 0001:0000fb99       __unwindfunclet$?LoadData@CServiceInfo@@QAE_NXZ$1 00410b99 f   ServiceManage.obj
 0001:0000fba2       __unwindfunclet$?LoadData@CServiceInfo@@QAE_NXZ$2 00410ba2 f   ServiceManage.obj
 0001:0000fbab       __unwindfunclet$?LoadData@CServiceInfo@@QAE_NXZ$3 00410bab f   ServiceManage.obj
 0001:0000fbb4       __ehhandler$?LoadData@CServiceInfo@@QAE_NXZ 00410bb4 f   ServiceManage.obj
 0001:0000fbd0       __unwindfunclet$??1CServiceManage@@UAE@XZ$0 00410bd0 f   ServiceManage.obj
 0001:0000fbdc       __unwindfunclet$??1CServiceManage@@UAE@XZ$1 00410bdc f   ServiceManage.obj
 0001:0000fbe8       __unwindfunclet$??1CServiceManage@@UAE@XZ$2 00410be8 f   ServiceManage.obj
 0001:0000fbf4       __unwindfunclet$??1CServiceManage@@UAE@XZ$3 00410bf4 f   ServiceManage.obj
 0001:0000fc00       __unwindfunclet$??1CServiceManage@@UAE@XZ$4 00410c00 f   ServiceManage.obj
 0001:0000fc0c       __unwindfunclet$??1CServiceManage@@UAE@XZ$5 00410c0c f   ServiceManage.obj
 0001:0000fc18       __unwindfunclet$??1CServiceManage@@UAE@XZ$6 00410c18 f   ServiceManage.obj
 0001:0000fc24       __unwindfunclet$??1CServiceManage@@UAE@XZ$7 00410c24 f   ServiceManage.obj
 0001:0000fc32       __unwindfunclet$??1CServiceManage@@UAE@XZ$8 00410c32 f   ServiceManage.obj
 0001:0000fc40       __unwindfunclet$??1CServiceManage@@UAE@XZ$9 00410c40 f   ServiceManage.obj
 0001:0000fc4e       __unwindfunclet$??1CServiceManage@@UAE@XZ$10 00410c4e f   ServiceManage.obj
 0001:0000fc5d       __unwindfunclet$??1CServiceManage@@UAE@XZ$11 00410c5d f   ServiceManage.obj
 0001:0000fc6b       __ehhandler$??1CServiceManage@@UAE@XZ 00410c6b f   ServiceManage.obj
 0001:0000fc90       __unwindfunclet$?sqlAddConnection@CServiceManage@@QAE_NXZ$0 00410c90 f   ServiceManage.obj
 0001:0000fc99       __unwindfunclet$?sqlAddConnection@CServiceManage@@QAE_NXZ$1 00410c99 f   ServiceManage.obj
 0001:0000fca2       __unwindfunclet$?sqlAddConnection@CServiceManage@@QAE_NXZ$2 00410ca2 f   ServiceManage.obj
 0001:0000fcae       __ehhandler$?sqlAddConnection@CServiceManage@@QAE_NXZ 00410cae f   ServiceManage.obj
 0001:0000fce0       __ehhandler$?StopGameRoom@CServiceManage@@QAE_NPAUSC_GameRoomInitStruct@@@Z 00410ce0 f   ServiceManage.obj
 0001:0000fd00       __unwindfunclet$?OnSocketReadEvent@CServiceManage@@MAE_NPAUNetMessageHead@@PAXIPAVCTCPClientSocket@@@Z$0 00410d00 f   ServiceManage.obj
 0001:0000fd0c       __ehhandler$?OnSocketReadEvent@CServiceManage@@MAE_NPAUNetMessageHead@@PAXIPAVCTCPClientSocket@@@Z 00410d0c f   ServiceManage.obj
 0001:0000fd40       __ehhandler$?DeleteGameRoomInfo@CServiceManage@@QAE_NPAUSC_GameRoomInitStruct@@@Z 00410d40 f   ServiceManage.obj
 0001:0000fd60       __unwindfunclet$?GetRoomListInfo@CServiceManage@@QAE_NXZ$2 00410d60 f   ServiceManage.obj
 0001:0000fd6e       __unwindfunclet$?GetRoomListInfo@CServiceManage@@QAE_NXZ$3 00410d6e f   ServiceManage.obj
 0001:0000fd77       __unwindfunclet$?GetRoomListInfo@CServiceManage@@QAE_NXZ$6 00410d77 f   ServiceManage.obj
 0001:0000fd80       __unwindfunclet$?GetRoomListInfo@CServiceManage@@QAE_NXZ$7 00410d80 f   ServiceManage.obj
 0001:0000fd8c       __unwindfunclet$?GetRoomListInfo@CServiceManage@@QAE_NXZ$9 00410d8c f   ServiceManage.obj
 0001:0000fd95       __ehhandler$?GetRoomListInfo@CServiceManage@@QAE_NXZ 00410d95 f   ServiceManage.obj
 0001:0000fdc0       __ehhandler$?CountOnLinePeople@CServiceManage@@QAEXPAVCListCtrl@@0@Z 00410dc0 f   ServiceManage.obj
 0001:0000fdf0       __unwindfunclet$?GetRoomName@CServiceManage@@QAE?AV?$CStringT@DV?$StrTraitMFC_DLL@DV?$ChTraitsCRT@D@ATL@@@@@ATL@@XZ$0 00410df0 f   ServiceManage.obj
 0001:0000fdf9       __ehhandler$?GetRoomName@CServiceManage@@QAE?AV?$CStringT@DV?$StrTraitMFC_DLL@DV?$ChTraitsCRT@D@ATL@@@@@ATL@@XZ 00410df9 f   ServiceManage.obj
 0001:0000fe20       __unwindfunclet$??0CSetupDialog@@QAE@PAVCWnd@@@Z$0 00410e20 f   SetupDialog.obj
 0001:0000fe28       __unwindfunclet$??0CSetupDialog@@QAE@PAVCWnd@@@Z$1 00410e28 f   SetupDialog.obj
 0001:0000fe37       __unwindfunclet$??0CSetupDialog@@QAE@PAVCWnd@@@Z$2 00410e37 f   SetupDialog.obj
 0001:0000fe46       __unwindfunclet$??0CSetupDialog@@QAE@PAVCWnd@@@Z$3 00410e46 f   SetupDialog.obj
 0001:0000fe55       __unwindfunclet$??0CSetupDialog@@QAE@PAVCWnd@@@Z$4 00410e55 f   SetupDialog.obj
 0001:0000fe64       __unwindfunclet$??0CSetupDialog@@QAE@PAVCWnd@@@Z$5 00410e64 f   SetupDialog.obj
 0001:0000fe73       __unwindfunclet$??0CSetupDialog@@QAE@PAVCWnd@@@Z$6 00410e73 f   SetupDialog.obj
 0001:0000fe81       __unwindfunclet$??0CSetupDialog@@QAE@PAVCWnd@@@Z$7 00410e81 f   SetupDialog.obj
 0001:0000fe8a       __ehhandler$??0CSetupDialog@@QAE@PAVCWnd@@@Z 00410e8a f   SetupDialog.obj
 0001:0000feb0       __unwindfunclet$??1CSetupDialog@@UAE@XZ$0 00410eb0 f   SetupDialog.obj
 0001:0000feb8       __unwindfunclet$??1CSetupDialog@@UAE@XZ$1 00410eb8 f   SetupDialog.obj
 0001:0000fec7       __unwindfunclet$??1CSetupDialog@@UAE@XZ$2 00410ec7 f   SetupDialog.obj
 0001:0000fed6       __unwindfunclet$??1CSetupDialog@@UAE@XZ$3 00410ed6 f   SetupDialog.obj
 0001:0000fee5       __unwindfunclet$??1CSetupDialog@@UAE@XZ$4 00410ee5 f   SetupDialog.obj
 0001:0000fef4       __unwindfunclet$??1CSetupDialog@@UAE@XZ$5 00410ef4 f   SetupDialog.obj
 0001:0000ff03       __ehhandler$??1CSetupDialog@@UAE@XZ 00410f03 f   SetupDialog.obj
 0001:0000ff20       __unwindfunclet$??__EUSER_STATESTRING@@YAXXZ$0 00410f20 f   stdafx.obj
 0001:0000ff2b       __unwindfunclet$??__EUSER_STATESTRING@@YAXXZ$1 00410f2b f   stdafx.obj
 0001:0000ff36       __unwindfunclet$??__EUSER_STATESTRING@@YAXXZ$2 00410f36 f   stdafx.obj
 0001:0000ff41       __unwindfunclet$??__EUSER_STATESTRING@@YAXXZ$3 00410f41 f   stdafx.obj
 0001:0000ff4c       __unwindfunclet$??__EUSER_STATESTRING@@YAXXZ$4 00410f4c f   stdafx.obj
 0001:0000ff57       __unwindfunclet$??__EUSER_STATESTRING@@YAXXZ$5 00410f57 f   stdafx.obj
 0001:0000ff62       __unwindfunclet$??__EUSER_STATESTRING@@YAXXZ$6 00410f62 f   stdafx.obj
 0001:0000ff6d       __ehhandler$??__EUSER_STATESTRING@@YAXXZ 00410f6d f   stdafx.obj
 0001:0000ff90       ??__EWM_CREATETRAYBAR@@YAXXZ 00410f90 f   AFCLoader.obj
 0001:0000ffb0       ??__EtheApp@@YAXXZ         00410fb0 f   AFCLoader.obj
 0001:0000ffe0       ??__EWM_CREATETRAYBAR@@YAXXZ 00410fe0 f   MainFrm.obj
 0001:00010000       ??__Eg_Service@@YAXXZ      00411000 f   MainFrm.obj
 0001:00010030       ??__EWM_CREATETRAYBAR@@YAXXZ 00411030 f   ServiceControl.obj
 0001:00010050       ??__EWM_CREATETRAYBAR@@YAXXZ 00411050 f   ServiceManage.obj
 0001:00010070       ??__EUSER_STATESTRING@@YAXXZ 00411070 f   stdafx.obj
 0001:00010160       ??__EWM_CREATETRAYBAR@@YAXXZ 00411160 f   TrayIcon.obj
 0001:00010180       ??__E_afxInitAppState@@YAXXZ 00411180 f   mfcs100:appmodul.obj
 0001:000101a0       ??__FtheApp@@YAXXZ         004111a0 f   AFCLoader.obj
 0001:000101c0       ??__Fg_Service@@YAXXZ      004111c0 f   MainFrm.obj
 0001:000101e0       ??__FUSER_STATESTRING@@YAXXZ 004111e0 f   stdafx.obj
